
rv:     file format elf64-littleriscv


Disassembly of section .text:

00000000000100e8 <exit>:
   100e8:	1141                	addi	sp,sp,-16
   100ea:	4581                	li	a1,0
   100ec:	e022                	sd	s0,0(sp)
   100ee:	e406                	sd	ra,8(sp)
   100f0:	842a                	mv	s0,a0
   100f2:	773010ef          	jal	ra,12064 <__call_exitprocs>
   100f6:	7481b503          	ld	a0,1864(gp) # 1f6b8 <_global_impure_ptr>
   100fa:	6d3c                	ld	a5,88(a0)
   100fc:	c391                	beqz	a5,10100 <exit+0x18>
   100fe:	9782                	jalr	a5
   10100:	8522                	mv	a0,s0
   10102:	5d10a0ef          	jal	ra,1aed2 <_exit>

0000000000010106 <register_fini>:
   10106:	00000793          	li	a5,0
   1010a:	c791                	beqz	a5,10116 <register_fini+0x10>
   1010c:	6549                	lui	a0,0x12
   1010e:	5ae50513          	addi	a0,a0,1454 # 125ae <__libc_fini_array>
   10112:	0140206f          	j	12126 <atexit>
   10116:	8082                	ret

0000000000010118 <_start>:
   10118:	0000f197          	auipc	gp,0xf
   1011c:	e5818193          	addi	gp,gp,-424 # 1ef70 <__global_pointer$>
   10120:	77018513          	addi	a0,gp,1904 # 1f6e0 <__malloc_max_total_mem>
   10124:	0000f617          	auipc	a2,0xf
   10128:	64c60613          	addi	a2,a2,1612 # 1f770 <__BSS_END__>
   1012c:	8e09                	sub	a2,a2,a0
   1012e:	4581                	li	a1,0
   10130:	10a000ef          	jal	ra,1023a <memset>
   10134:	00002517          	auipc	a0,0x2
   10138:	ff250513          	addi	a0,a0,-14 # 12126 <atexit>
   1013c:	c519                	beqz	a0,1014a <_start+0x32>
   1013e:	00002517          	auipc	a0,0x2
   10142:	47050513          	addi	a0,a0,1136 # 125ae <__libc_fini_array>
   10146:	7e1010ef          	jal	ra,12126 <atexit>
   1014a:	086000ef          	jal	ra,101d0 <__libc_init_array>
   1014e:	4502                	lw	a0,0(sp)
   10150:	002c                	addi	a1,sp,8
   10152:	4601                	li	a2,0
   10154:	050000ef          	jal	ra,101a4 <main>
   10158:	bf41                	j	100e8 <exit>

000000000001015a <__do_global_dtors_aux>:
   1015a:	1141                	addi	sp,sp,-16
   1015c:	e022                	sd	s0,0(sp)
   1015e:	7a01c783          	lbu	a5,1952(gp) # 1f710 <completed.1>
   10162:	e406                	sd	ra,8(sp)
   10164:	ef91                	bnez	a5,10180 <__do_global_dtors_aux+0x26>
   10166:	00000793          	li	a5,0
   1016a:	cb81                	beqz	a5,1017a <__do_global_dtors_aux+0x20>
   1016c:	6579                	lui	a0,0x1e
   1016e:	56050513          	addi	a0,a0,1376 # 1e560 <__FRAME_END__>
   10172:	00000097          	auipc	ra,0x0
   10176:	000000e7          	jalr	zero # 0 <exit-0x100e8>
   1017a:	4785                	li	a5,1
   1017c:	7af18023          	sb	a5,1952(gp) # 1f710 <completed.1>
   10180:	60a2                	ld	ra,8(sp)
   10182:	6402                	ld	s0,0(sp)
   10184:	0141                	addi	sp,sp,16
   10186:	8082                	ret

0000000000010188 <frame_dummy>:
   10188:	00000793          	li	a5,0
   1018c:	cb91                	beqz	a5,101a0 <frame_dummy+0x18>
   1018e:	6579                	lui	a0,0x1e
   10190:	7a818593          	addi	a1,gp,1960 # 1f718 <object.0>
   10194:	56050513          	addi	a0,a0,1376 # 1e560 <__FRAME_END__>
   10198:	00000317          	auipc	t1,0x0
   1019c:	00000067          	jr	zero # 0 <exit-0x100e8>
   101a0:	8082                	ret
	...

00000000000101a4 <main>:
   101a4:	ff010113          	addi	sp,sp,-16
   101a8:	00113423          	sd	ra,8(sp)
   101ac:	00f00613          	li	a2,15
   101b0:	00500593          	li	a1,5
   101b4:	0001c537          	lui	a0,0x1c
   101b8:	67050513          	addi	a0,a0,1648 # 1c670 <__clzdi2+0x40>
   101bc:	14a000ef          	jal	ra,10306 <printf>
   101c0:	00000513          	li	a0,0
   101c4:	00813083          	ld	ra,8(sp)
   101c8:	01010113          	addi	sp,sp,16
   101cc:	00008067          	ret

00000000000101d0 <__libc_init_array>:
   101d0:	1101                	addi	sp,sp,-32
   101d2:	e822                	sd	s0,16(sp)
   101d4:	67f9                	lui	a5,0x1e
   101d6:	6479                	lui	s0,0x1e
   101d8:	e04a                	sd	s2,0(sp)
   101da:	56478793          	addi	a5,a5,1380 # 1e564 <__preinit_array_end>
   101de:	56440713          	addi	a4,s0,1380 # 1e564 <__preinit_array_end>
   101e2:	ec06                	sd	ra,24(sp)
   101e4:	e426                	sd	s1,8(sp)
   101e6:	40e78933          	sub	s2,a5,a4
   101ea:	00e78d63          	beq	a5,a4,10204 <__libc_init_array+0x34>
   101ee:	40395913          	srai	s2,s2,0x3
   101f2:	56440413          	addi	s0,s0,1380
   101f6:	4481                	li	s1,0
   101f8:	601c                	ld	a5,0(s0)
   101fa:	0485                	addi	s1,s1,1
   101fc:	0421                	addi	s0,s0,8
   101fe:	9782                	jalr	a5
   10200:	ff24ece3          	bltu	s1,s2,101f8 <__libc_init_array+0x28>
   10204:	6479                	lui	s0,0x1e
   10206:	67f9                	lui	a5,0x1e
   10208:	57878793          	addi	a5,a5,1400 # 1e578 <__do_global_dtors_aux_fini_array_entry>
   1020c:	56840713          	addi	a4,s0,1384 # 1e568 <__init_array_start>
   10210:	40e78933          	sub	s2,a5,a4
   10214:	40395913          	srai	s2,s2,0x3
   10218:	00e78b63          	beq	a5,a4,1022e <__libc_init_array+0x5e>
   1021c:	56840413          	addi	s0,s0,1384
   10220:	4481                	li	s1,0
   10222:	601c                	ld	a5,0(s0)
   10224:	0485                	addi	s1,s1,1
   10226:	0421                	addi	s0,s0,8
   10228:	9782                	jalr	a5
   1022a:	ff24ece3          	bltu	s1,s2,10222 <__libc_init_array+0x52>
   1022e:	60e2                	ld	ra,24(sp)
   10230:	6442                	ld	s0,16(sp)
   10232:	64a2                	ld	s1,8(sp)
   10234:	6902                	ld	s2,0(sp)
   10236:	6105                	addi	sp,sp,32
   10238:	8082                	ret

000000000001023a <memset>:
   1023a:	433d                	li	t1,15
   1023c:	872a                	mv	a4,a0
   1023e:	02c37163          	bgeu	t1,a2,10260 <memset+0x26>
   10242:	00f77793          	andi	a5,a4,15
   10246:	e3c1                	bnez	a5,102c6 <memset+0x8c>
   10248:	e1bd                	bnez	a1,102ae <memset+0x74>
   1024a:	ff067693          	andi	a3,a2,-16
   1024e:	8a3d                	andi	a2,a2,15
   10250:	96ba                	add	a3,a3,a4
   10252:	e30c                	sd	a1,0(a4)
   10254:	e70c                	sd	a1,8(a4)
   10256:	0741                	addi	a4,a4,16
   10258:	fed76de3          	bltu	a4,a3,10252 <memset+0x18>
   1025c:	e211                	bnez	a2,10260 <memset+0x26>
   1025e:	8082                	ret
   10260:	40c306b3          	sub	a3,t1,a2
   10264:	068a                	slli	a3,a3,0x2
   10266:	00000297          	auipc	t0,0x0
   1026a:	9696                	add	a3,a3,t0
   1026c:	00a68067          	jr	10(a3)
   10270:	00b70723          	sb	a1,14(a4)
   10274:	00b706a3          	sb	a1,13(a4)
   10278:	00b70623          	sb	a1,12(a4)
   1027c:	00b705a3          	sb	a1,11(a4)
   10280:	00b70523          	sb	a1,10(a4)
   10284:	00b704a3          	sb	a1,9(a4)
   10288:	00b70423          	sb	a1,8(a4)
   1028c:	00b703a3          	sb	a1,7(a4)
   10290:	00b70323          	sb	a1,6(a4)
   10294:	00b702a3          	sb	a1,5(a4)
   10298:	00b70223          	sb	a1,4(a4)
   1029c:	00b701a3          	sb	a1,3(a4)
   102a0:	00b70123          	sb	a1,2(a4)
   102a4:	00b700a3          	sb	a1,1(a4)
   102a8:	00b70023          	sb	a1,0(a4)
   102ac:	8082                	ret
   102ae:	0ff5f593          	zext.b	a1,a1
   102b2:	00859693          	slli	a3,a1,0x8
   102b6:	8dd5                	or	a1,a1,a3
   102b8:	01059693          	slli	a3,a1,0x10
   102bc:	8dd5                	or	a1,a1,a3
   102be:	02059693          	slli	a3,a1,0x20
   102c2:	8dd5                	or	a1,a1,a3
   102c4:	b759                	j	1024a <memset+0x10>
   102c6:	00279693          	slli	a3,a5,0x2
   102ca:	00000297          	auipc	t0,0x0
   102ce:	9696                	add	a3,a3,t0
   102d0:	8286                	mv	t0,ra
   102d2:	fa2680e7          	jalr	-94(a3)
   102d6:	8096                	mv	ra,t0
   102d8:	17c1                	addi	a5,a5,-16
   102da:	8f1d                	sub	a4,a4,a5
   102dc:	963e                	add	a2,a2,a5
   102de:	f8c371e3          	bgeu	t1,a2,10260 <memset+0x26>
   102e2:	b79d                	j	10248 <memset+0xe>

00000000000102e4 <_printf_r>:
   102e4:	715d                	addi	sp,sp,-80
   102e6:	f032                	sd	a2,32(sp)
   102e8:	f436                	sd	a3,40(sp)
   102ea:	f83a                	sd	a4,48(sp)
   102ec:	fc3e                	sd	a5,56(sp)
   102ee:	e0c2                	sd	a6,64(sp)
   102f0:	e4c6                	sd	a7,72(sp)
   102f2:	862e                	mv	a2,a1
   102f4:	690c                	ld	a1,16(a0)
   102f6:	1014                	addi	a3,sp,32
   102f8:	ec06                	sd	ra,24(sp)
   102fa:	e436                	sd	a3,8(sp)
   102fc:	036000ef          	jal	ra,10332 <_vfprintf_r>
   10300:	60e2                	ld	ra,24(sp)
   10302:	6161                	addi	sp,sp,80
   10304:	8082                	ret

0000000000010306 <printf>:
   10306:	7581b303          	ld	t1,1880(gp) # 1f6c8 <_impure_ptr>
   1030a:	711d                	addi	sp,sp,-96
   1030c:	f832                	sd	a2,48(sp)
   1030e:	fc36                	sd	a3,56(sp)
   10310:	f42e                	sd	a1,40(sp)
   10312:	e0ba                	sd	a4,64(sp)
   10314:	e4be                	sd	a5,72(sp)
   10316:	e8c2                	sd	a6,80(sp)
   10318:	ecc6                	sd	a7,88(sp)
   1031a:	01033583          	ld	a1,16(t1) # 101a8 <main+0x4>
   1031e:	1034                	addi	a3,sp,40
   10320:	862a                	mv	a2,a0
   10322:	851a                	mv	a0,t1
   10324:	ec06                	sd	ra,24(sp)
   10326:	e436                	sd	a3,8(sp)
   10328:	00a000ef          	jal	ra,10332 <_vfprintf_r>
   1032c:	60e2                	ld	ra,24(sp)
   1032e:	6125                	addi	sp,sp,96
   10330:	8082                	ret

0000000000010332 <_vfprintf_r>:
   10332:	d9010113          	addi	sp,sp,-624
   10336:	26113423          	sd	ra,616(sp)
   1033a:	25213823          	sd	s2,592(sp)
   1033e:	25413023          	sd	s4,576(sp)
   10342:	21b13423          	sd	s11,520(sp)
   10346:	892e                	mv	s2,a1
   10348:	8db2                	mv	s11,a2
   1034a:	ec36                	sd	a3,24(sp)
   1034c:	26813023          	sd	s0,608(sp)
   10350:	24913c23          	sd	s1,600(sp)
   10354:	25313423          	sd	s3,584(sp)
   10358:	23513c23          	sd	s5,568(sp)
   1035c:	23613823          	sd	s6,560(sp)
   10360:	23713423          	sd	s7,552(sp)
   10364:	23813023          	sd	s8,544(sp)
   10368:	21913c23          	sd	s9,536(sp)
   1036c:	21a13823          	sd	s10,528(sp)
   10370:	8a2a                	mv	s4,a0
   10372:	79e040ef          	jal	ra,14b10 <_localeconv_r>
   10376:	611c                	ld	a5,0(a0)
   10378:	853e                	mv	a0,a5
   1037a:	e13e                	sd	a5,128(sp)
   1037c:	723050ef          	jal	ra,1629e <strlen>
   10380:	fcaa                	sd	a0,120(sp)
   10382:	f982                	sd	zero,240(sp)
   10384:	fd82                	sd	zero,248(sp)
   10386:	000a0663          	beqz	s4,10392 <_vfprintf_r+0x60>
   1038a:	050a2783          	lw	a5,80(s4)
   1038e:	5a078c63          	beqz	a5,10946 <_vfprintf_r+0x614>
   10392:	01091783          	lh	a5,16(s2)
   10396:	03279713          	slli	a4,a5,0x32
   1039a:	02074163          	bltz	a4,103bc <_vfprintf_r+0x8a>
   1039e:	0ac92703          	lw	a4,172(s2)
   103a2:	6689                	lui	a3,0x2
   103a4:	8fd5                	or	a5,a5,a3
   103a6:	76f9                	lui	a3,0xffffe
   103a8:	0107979b          	slliw	a5,a5,0x10
   103ac:	16fd                	addi	a3,a3,-1 # ffffffffffffdfff <__BSS_END__+0xfffffffffffde88f>
   103ae:	4107d79b          	sraiw	a5,a5,0x10
   103b2:	8f75                	and	a4,a4,a3
   103b4:	00f91823          	sh	a5,16(s2)
   103b8:	0ae92623          	sw	a4,172(s2)
   103bc:	0087f713          	andi	a4,a5,8
   103c0:	26070363          	beqz	a4,10626 <_vfprintf_r+0x2f4>
   103c4:	01893703          	ld	a4,24(s2)
   103c8:	24070f63          	beqz	a4,10626 <_vfprintf_r+0x2f4>
   103cc:	8be9                	andi	a5,a5,26
   103ce:	4729                	li	a4,10
   103d0:	26e78863          	beq	a5,a4,10640 <_vfprintf_r+0x30e>
   103d4:	67f1                	lui	a5,0x1c
   103d6:	6f478793          	addi	a5,a5,1780 # 1c6f4 <__clzdi2+0xc4>
   103da:	f83e                	sd	a5,48(sp)
   103dc:	000dc783          	lbu	a5,0(s11)
   103e0:	18010b13          	addi	s6,sp,384
   103e4:	6c75                	lui	s8,0x1d
   103e6:	e25a                	sd	s6,256(sp)
   103e8:	ea02                	sd	zero,272(sp)
   103ea:	10012423          	sw	zero,264(sp)
   103ee:	f402                	sd	zero,40(sp)
   103f0:	fc02                	sd	zero,56(sp)
   103f2:	e902                	sd	zero,144(sp)
   103f4:	f882                	sd	zero,112(sp)
   103f6:	e502                	sd	zero,136(sp)
   103f8:	ed02                	sd	zero,152(sp)
   103fa:	e402                	sd	zero,8(sp)
   103fc:	835a                	mv	t1,s6
   103fe:	8f8c0c13          	addi	s8,s8,-1800 # 1c8f8 <zeroes.0>
   10402:	1c078363          	beqz	a5,105c8 <_vfprintf_r+0x296>
   10406:	846e                	mv	s0,s11
   10408:	02500713          	li	a4,37
   1040c:	30e78263          	beq	a5,a4,10710 <_vfprintf_r+0x3de>
   10410:	00144783          	lbu	a5,1(s0)
   10414:	0405                	addi	s0,s0,1
   10416:	fbfd                	bnez	a5,1040c <_vfprintf_r+0xda>
   10418:	41b404bb          	subw	s1,s0,s11
   1041c:	1a048663          	beqz	s1,105c8 <_vfprintf_r+0x296>
   10420:	6cd2                	ld	s9,272(sp)
   10422:	10812783          	lw	a5,264(sp)
   10426:	01b33023          	sd	s11,0(t1)
   1042a:	009c8733          	add	a4,s9,s1
   1042e:	2785                	addiw	a5,a5,1
   10430:	00933423          	sd	s1,8(t1)
   10434:	ea3a                	sd	a4,272(sp)
   10436:	10f12423          	sw	a5,264(sp)
   1043a:	0007871b          	sext.w	a4,a5
   1043e:	479d                	li	a5,7
   10440:	0341                	addi	t1,t1,16
   10442:	2ce7ce63          	blt	a5,a4,1071e <_vfprintf_r+0x3ec>
   10446:	6722                	ld	a4,8(sp)
   10448:	00044783          	lbu	a5,0(s0)
   1044c:	9f25                	addw	a4,a4,s1
   1044e:	e43a                	sd	a4,8(sp)
   10450:	16078c63          	beqz	a5,105c8 <_vfprintf_r+0x296>
   10454:	00144e03          	lbu	t3,1(s0)
   10458:	0c0107a3          	sb	zero,207(sp)
   1045c:	0405                	addi	s0,s0,1
   1045e:	5efd                	li	t4,-1
   10460:	4a81                	li	s5,0
   10462:	4481                	li	s1,0
   10464:	05a00993          	li	s3,90
   10468:	0405                	addi	s0,s0,1
   1046a:	000e0d1b          	sext.w	s10,t3
   1046e:	fe0d079b          	addiw	a5,s10,-32
   10472:	0007871b          	sext.w	a4,a5
   10476:	04e9e563          	bltu	s3,a4,104c0 <_vfprintf_r+0x18e>
   1047a:	02079713          	slli	a4,a5,0x20
   1047e:	01e75793          	srli	a5,a4,0x1e
   10482:	7742                	ld	a4,48(sp)
   10484:	97ba                	add	a5,a5,a4
   10486:	439c                	lw	a5,0(a5)
   10488:	8782                	jr	a5
   1048a:	4a81                	li	s5,0
   1048c:	4625                	li	a2,9
   1048e:	00044703          	lbu	a4,0(s0)
   10492:	002a979b          	slliw	a5,s5,0x2
   10496:	015787bb          	addw	a5,a5,s5
   1049a:	fd0d0e1b          	addiw	t3,s10,-48
   1049e:	0017979b          	slliw	a5,a5,0x1
   104a2:	fd07069b          	addiw	a3,a4,-48
   104a6:	0405                	addi	s0,s0,1
   104a8:	00fe0abb          	addw	s5,t3,a5
   104ac:	00070d1b          	sext.w	s10,a4
   104b0:	fcd67fe3          	bgeu	a2,a3,1048e <_vfprintf_r+0x15c>
   104b4:	fe0d079b          	addiw	a5,s10,-32
   104b8:	0007871b          	sext.w	a4,a5
   104bc:	fae9ffe3          	bgeu	s3,a4,1047a <_vfprintf_r+0x148>
   104c0:	100d0463          	beqz	s10,105c8 <_vfprintf_r+0x296>
   104c4:	11a10c23          	sb	s10,280(sp)
   104c8:	0c0107a3          	sb	zero,207(sp)
   104cc:	4985                	li	s3,1
   104ce:	4b85                	li	s7,1
   104d0:	11810d93          	addi	s11,sp,280
   104d4:	f002                	sd	zero,32(sp)
   104d6:	4e81                	li	t4,0
   104d8:	ec82                	sd	zero,88(sp)
   104da:	f482                	sd	zero,104(sp)
   104dc:	f082                	sd	zero,96(sp)
   104de:	0024ff13          	andi	t5,s1,2
   104e2:	000f0363          	beqz	t5,104e8 <_vfprintf_r+0x1b6>
   104e6:	2989                	addiw	s3,s3,2
   104e8:	0844f893          	andi	a7,s1,132
   104ec:	00089663          	bnez	a7,104f8 <_vfprintf_r+0x1c6>
   104f0:	413a8cbb          	subw	s9,s5,s3
   104f4:	0b9043e3          	bgtz	s9,10d9a <_vfprintf_r+0xa68>
   104f8:	0cf14783          	lbu	a5,207(sp)
   104fc:	6cd2                	ld	s9,272(sp)
   104fe:	c78d                	beqz	a5,10528 <_vfprintf_r+0x1f6>
   10500:	10812783          	lw	a5,264(sp)
   10504:	0cf10713          	addi	a4,sp,207
   10508:	00e33023          	sd	a4,0(t1)
   1050c:	2785                	addiw	a5,a5,1
   1050e:	4705                	li	a4,1
   10510:	0c85                	addi	s9,s9,1
   10512:	00e33423          	sd	a4,8(t1)
   10516:	10f12423          	sw	a5,264(sp)
   1051a:	0007871b          	sext.w	a4,a5
   1051e:	ea66                	sd	s9,272(sp)
   10520:	479d                	li	a5,7
   10522:	0341                	addi	t1,t1,16
   10524:	28e7ca63          	blt	a5,a4,107b8 <_vfprintf_r+0x486>
   10528:	020f0563          	beqz	t5,10552 <_vfprintf_r+0x220>
   1052c:	10812783          	lw	a5,264(sp)
   10530:	0998                	addi	a4,sp,208
   10532:	00e33023          	sd	a4,0(t1)
   10536:	2785                	addiw	a5,a5,1
   10538:	4709                	li	a4,2
   1053a:	0c89                	addi	s9,s9,2
   1053c:	00e33423          	sd	a4,8(t1)
   10540:	10f12423          	sw	a5,264(sp)
   10544:	0007871b          	sext.w	a4,a5
   10548:	ea66                	sd	s9,272(sp)
   1054a:	479d                	li	a5,7
   1054c:	0341                	addi	t1,t1,16
   1054e:	0ee7c6e3          	blt	a5,a4,10e3a <_vfprintf_r+0xb08>
   10552:	08000793          	li	a5,128
   10556:	6ef88e63          	beq	a7,a5,10c52 <_vfprintf_r+0x920>
   1055a:	417e86bb          	subw	a3,t4,s7
   1055e:	78d04063          	bgtz	a3,10cde <_vfprintf_r+0x9ac>
   10562:	1004f793          	andi	a5,s1,256
   10566:	5e079263          	bnez	a5,10b4a <_vfprintf_r+0x818>
   1056a:	10812783          	lw	a5,264(sp)
   1056e:	019b8733          	add	a4,s7,s9
   10572:	01b33023          	sd	s11,0(t1)
   10576:	0017869b          	addiw	a3,a5,1
   1057a:	87b6                	mv	a5,a3
   1057c:	01733423          	sd	s7,8(t1)
   10580:	10f12423          	sw	a5,264(sp)
   10584:	ea3a                	sd	a4,272(sp)
   10586:	479d                	li	a5,7
   10588:	30d7c363          	blt	a5,a3,1088e <_vfprintf_r+0x55c>
   1058c:	0341                	addi	t1,t1,16
   1058e:	8891                	andi	s1,s1,4
   10590:	c489                	beqz	s1,1059a <_vfprintf_r+0x268>
   10592:	413a84bb          	subw	s1,s5,s3
   10596:	0c9040e3          	bgtz	s1,10e56 <_vfprintf_r+0xb24>
   1059a:	87d6                	mv	a5,s5
   1059c:	013ad363          	bge	s5,s3,105a2 <_vfprintf_r+0x270>
   105a0:	87ce                	mv	a5,s3
   105a2:	66a2                	ld	a3,8(sp)
   105a4:	9fb5                	addw	a5,a5,a3
   105a6:	e43e                	sd	a5,8(sp)
   105a8:	7a071a63          	bnez	a4,10d5c <_vfprintf_r+0xa2a>
   105ac:	7782                	ld	a5,32(sp)
   105ae:	10012423          	sw	zero,264(sp)
   105b2:	c789                	beqz	a5,105bc <_vfprintf_r+0x28a>
   105b4:	7582                	ld	a1,32(sp)
   105b6:	8552                	mv	a0,s4
   105b8:	0fc020ef          	jal	ra,126b4 <_free_r>
   105bc:	835a                	mv	t1,s6
   105be:	8da2                	mv	s11,s0
   105c0:	000dc783          	lbu	a5,0(s11)
   105c4:	e40791e3          	bnez	a5,10406 <_vfprintf_r+0xd4>
   105c8:	67d2                	ld	a5,272(sp)
   105ca:	c399                	beqz	a5,105d0 <_vfprintf_r+0x29e>
   105cc:	3400106f          	j	1190c <_vfprintf_r+0x15da>
   105d0:	01095783          	lhu	a5,16(s2)
   105d4:	0407f793          	andi	a5,a5,64
   105d8:	c399                	beqz	a5,105de <_vfprintf_r+0x2ac>
   105da:	6c60106f          	j	11ca0 <_vfprintf_r+0x196e>
   105de:	26813083          	ld	ra,616(sp)
   105e2:	26013403          	ld	s0,608(sp)
   105e6:	6522                	ld	a0,8(sp)
   105e8:	25813483          	ld	s1,600(sp)
   105ec:	25013903          	ld	s2,592(sp)
   105f0:	24813983          	ld	s3,584(sp)
   105f4:	24013a03          	ld	s4,576(sp)
   105f8:	23813a83          	ld	s5,568(sp)
   105fc:	23013b03          	ld	s6,560(sp)
   10600:	22813b83          	ld	s7,552(sp)
   10604:	22013c03          	ld	s8,544(sp)
   10608:	21813c83          	ld	s9,536(sp)
   1060c:	21013d03          	ld	s10,528(sp)
   10610:	20813d83          	ld	s11,520(sp)
   10614:	27010113          	addi	sp,sp,624
   10618:	8082                	ret
   1061a:	0104e493          	ori	s1,s1,16
   1061e:	00044e03          	lbu	t3,0(s0)
   10622:	2481                	sext.w	s1,s1
   10624:	b591                	j	10468 <_vfprintf_r+0x136>
   10626:	85ca                	mv	a1,s2
   10628:	8552                	mv	a0,s4
   1062a:	15f010ef          	jal	ra,11f88 <__swsetup_r>
   1062e:	c119                	beqz	a0,10634 <_vfprintf_r+0x302>
   10630:	6700106f          	j	11ca0 <_vfprintf_r+0x196e>
   10634:	01091783          	lh	a5,16(s2)
   10638:	4729                	li	a4,10
   1063a:	8be9                	andi	a5,a5,26
   1063c:	d8e79ce3          	bne	a5,a4,103d4 <_vfprintf_r+0xa2>
   10640:	01291783          	lh	a5,18(s2)
   10644:	d807c8e3          	bltz	a5,103d4 <_vfprintf_r+0xa2>
   10648:	66e2                	ld	a3,24(sp)
   1064a:	866e                	mv	a2,s11
   1064c:	85ca                	mv	a1,s2
   1064e:	8552                	mv	a0,s4
   10650:	09d010ef          	jal	ra,11eec <__sbprintf>
   10654:	e42a                	sd	a0,8(sp)
   10656:	b761                	j	105de <_vfprintf_r+0x2ac>
   10658:	0104e493          	ori	s1,s1,16
   1065c:	2481                	sext.w	s1,s1
   1065e:	66e2                	ld	a3,24(sp)
   10660:	0204f793          	andi	a5,s1,32
   10664:	00868713          	addi	a4,a3,8
   10668:	24078c63          	beqz	a5,108c0 <_vfprintf_r+0x58e>
   1066c:	629c                	ld	a5,0(a3)
   1066e:	89be                	mv	s3,a5
   10670:	2607ca63          	bltz	a5,108e4 <_vfprintf_r+0x5b2>
   10674:	57fd                	li	a5,-1
   10676:	2efe80e3          	beq	t4,a5,11156 <_vfprintf_r+0xe24>
   1067a:	f7f4fc93          	andi	s9,s1,-129
   1067e:	2c81                	sext.w	s9,s9
   10680:	72099ce3          	bnez	s3,115b8 <_vfprintf_r+0x1286>
   10684:	000e8463          	beqz	t4,1068c <_vfprintf_r+0x35a>
   10688:	6f20106f          	j	11d7a <_vfprintf_r+0x1a48>
   1068c:	4b81                	li	s7,0
   1068e:	ec3a                	sd	a4,24(sp)
   10690:	84e6                	mv	s1,s9
   10692:	17c10d93          	addi	s11,sp,380
   10696:	0cf14783          	lbu	a5,207(sp)
   1069a:	000b899b          	sext.w	s3,s7
   1069e:	01dbd463          	bge	s7,t4,106a6 <_vfprintf_r+0x374>
   106a2:	000e899b          	sext.w	s3,t4
   106a6:	f002                	sd	zero,32(sp)
   106a8:	ec82                	sd	zero,88(sp)
   106aa:	f482                	sd	zero,104(sp)
   106ac:	f082                	sd	zero,96(sp)
   106ae:	e20788e3          	beqz	a5,104de <_vfprintf_r+0x1ac>
   106b2:	2985                	addiw	s3,s3,1
   106b4:	b52d                	j	104de <_vfprintf_r+0x1ac>
   106b6:	0104e493          	ori	s1,s1,16
   106ba:	2481                	sext.w	s1,s1
   106bc:	66e2                	ld	a3,24(sp)
   106be:	0204f793          	andi	a5,s1,32
   106c2:	00868713          	addi	a4,a3,8
   106c6:	1c078e63          	beqz	a5,108a2 <_vfprintf_r+0x570>
   106ca:	0006b983          	ld	s3,0(a3)
   106ce:	bff4fc93          	andi	s9,s1,-1025
   106d2:	2c81                	sext.w	s9,s9
   106d4:	ec3a                	sd	a4,24(sp)
   106d6:	4781                	li	a5,0
   106d8:	4701                	li	a4,0
   106da:	0ce107a3          	sb	a4,207(sp)
   106de:	577d                	li	a4,-1
   106e0:	20ee8e63          	beq	t4,a4,108fc <_vfprintf_r+0x5ca>
   106e4:	f7fcf493          	andi	s1,s9,-129
   106e8:	2481                	sext.w	s1,s1
   106ea:	68099863          	bnez	s3,10d7a <_vfprintf_r+0xa48>
   106ee:	520e9563          	bnez	t4,10c18 <_vfprintf_r+0x8e6>
   106f2:	1e0794e3          	bnez	a5,110da <_vfprintf_r+0xda8>
   106f6:	001cfb93          	andi	s7,s9,1
   106fa:	17c10d93          	addi	s11,sp,380
   106fe:	f80b8ce3          	beqz	s7,10696 <_vfprintf_r+0x364>
   10702:	03000793          	li	a5,48
   10706:	16f10da3          	sb	a5,379(sp)
   1070a:	17b10d93          	addi	s11,sp,379
   1070e:	b761                	j	10696 <_vfprintf_r+0x364>
   10710:	41b404bb          	subw	s1,s0,s11
   10714:	d00496e3          	bnez	s1,10420 <_vfprintf_r+0xee>
   10718:	00044783          	lbu	a5,0(s0)
   1071c:	bb15                	j	10450 <_vfprintf_r+0x11e>
   1071e:	0210                	addi	a2,sp,256
   10720:	85ca                	mv	a1,s2
   10722:	8552                	mv	a0,s4
   10724:	7f8070ef          	jal	ra,17f1c <__sprint_r>
   10728:	ea0514e3          	bnez	a0,105d0 <_vfprintf_r+0x29e>
   1072c:	835a                	mv	t1,s6
   1072e:	bb21                	j	10446 <_vfprintf_r+0x114>
   10730:	0084f793          	andi	a5,s1,8
   10734:	200784e3          	beqz	a5,1113c <_vfprintf_r+0xe0a>
   10738:	67e2                	ld	a5,24(sp)
   1073a:	07bd                	addi	a5,a5,15
   1073c:	ff07f713          	andi	a4,a5,-16
   10740:	631c                	ld	a5,0(a4)
   10742:	670c                	ld	a1,8(a4)
   10744:	0741                	addi	a4,a4,16
   10746:	ec3a                	sd	a4,24(sp)
   10748:	1988                	addi	a0,sp,240
   1074a:	f01a                	sd	t1,32(sp)
   1074c:	e876                	sd	t4,16(sp)
   1074e:	f9be                	sd	a5,240(sp)
   10750:	fdae                	sd	a1,248(sp)
   10752:	376040ef          	jal	ra,14ac8 <_ldcheck>
   10756:	cdaa                	sw	a0,216(sp)
   10758:	4789                	li	a5,2
   1075a:	6ec2                	ld	t4,16(sp)
   1075c:	7302                	ld	t1,32(sp)
   1075e:	66f500e3          	beq	a0,a5,115be <_vfprintf_r+0x128c>
   10762:	4785                	li	a5,1
   10764:	00f51463          	bne	a0,a5,1076c <_vfprintf_r+0x43a>
   10768:	7730006f          	j	116da <_vfprintf_r+0x13a8>
   1076c:	06100793          	li	a5,97
   10770:	38fd05e3          	beq	s10,a5,112fa <_vfprintf_r+0xfc8>
   10774:	04100793          	li	a5,65
   10778:	05800713          	li	a4,88
   1077c:	38fd01e3          	beq	s10,a5,112fe <_vfprintf_r+0xfcc>
   10780:	57fd                	li	a5,-1
   10782:	00fe9463          	bne	t4,a5,1078a <_vfprintf_r+0x458>
   10786:	5ee0106f          	j	11d74 <_vfprintf_r+0x1a42>
   1078a:	fdfd7793          	andi	a5,s10,-33
   1078e:	04700713          	li	a4,71
   10792:	00e79463          	bne	a5,a4,1079a <_vfprintf_r+0x468>
   10796:	5d00106f          	j	11d66 <_vfprintf_r+0x1a34>
   1079a:	1004e793          	ori	a5,s1,256
   1079e:	7bee                	ld	s7,248(sp)
   107a0:	2781                	sext.w	a5,a5
   107a2:	f13e                	sd	a5,160(sp)
   107a4:	e8a6                	sd	s1,80(sp)
   107a6:	79ce                	ld	s3,240(sp)
   107a8:	000bd463          	bgez	s7,107b0 <_vfprintf_r+0x47e>
   107ac:	1780106f          	j	11924 <_vfprintf_r+0x15f2>
   107b0:	f902                	sd	zero,176(sp)
   107b2:	f002                	sd	zero,32(sp)
   107b4:	3890006f          	j	1133c <_vfprintf_r+0x100a>
   107b8:	0210                	addi	a2,sp,256
   107ba:	85ca                	mv	a1,s2
   107bc:	8552                	mv	a0,s4
   107be:	e4f6                	sd	t4,72(sp)
   107c0:	e0c6                	sd	a7,64(sp)
   107c2:	e87a                	sd	t5,16(sp)
   107c4:	758070ef          	jal	ra,17f1c <__sprint_r>
   107c8:	5a051163          	bnez	a0,10d6a <_vfprintf_r+0xa38>
   107cc:	6cd2                	ld	s9,272(sp)
   107ce:	6ea6                	ld	t4,72(sp)
   107d0:	6886                	ld	a7,64(sp)
   107d2:	6f42                	ld	t5,16(sp)
   107d4:	835a                	mv	t1,s6
   107d6:	bb89                	j	10528 <_vfprintf_r+0x1f6>
   107d8:	7722                	ld	a4,40(sp)
   107da:	4785                	li	a5,1
   107dc:	10812683          	lw	a3,264(sp)
   107e0:	01030b93          	addi	s7,t1,16
   107e4:	02e7d4e3          	bge	a5,a4,1100c <_vfprintf_r+0xcda>
   107e8:	2685                	addiw	a3,a3,1
   107ea:	4785                	li	a5,1
   107ec:	001c8713          	addi	a4,s9,1
   107f0:	00f33423          	sd	a5,8(t1)
   107f4:	10d12423          	sw	a3,264(sp)
   107f8:	0006879b          	sext.w	a5,a3
   107fc:	01b33023          	sd	s11,0(t1)
   10800:	ea3a                	sd	a4,272(sp)
   10802:	469d                	li	a3,7
   10804:	4ef6c0e3          	blt	a3,a5,114e4 <_vfprintf_r+0x11b2>
   10808:	0017869b          	addiw	a3,a5,1
   1080c:	77e6                	ld	a5,120(sp)
   1080e:	10d12423          	sw	a3,264(sp)
   10812:	0bc1                	addi	s7,s7,16
   10814:	00e78d33          	add	s10,a5,a4
   10818:	670a                	ld	a4,128(sp)
   1081a:	fefbbc23          	sd	a5,-8(s7)
   1081e:	ea6a                	sd	s10,272(sp)
   10820:	0006879b          	sext.w	a5,a3
   10824:	feebb823          	sd	a4,-16(s7)
   10828:	469d                	li	a3,7
   1082a:	4cf6cae3          	blt	a3,a5,114fe <_vfprintf_r+0x11cc>
   1082e:	754e                	ld	a0,240(sp)
   10830:	75ee                	ld	a1,248(sp)
   10832:	4681                	li	a3,0
   10834:	4601                	li	a2,0
   10836:	e83e                	sd	a5,16(sp)
   10838:	0610a0ef          	jal	ra,1b098 <__eqtf2>
   1083c:	77a2                	ld	a5,40(sp)
   1083e:	fff7869b          	addiw	a3,a5,-1
   10842:	67c2                	ld	a5,16(sp)
   10844:	000504e3          	beqz	a0,1104c <_vfprintf_r+0xd1a>
   10848:	2785                	addiw	a5,a5,1
   1084a:	001d8813          	addi	a6,s11,1
   1084e:	863e                	mv	a2,a5
   10850:	9d36                	add	s10,s10,a3
   10852:	010bb023          	sd	a6,0(s7)
   10856:	00dbb423          	sd	a3,8(s7)
   1085a:	ea6a                	sd	s10,272(sp)
   1085c:	10c12423          	sw	a2,264(sp)
   10860:	469d                	li	a3,7
   10862:	0bc1                	addi	s7,s7,16
   10864:	7cf6c763          	blt	a3,a5,11032 <_vfprintf_r+0xd00>
   10868:	664a                	ld	a2,144(sp)
   1086a:	2785                	addiw	a5,a5,1
   1086c:	1194                	addi	a3,sp,224
   1086e:	01a60733          	add	a4,a2,s10
   10872:	00dbb023          	sd	a3,0(s7)
   10876:	10f12423          	sw	a5,264(sp)
   1087a:	0007869b          	sext.w	a3,a5
   1087e:	00cbb423          	sd	a2,8(s7)
   10882:	ea3a                	sd	a4,272(sp)
   10884:	479d                	li	a5,7
   10886:	010b8313          	addi	t1,s7,16
   1088a:	d0d7d2e3          	bge	a5,a3,1058e <_vfprintf_r+0x25c>
   1088e:	0210                	addi	a2,sp,256
   10890:	85ca                	mv	a1,s2
   10892:	8552                	mv	a0,s4
   10894:	688070ef          	jal	ra,17f1c <__sprint_r>
   10898:	4c051963          	bnez	a0,10d6a <_vfprintf_r+0xa38>
   1089c:	6752                	ld	a4,272(sp)
   1089e:	835a                	mv	t1,s6
   108a0:	b1fd                	j	1058e <_vfprintf_r+0x25c>
   108a2:	0104f793          	andi	a5,s1,16
   108a6:	06079fe3          	bnez	a5,11124 <_vfprintf_r+0xdf2>
   108aa:	66e2                	ld	a3,24(sp)
   108ac:	0404f793          	andi	a5,s1,64
   108b0:	0006a983          	lw	s3,0(a3)
   108b4:	600781e3          	beqz	a5,116b6 <_vfprintf_r+0x1384>
   108b8:	19c2                	slli	s3,s3,0x30
   108ba:	0309d993          	srli	s3,s3,0x30
   108be:	bd01                	j	106ce <_vfprintf_r+0x39c>
   108c0:	0104f793          	andi	a5,s1,16
   108c4:	04079be3          	bnez	a5,1111a <_vfprintf_r+0xde8>
   108c8:	66e2                	ld	a3,24(sp)
   108ca:	0404f793          	andi	a5,s1,64
   108ce:	0006a983          	lw	s3,0(a3)
   108d2:	5c0780e3          	beqz	a5,11692 <_vfprintf_r+0x1360>
   108d6:	0109999b          	slliw	s3,s3,0x10
   108da:	4109d99b          	sraiw	s3,s3,0x10
   108de:	87ce                	mv	a5,s3
   108e0:	d807dae3          	bgez	a5,10674 <_vfprintf_r+0x342>
   108e4:	ec3a                	sd	a4,24(sp)
   108e6:	02d00713          	li	a4,45
   108ea:	0ce107a3          	sb	a4,207(sp)
   108ee:	577d                	li	a4,-1
   108f0:	413009b3          	neg	s3,s3
   108f4:	8ca6                	mv	s9,s1
   108f6:	4785                	li	a5,1
   108f8:	deee96e3          	bne	t4,a4,106e4 <_vfprintf_r+0x3b2>
   108fc:	4705                	li	a4,1
   108fe:	48e78263          	beq	a5,a4,10d82 <_vfprintf_r+0xa50>
   10902:	4709                	li	a4,2
   10904:	32e78363          	beq	a5,a4,10c2a <_vfprintf_r+0x8f8>
   10908:	17c10b93          	addi	s7,sp,380
   1090c:	8dde                	mv	s11,s7
   1090e:	0079f793          	andi	a5,s3,7
   10912:	03078793          	addi	a5,a5,48
   10916:	fefd8fa3          	sb	a5,-1(s11)
   1091a:	0039d993          	srli	s3,s3,0x3
   1091e:	876e                	mv	a4,s11
   10920:	1dfd                	addi	s11,s11,-1
   10922:	fe0996e3          	bnez	s3,1090e <_vfprintf_r+0x5dc>
   10926:	001cf693          	andi	a3,s9,1
   1092a:	32068063          	beqz	a3,10c4a <_vfprintf_r+0x918>
   1092e:	03000693          	li	a3,48
   10932:	30d78c63          	beq	a5,a3,10c4a <_vfprintf_r+0x918>
   10936:	1779                	addi	a4,a4,-2
   10938:	fedd8fa3          	sb	a3,-1(s11)
   1093c:	40eb8bbb          	subw	s7,s7,a4
   10940:	84e6                	mv	s1,s9
   10942:	8dba                	mv	s11,a4
   10944:	bb89                	j	10696 <_vfprintf_r+0x364>
   10946:	8552                	mv	a0,s4
   10948:	43f010ef          	jal	ra,12586 <__sinit>
   1094c:	b499                	j	10392 <_vfprintf_r+0x60>
   1094e:	67e2                	ld	a5,24(sp)
   10950:	0c0107a3          	sb	zero,207(sp)
   10954:	0007bd83          	ld	s11,0(a5)
   10958:	00878c93          	addi	s9,a5,8
   1095c:	120d8be3          	beqz	s11,11292 <_vfprintf_r+0xf60>
   10960:	57fd                	li	a5,-1
   10962:	48fe8fe3          	beq	t4,a5,11600 <_vfprintf_r+0x12ce>
   10966:	8676                	mv	a2,t4
   10968:	4581                	li	a1,0
   1096a:	856e                	mv	a0,s11
   1096c:	ec1a                	sd	t1,24(sp)
   1096e:	e876                	sd	t4,16(sp)
   10970:	135040ef          	jal	ra,152a4 <memchr>
   10974:	f02a                	sd	a0,32(sp)
   10976:	6ec2                	ld	t4,16(sp)
   10978:	6362                	ld	t1,24(sp)
   1097a:	e119                	bnez	a0,10980 <_vfprintf_r+0x64e>
   1097c:	2300106f          	j	11bac <_vfprintf_r+0x187a>
   10980:	7782                	ld	a5,32(sp)
   10982:	ec66                	sd	s9,24(sp)
   10984:	f002                	sd	zero,32(sp)
   10986:	41b78bbb          	subw	s7,a5,s11
   1098a:	0cf14783          	lbu	a5,207(sp)
   1098e:	fffbc993          	not	s3,s7
   10992:	43f9d993          	srai	s3,s3,0x3f
   10996:	ec82                	sd	zero,88(sp)
   10998:	f482                	sd	zero,104(sp)
   1099a:	f082                	sd	zero,96(sp)
   1099c:	0179f9b3          	and	s3,s3,s7
   109a0:	4e81                	li	t4,0
   109a2:	d00798e3          	bnez	a5,106b2 <_vfprintf_r+0x380>
   109a6:	be25                	j	104de <_vfprintf_r+0x1ac>
   109a8:	6762                	ld	a4,24(sp)
   109aa:	0c0107a3          	sb	zero,207(sp)
   109ae:	4985                	li	s3,1
   109b0:	431c                	lw	a5,0(a4)
   109b2:	0721                	addi	a4,a4,8
   109b4:	ec3a                	sd	a4,24(sp)
   109b6:	10f10c23          	sb	a5,280(sp)
   109ba:	4b85                	li	s7,1
   109bc:	11810d93          	addi	s11,sp,280
   109c0:	be11                	j	104d4 <_vfprintf_r+0x1a2>
   109c2:	67e2                	ld	a5,24(sp)
   109c4:	0007aa83          	lw	s5,0(a5)
   109c8:	00878d13          	addi	s10,a5,8
   109cc:	720ad263          	bgez	s5,110f0 <_vfprintf_r+0xdbe>
   109d0:	41500abb          	negw	s5,s5
   109d4:	ec6a                	sd	s10,24(sp)
   109d6:	0044e493          	ori	s1,s1,4
   109da:	00044e03          	lbu	t3,0(s0)
   109de:	2481                	sext.w	s1,s1
   109e0:	b461                	j	10468 <_vfprintf_r+0x136>
   109e2:	02b00793          	li	a5,43
   109e6:	00044e03          	lbu	t3,0(s0)
   109ea:	0cf107a3          	sb	a5,207(sp)
   109ee:	bcad                	j	10468 <_vfprintf_r+0x136>
   109f0:	0804e493          	ori	s1,s1,128
   109f4:	00044e03          	lbu	t3,0(s0)
   109f8:	2481                	sext.w	s1,s1
   109fa:	b4bd                	j	10468 <_vfprintf_r+0x136>
   109fc:	00044d03          	lbu	s10,0(s0)
   10a00:	02a00693          	li	a3,42
   10a04:	00140793          	addi	a5,s0,1
   10a08:	00dd1463          	bne	s10,a3,10a10 <_vfprintf_r+0x6de>
   10a0c:	4a00106f          	j	11eac <_vfprintf_r+0x1b7a>
   10a10:	fd0d071b          	addiw	a4,s10,-48
   10a14:	4625                	li	a2,9
   10a16:	843e                	mv	s0,a5
   10a18:	4e81                	li	t4,0
   10a1a:	46a5                	li	a3,9
   10a1c:	a4e669e3          	bltu	a2,a4,1046e <_vfprintf_r+0x13c>
   10a20:	00044d03          	lbu	s10,0(s0)
   10a24:	002e979b          	slliw	a5,t4,0x2
   10a28:	01d787bb          	addw	a5,a5,t4
   10a2c:	0017979b          	slliw	a5,a5,0x1
   10a30:	00e78ebb          	addw	t4,a5,a4
   10a34:	fd0d071b          	addiw	a4,s10,-48
   10a38:	0405                	addi	s0,s0,1
   10a3a:	fee6f3e3          	bgeu	a3,a4,10a20 <_vfprintf_r+0x6ee>
   10a3e:	bc05                	j	1046e <_vfprintf_r+0x13c>
   10a40:	8552                	mv	a0,s4
   10a42:	f01a                	sd	t1,32(sp)
   10a44:	e876                	sd	t4,16(sp)
   10a46:	0ca040ef          	jal	ra,14b10 <_localeconv_r>
   10a4a:	651c                	ld	a5,8(a0)
   10a4c:	853e                	mv	a0,a5
   10a4e:	ed3e                	sd	a5,152(sp)
   10a50:	04f050ef          	jal	ra,1629e <strlen>
   10a54:	87aa                	mv	a5,a0
   10a56:	8552                	mv	a0,s4
   10a58:	8bbe                	mv	s7,a5
   10a5a:	e53e                	sd	a5,136(sp)
   10a5c:	0b4040ef          	jal	ra,14b10 <_localeconv_r>
   10a60:	6918                	ld	a4,16(a0)
   10a62:	6ec2                	ld	t4,16(sp)
   10a64:	7302                	ld	t1,32(sp)
   10a66:	f8ba                	sd	a4,112(sp)
   10a68:	00044e03          	lbu	t3,0(s0)
   10a6c:	9e0b8ee3          	beqz	s7,10468 <_vfprintf_r+0x136>
   10a70:	9e070ce3          	beqz	a4,10468 <_vfprintf_r+0x136>
   10a74:	00074783          	lbu	a5,0(a4)
   10a78:	9e0788e3          	beqz	a5,10468 <_vfprintf_r+0x136>
   10a7c:	4004e493          	ori	s1,s1,1024
   10a80:	2481                	sext.w	s1,s1
   10a82:	b2dd                	j	10468 <_vfprintf_r+0x136>
   10a84:	0014e493          	ori	s1,s1,1
   10a88:	00044e03          	lbu	t3,0(s0)
   10a8c:	2481                	sext.w	s1,s1
   10a8e:	bae9                	j	10468 <_vfprintf_r+0x136>
   10a90:	0cf14783          	lbu	a5,207(sp)
   10a94:	00044e03          	lbu	t3,0(s0)
   10a98:	9c0798e3          	bnez	a5,10468 <_vfprintf_r+0x136>
   10a9c:	02000793          	li	a5,32
   10aa0:	0cf107a3          	sb	a5,207(sp)
   10aa4:	b2d1                	j	10468 <_vfprintf_r+0x136>
   10aa6:	0084e493          	ori	s1,s1,8
   10aaa:	00044e03          	lbu	t3,0(s0)
   10aae:	2481                	sext.w	s1,s1
   10ab0:	ba65                	j	10468 <_vfprintf_r+0x136>
   10ab2:	0104ec93          	ori	s9,s1,16
   10ab6:	2c81                	sext.w	s9,s9
   10ab8:	66e2                	ld	a3,24(sp)
   10aba:	020cf793          	andi	a5,s9,32
   10abe:	00868713          	addi	a4,a3,8
   10ac2:	5e078b63          	beqz	a5,110b8 <_vfprintf_r+0xd86>
   10ac6:	0006b983          	ld	s3,0(a3)
   10aca:	4785                	li	a5,1
   10acc:	ec3a                	sd	a4,24(sp)
   10ace:	b129                	j	106d8 <_vfprintf_r+0x3a6>
   10ad0:	0204e493          	ori	s1,s1,32
   10ad4:	00044e03          	lbu	t3,0(s0)
   10ad8:	2481                	sext.w	s1,s1
   10ada:	b279                	j	10468 <_vfprintf_r+0x136>
   10adc:	6762                	ld	a4,24(sp)
   10ade:	77e1                	lui	a5,0xffff8
   10ae0:	8307c793          	xori	a5,a5,-2000
   10ae4:	0cf11823          	sh	a5,208(sp)
   10ae8:	00870793          	addi	a5,a4,8
   10aec:	ec3e                	sd	a5,24(sp)
   10aee:	67f1                	lui	a5,0x1c
   10af0:	6d078793          	addi	a5,a5,1744 # 1c6d0 <__clzdi2+0xa0>
   10af4:	0024ec93          	ori	s9,s1,2
   10af8:	fc3e                	sd	a5,56(sp)
   10afa:	00073983          	ld	s3,0(a4)
   10afe:	2c81                	sext.w	s9,s9
   10b00:	4789                	li	a5,2
   10b02:	07800d13          	li	s10,120
   10b06:	bec9                	j	106d8 <_vfprintf_r+0x3a6>
   10b08:	6762                	ld	a4,24(sp)
   10b0a:	0204f793          	andi	a5,s1,32
   10b0e:	6318                	ld	a4,0(a4)
   10b10:	5e078563          	beqz	a5,110fa <_vfprintf_r+0xdc8>
   10b14:	67a2                	ld	a5,8(sp)
   10b16:	e31c                	sd	a5,0(a4)
   10b18:	67e2                	ld	a5,24(sp)
   10b1a:	8da2                	mv	s11,s0
   10b1c:	07a1                	addi	a5,a5,8
   10b1e:	ec3e                	sd	a5,24(sp)
   10b20:	b445                	j	105c0 <_vfprintf_r+0x28e>
   10b22:	00044e03          	lbu	t3,0(s0)
   10b26:	06c00793          	li	a5,108
   10b2a:	74fe0263          	beq	t3,a5,1126e <_vfprintf_r+0xf3c>
   10b2e:	0104e493          	ori	s1,s1,16
   10b32:	2481                	sext.w	s1,s1
   10b34:	ba15                	j	10468 <_vfprintf_r+0x136>
   10b36:	00044e03          	lbu	t3,0(s0)
   10b3a:	06800793          	li	a5,104
   10b3e:	72fe0063          	beq	t3,a5,1125e <_vfprintf_r+0xf2c>
   10b42:	0404e493          	ori	s1,s1,64
   10b46:	2481                	sext.w	s1,s1
   10b48:	b205                	j	10468 <_vfprintf_r+0x136>
   10b4a:	06500793          	li	a5,101
   10b4e:	c9a7d5e3          	bge	a5,s10,107d8 <_vfprintf_r+0x4a6>
   10b52:	754e                	ld	a0,240(sp)
   10b54:	75ee                	ld	a1,248(sp)
   10b56:	4601                	li	a2,0
   10b58:	4681                	li	a3,0
   10b5a:	e81a                	sd	t1,16(sp)
   10b5c:	53c0a0ef          	jal	ra,1b098 <__eqtf2>
   10b60:	6342                	ld	t1,16(sp)
   10b62:	36051c63          	bnez	a0,10eda <_vfprintf_r+0xba8>
   10b66:	10812783          	lw	a5,264(sp)
   10b6a:	6771                	lui	a4,0x1c
   10b6c:	6f070713          	addi	a4,a4,1776 # 1c6f0 <__clzdi2+0xc0>
   10b70:	2785                	addiw	a5,a5,1
   10b72:	00e33023          	sd	a4,0(t1)
   10b76:	0c85                	addi	s9,s9,1
   10b78:	4705                	li	a4,1
   10b7a:	00e33423          	sd	a4,8(t1)
   10b7e:	10f12423          	sw	a5,264(sp)
   10b82:	0007871b          	sext.w	a4,a5
   10b86:	ea66                	sd	s9,272(sp)
   10b88:	479d                	li	a5,7
   10b8a:	0341                	addi	t1,t1,16
   10b8c:	20e7c3e3          	blt	a5,a4,11592 <_vfprintf_r+0x1260>
   10b90:	47ee                	lw	a5,216(sp)
   10b92:	7722                	ld	a4,40(sp)
   10b94:	54e7d863          	bge	a5,a4,110e4 <_vfprintf_r+0xdb2>
   10b98:	76e6                	ld	a3,120(sp)
   10b9a:	10812783          	lw	a5,264(sp)
   10b9e:	660a                	ld	a2,128(sp)
   10ba0:	01968733          	add	a4,a3,s9
   10ba4:	2785                	addiw	a5,a5,1
   10ba6:	00d33423          	sd	a3,8(t1)
   10baa:	00c33023          	sd	a2,0(t1)
   10bae:	0007869b          	sext.w	a3,a5
   10bb2:	10f12423          	sw	a5,264(sp)
   10bb6:	ea3a                	sd	a4,272(sp)
   10bb8:	479d                	li	a5,7
   10bba:	0341                	addi	t1,t1,16
   10bbc:	6cd7c163          	blt	a5,a3,1127e <_vfprintf_r+0xf4c>
   10bc0:	77a2                	ld	a5,40(sp)
   10bc2:	fff78b9b          	addiw	s7,a5,-1
   10bc6:	9d7054e3          	blez	s7,1058e <_vfprintf_r+0x25c>
   10bca:	6cf5                	lui	s9,0x1d
   10bcc:	46c1                	li	a3,16
   10bce:	10812783          	lw	a5,264(sp)
   10bd2:	8f8c8c93          	addi	s9,s9,-1800 # 1c8f8 <zeroes.0>
   10bd6:	4dc1                	li	s11,16
   10bd8:	4d1d                	li	s10,7
   10bda:	0176c763          	blt	a3,s7,10be8 <_vfprintf_r+0x8b6>
   10bde:	1cb0006f          	j	115a8 <_vfprintf_r+0x1276>
   10be2:	3bc1                	addiw	s7,s7,-16
   10be4:	1d7dd2e3          	bge	s11,s7,115a8 <_vfprintf_r+0x1276>
   10be8:	2785                	addiw	a5,a5,1
   10bea:	0741                	addi	a4,a4,16
   10bec:	01933023          	sd	s9,0(t1)
   10bf0:	01b33423          	sd	s11,8(t1)
   10bf4:	ea3a                	sd	a4,272(sp)
   10bf6:	10f12423          	sw	a5,264(sp)
   10bfa:	0341                	addi	t1,t1,16
   10bfc:	fefd53e3          	bge	s10,a5,10be2 <_vfprintf_r+0x8b0>
   10c00:	0210                	addi	a2,sp,256
   10c02:	85ca                	mv	a1,s2
   10c04:	8552                	mv	a0,s4
   10c06:	316070ef          	jal	ra,17f1c <__sprint_r>
   10c0a:	16051063          	bnez	a0,10d6a <_vfprintf_r+0xa38>
   10c0e:	6752                	ld	a4,272(sp)
   10c10:	10812783          	lw	a5,264(sp)
   10c14:	835a                	mv	t1,s6
   10c16:	b7f1                	j	10be2 <_vfprintf_r+0x8b0>
   10c18:	4705                	li	a4,1
   10c1a:	00e79463          	bne	a5,a4,10c22 <_vfprintf_r+0x8f0>
   10c1e:	7db0006f          	j	11bf8 <_vfprintf_r+0x18c6>
   10c22:	4709                	li	a4,2
   10c24:	8ca6                	mv	s9,s1
   10c26:	cee791e3          	bne	a5,a4,10908 <_vfprintf_r+0x5d6>
   10c2a:	17c10b93          	addi	s7,sp,380
   10c2e:	8dde                	mv	s11,s7
   10c30:	7762                	ld	a4,56(sp)
   10c32:	00f9f793          	andi	a5,s3,15
   10c36:	1dfd                	addi	s11,s11,-1
   10c38:	97ba                	add	a5,a5,a4
   10c3a:	0007c783          	lbu	a5,0(a5)
   10c3e:	0049d993          	srli	s3,s3,0x4
   10c42:	00fd8023          	sb	a5,0(s11)
   10c46:	fe0995e3          	bnez	s3,10c30 <_vfprintf_r+0x8fe>
   10c4a:	41bb8bbb          	subw	s7,s7,s11
   10c4e:	84e6                	mv	s1,s9
   10c50:	b499                	j	10696 <_vfprintf_r+0x364>
   10c52:	413a86bb          	subw	a3,s5,s3
   10c56:	90d052e3          	blez	a3,1055a <_vfprintf_r+0x228>
   10c5a:	8766                	mv	a4,s9
   10c5c:	4641                	li	a2,16
   10c5e:	6cf5                	lui	s9,0x1d
   10c60:	10812783          	lw	a5,264(sp)
   10c64:	8f8c8c93          	addi	s9,s9,-1800 # 1c8f8 <zeroes.0>
   10c68:	48c1                	li	a7,16
   10c6a:	4f1d                	li	t5,7
   10c6c:	00d64663          	blt	a2,a3,10c78 <_vfprintf_r+0x946>
   10c70:	a099                	j	10cb6 <_vfprintf_r+0x984>
   10c72:	36c1                	addiw	a3,a3,-16
   10c74:	04d8d163          	bge	a7,a3,10cb6 <_vfprintf_r+0x984>
   10c78:	2785                	addiw	a5,a5,1
   10c7a:	0741                	addi	a4,a4,16
   10c7c:	01933023          	sd	s9,0(t1)
   10c80:	01133423          	sd	a7,8(t1)
   10c84:	ea3a                	sd	a4,272(sp)
   10c86:	10f12423          	sw	a5,264(sp)
   10c8a:	0341                	addi	t1,t1,16
   10c8c:	feff53e3          	bge	t5,a5,10c72 <_vfprintf_r+0x940>
   10c90:	0210                	addi	a2,sp,256
   10c92:	85ca                	mv	a1,s2
   10c94:	8552                	mv	a0,s4
   10c96:	e0b6                	sd	a3,64(sp)
   10c98:	e876                	sd	t4,16(sp)
   10c9a:	282070ef          	jal	ra,17f1c <__sprint_r>
   10c9e:	e571                	bnez	a0,10d6a <_vfprintf_r+0xa38>
   10ca0:	6686                	ld	a3,64(sp)
   10ca2:	48c1                	li	a7,16
   10ca4:	6752                	ld	a4,272(sp)
   10ca6:	36c1                	addiw	a3,a3,-16
   10ca8:	10812783          	lw	a5,264(sp)
   10cac:	6ec2                	ld	t4,16(sp)
   10cae:	835a                	mv	t1,s6
   10cb0:	4f1d                	li	t5,7
   10cb2:	fcd8c3e3          	blt	a7,a3,10c78 <_vfprintf_r+0x946>
   10cb6:	2785                	addiw	a5,a5,1
   10cb8:	9736                	add	a4,a4,a3
   10cba:	00d33423          	sd	a3,8(t1)
   10cbe:	10f12423          	sw	a5,264(sp)
   10cc2:	0007869b          	sext.w	a3,a5
   10cc6:	01933023          	sd	s9,0(t1)
   10cca:	ea3a                	sd	a4,272(sp)
   10ccc:	479d                	li	a5,7
   10cce:	52d7c263          	blt	a5,a3,111f2 <_vfprintf_r+0xec0>
   10cd2:	417e86bb          	subw	a3,t4,s7
   10cd6:	0341                	addi	t1,t1,16
   10cd8:	8cba                	mv	s9,a4
   10cda:	88d054e3          	blez	a3,10562 <_vfprintf_r+0x230>
   10cde:	8766                	mv	a4,s9
   10ce0:	4641                	li	a2,16
   10ce2:	6cf5                	lui	s9,0x1d
   10ce4:	10812783          	lw	a5,264(sp)
   10ce8:	8f8c8c93          	addi	s9,s9,-1800 # 1c8f8 <zeroes.0>
   10cec:	04d65663          	bge	a2,a3,10d38 <_vfprintf_r+0xa06>
   10cf0:	8ce2                	mv	s9,s8
   10cf2:	48c1                	li	a7,16
   10cf4:	4e9d                	li	t4,7
   10cf6:	a021                	j	10cfe <_vfprintf_r+0x9cc>
   10cf8:	36c1                	addiw	a3,a3,-16
   10cfa:	02d8df63          	bge	a7,a3,10d38 <_vfprintf_r+0xa06>
   10cfe:	2785                	addiw	a5,a5,1
   10d00:	0741                	addi	a4,a4,16
   10d02:	01833023          	sd	s8,0(t1)
   10d06:	01133423          	sd	a7,8(t1)
   10d0a:	ea3a                	sd	a4,272(sp)
   10d0c:	10f12423          	sw	a5,264(sp)
   10d10:	0341                	addi	t1,t1,16
   10d12:	fefed3e3          	bge	t4,a5,10cf8 <_vfprintf_r+0x9c6>
   10d16:	0210                	addi	a2,sp,256
   10d18:	85ca                	mv	a1,s2
   10d1a:	8552                	mv	a0,s4
   10d1c:	e836                	sd	a3,16(sp)
   10d1e:	1fe070ef          	jal	ra,17f1c <__sprint_r>
   10d22:	e521                	bnez	a0,10d6a <_vfprintf_r+0xa38>
   10d24:	66c2                	ld	a3,16(sp)
   10d26:	48c1                	li	a7,16
   10d28:	6752                	ld	a4,272(sp)
   10d2a:	36c1                	addiw	a3,a3,-16
   10d2c:	10812783          	lw	a5,264(sp)
   10d30:	835a                	mv	t1,s6
   10d32:	4e9d                	li	t4,7
   10d34:	fcd8c5e3          	blt	a7,a3,10cfe <_vfprintf_r+0x9cc>
   10d38:	2785                	addiw	a5,a5,1
   10d3a:	9736                	add	a4,a4,a3
   10d3c:	00d33423          	sd	a3,8(t1)
   10d40:	10f12423          	sw	a5,264(sp)
   10d44:	0007869b          	sext.w	a3,a5
   10d48:	01933023          	sd	s9,0(t1)
   10d4c:	ea3a                	sd	a4,272(sp)
   10d4e:	479d                	li	a5,7
   10d50:	34d7c963          	blt	a5,a3,110a2 <_vfprintf_r+0xd70>
   10d54:	0341                	addi	t1,t1,16
   10d56:	8cba                	mv	s9,a4
   10d58:	80bff06f          	j	10562 <_vfprintf_r+0x230>
   10d5c:	0210                	addi	a2,sp,256
   10d5e:	85ca                	mv	a1,s2
   10d60:	8552                	mv	a0,s4
   10d62:	1ba070ef          	jal	ra,17f1c <__sprint_r>
   10d66:	840503e3          	beqz	a0,105ac <_vfprintf_r+0x27a>
   10d6a:	7782                	ld	a5,32(sp)
   10d6c:	860782e3          	beqz	a5,105d0 <_vfprintf_r+0x29e>
   10d70:	85be                	mv	a1,a5
   10d72:	8552                	mv	a0,s4
   10d74:	141010ef          	jal	ra,126b4 <_free_r>
   10d78:	b8a1                	j	105d0 <_vfprintf_r+0x29e>
   10d7a:	4705                	li	a4,1
   10d7c:	8ca6                	mv	s9,s1
   10d7e:	b8e792e3          	bne	a5,a4,10902 <_vfprintf_r+0x5d0>
   10d82:	47a5                	li	a5,9
   10d84:	3d37ee63          	bltu	a5,s3,11160 <_vfprintf_r+0xe2e>
   10d88:	0309899b          	addiw	s3,s3,48
   10d8c:	17310da3          	sb	s3,379(sp)
   10d90:	84e6                	mv	s1,s9
   10d92:	4b85                	li	s7,1
   10d94:	17b10d93          	addi	s11,sp,379
   10d98:	b8fd                	j	10696 <_vfprintf_r+0x364>
   10d9a:	46c1                	li	a3,16
   10d9c:	6752                	ld	a4,272(sp)
   10d9e:	10812783          	lw	a5,264(sp)
   10da2:	6396d3e3          	bge	a3,s9,11bc8 <_vfprintf_r+0x1896>
   10da6:	66f5                	lui	a3,0x1d
   10da8:	90868693          	addi	a3,a3,-1784 # 1c908 <blanks.1>
   10dac:	4fc1                	li	t6,16
   10dae:	429d                	li	t0,7
   10db0:	a021                	j	10db8 <_vfprintf_r+0xa86>
   10db2:	3cc1                	addiw	s9,s9,-16
   10db4:	059fd563          	bge	t6,s9,10dfe <_vfprintf_r+0xacc>
   10db8:	2785                	addiw	a5,a5,1
   10dba:	0741                	addi	a4,a4,16
   10dbc:	00d33023          	sd	a3,0(t1)
   10dc0:	01f33423          	sd	t6,8(t1)
   10dc4:	ea3a                	sd	a4,272(sp)
   10dc6:	10f12423          	sw	a5,264(sp)
   10dca:	0341                	addi	t1,t1,16
   10dcc:	fef2d3e3          	bge	t0,a5,10db2 <_vfprintf_r+0xa80>
   10dd0:	0210                	addi	a2,sp,256
   10dd2:	85ca                	mv	a1,s2
   10dd4:	8552                	mv	a0,s4
   10dd6:	e8b6                	sd	a3,80(sp)
   10dd8:	e4f6                	sd	t4,72(sp)
   10dda:	e0c6                	sd	a7,64(sp)
   10ddc:	e87a                	sd	t5,16(sp)
   10dde:	13e070ef          	jal	ra,17f1c <__sprint_r>
   10de2:	f541                	bnez	a0,10d6a <_vfprintf_r+0xa38>
   10de4:	4fc1                	li	t6,16
   10de6:	3cc1                	addiw	s9,s9,-16
   10de8:	6752                	ld	a4,272(sp)
   10dea:	10812783          	lw	a5,264(sp)
   10dee:	66c6                	ld	a3,80(sp)
   10df0:	6ea6                	ld	t4,72(sp)
   10df2:	6886                	ld	a7,64(sp)
   10df4:	6f42                	ld	t5,16(sp)
   10df6:	835a                	mv	t1,s6
   10df8:	429d                	li	t0,7
   10dfa:	fb9fcfe3          	blt	t6,s9,10db8 <_vfprintf_r+0xa86>
   10dfe:	2785                	addiw	a5,a5,1
   10e00:	9766                	add	a4,a4,s9
   10e02:	00d33023          	sd	a3,0(t1)
   10e06:	01933423          	sd	s9,8(t1)
   10e0a:	ea3a                	sd	a4,272(sp)
   10e0c:	10f12423          	sw	a5,264(sp)
   10e10:	0007871b          	sext.w	a4,a5
   10e14:	479d                	li	a5,7
   10e16:	0341                	addi	t1,t1,16
   10e18:	eee7d063          	bge	a5,a4,104f8 <_vfprintf_r+0x1c6>
   10e1c:	0210                	addi	a2,sp,256
   10e1e:	85ca                	mv	a1,s2
   10e20:	8552                	mv	a0,s4
   10e22:	e4f6                	sd	t4,72(sp)
   10e24:	e0c6                	sd	a7,64(sp)
   10e26:	e87a                	sd	t5,16(sp)
   10e28:	0f4070ef          	jal	ra,17f1c <__sprint_r>
   10e2c:	fd1d                	bnez	a0,10d6a <_vfprintf_r+0xa38>
   10e2e:	6ea6                	ld	t4,72(sp)
   10e30:	6886                	ld	a7,64(sp)
   10e32:	6f42                	ld	t5,16(sp)
   10e34:	835a                	mv	t1,s6
   10e36:	ec2ff06f          	j	104f8 <_vfprintf_r+0x1c6>
   10e3a:	0210                	addi	a2,sp,256
   10e3c:	85ca                	mv	a1,s2
   10e3e:	8552                	mv	a0,s4
   10e40:	e0f6                	sd	t4,64(sp)
   10e42:	e846                	sd	a7,16(sp)
   10e44:	0d8070ef          	jal	ra,17f1c <__sprint_r>
   10e48:	f10d                	bnez	a0,10d6a <_vfprintf_r+0xa38>
   10e4a:	6cd2                	ld	s9,272(sp)
   10e4c:	6e86                	ld	t4,64(sp)
   10e4e:	68c2                	ld	a7,16(sp)
   10e50:	835a                	mv	t1,s6
   10e52:	f00ff06f          	j	10552 <_vfprintf_r+0x220>
   10e56:	46c1                	li	a3,16
   10e58:	10812783          	lw	a5,264(sp)
   10e5c:	5e96d5e3          	bge	a3,s1,11c46 <_vfprintf_r+0x1914>
   10e60:	66f5                	lui	a3,0x1d
   10e62:	90868693          	addi	a3,a3,-1784 # 1c908 <blanks.1>
   10e66:	4bc1                	li	s7,16
   10e68:	4c9d                	li	s9,7
   10e6a:	a021                	j	10e72 <_vfprintf_r+0xb40>
   10e6c:	34c1                	addiw	s1,s1,-16
   10e6e:	029bde63          	bge	s7,s1,10eaa <_vfprintf_r+0xb78>
   10e72:	2785                	addiw	a5,a5,1
   10e74:	0741                	addi	a4,a4,16
   10e76:	00d33023          	sd	a3,0(t1)
   10e7a:	01733423          	sd	s7,8(t1)
   10e7e:	ea3a                	sd	a4,272(sp)
   10e80:	10f12423          	sw	a5,264(sp)
   10e84:	0341                	addi	t1,t1,16
   10e86:	fefcd3e3          	bge	s9,a5,10e6c <_vfprintf_r+0xb3a>
   10e8a:	0210                	addi	a2,sp,256
   10e8c:	85ca                	mv	a1,s2
   10e8e:	8552                	mv	a0,s4
   10e90:	e836                	sd	a3,16(sp)
   10e92:	08a070ef          	jal	ra,17f1c <__sprint_r>
   10e96:	ec051ae3          	bnez	a0,10d6a <_vfprintf_r+0xa38>
   10e9a:	34c1                	addiw	s1,s1,-16
   10e9c:	6752                	ld	a4,272(sp)
   10e9e:	10812783          	lw	a5,264(sp)
   10ea2:	66c2                	ld	a3,16(sp)
   10ea4:	835a                	mv	t1,s6
   10ea6:	fc9bc6e3          	blt	s7,s1,10e72 <_vfprintf_r+0xb40>
   10eaa:	2785                	addiw	a5,a5,1
   10eac:	9726                	add	a4,a4,s1
   10eae:	00d33023          	sd	a3,0(t1)
   10eb2:	10f12423          	sw	a5,264(sp)
   10eb6:	0007869b          	sext.w	a3,a5
   10eba:	00933423          	sd	s1,8(t1)
   10ebe:	ea3a                	sd	a4,272(sp)
   10ec0:	479d                	li	a5,7
   10ec2:	ecd7dc63          	bge	a5,a3,1059a <_vfprintf_r+0x268>
   10ec6:	0210                	addi	a2,sp,256
   10ec8:	85ca                	mv	a1,s2
   10eca:	8552                	mv	a0,s4
   10ecc:	050070ef          	jal	ra,17f1c <__sprint_r>
   10ed0:	e8051de3          	bnez	a0,10d6a <_vfprintf_r+0xa38>
   10ed4:	6752                	ld	a4,272(sp)
   10ed6:	ec4ff06f          	j	1059a <_vfprintf_r+0x268>
   10eda:	466e                	lw	a2,216(sp)
   10edc:	62c05e63          	blez	a2,11518 <_vfprintf_r+0x11e6>
   10ee0:	7722                	ld	a4,40(sp)
   10ee2:	7686                	ld	a3,96(sp)
   10ee4:	00ed87b3          	add	a5,s11,a4
   10ee8:	e0be                	sd	a5,64(sp)
   10eea:	87b6                	mv	a5,a3
   10eec:	2ed74d63          	blt	a4,a3,111e6 <_vfprintf_r+0xeb4>
   10ef0:	00078b9b          	sext.w	s7,a5
   10ef4:	03705263          	blez	s7,10f18 <_vfprintf_r+0xbe6>
   10ef8:	10812703          	lw	a4,264(sp)
   10efc:	9cde                	add	s9,s9,s7
   10efe:	01b33023          	sd	s11,0(t1)
   10f02:	0017069b          	addiw	a3,a4,1
   10f06:	01733423          	sd	s7,8(t1)
   10f0a:	ea66                	sd	s9,272(sp)
   10f0c:	10d12423          	sw	a3,264(sp)
   10f10:	471d                	li	a4,7
   10f12:	0341                	addi	t1,t1,16
   10f14:	18d747e3          	blt	a4,a3,118a2 <_vfprintf_r+0x1570>
   10f18:	fffbc713          	not	a4,s7
   10f1c:	977d                	srai	a4,a4,0x3f
   10f1e:	00ebf7b3          	and	a5,s7,a4
   10f22:	7706                	ld	a4,96(sp)
   10f24:	40f70bbb          	subw	s7,a4,a5
   10f28:	39704163          	bgtz	s7,112aa <_vfprintf_r+0xf78>
   10f2c:	7706                	ld	a4,96(sp)
   10f2e:	4004f793          	andi	a5,s1,1024
   10f32:	9dba                	add	s11,s11,a4
   10f34:	7e079163          	bnez	a5,11716 <_vfprintf_r+0x13e4>
   10f38:	47ee                	lw	a5,216(sp)
   10f3a:	76a2                	ld	a3,40(sp)
   10f3c:	00d7c663          	blt	a5,a3,10f48 <_vfprintf_r+0xc16>
   10f40:	0014f713          	andi	a4,s1,1
   10f44:	16070ce3          	beqz	a4,118bc <_vfprintf_r+0x158a>
   10f48:	7666                	ld	a2,120(sp)
   10f4a:	10812683          	lw	a3,264(sp)
   10f4e:	658a                	ld	a1,128(sp)
   10f50:	01960733          	add	a4,a2,s9
   10f54:	2685                	addiw	a3,a3,1
   10f56:	00c33423          	sd	a2,8(t1)
   10f5a:	00b33023          	sd	a1,0(t1)
   10f5e:	0006861b          	sext.w	a2,a3
   10f62:	10d12423          	sw	a3,264(sp)
   10f66:	ea3a                	sd	a4,272(sp)
   10f68:	469d                	li	a3,7
   10f6a:	0341                	addi	t1,t1,16
   10f6c:	3ec6c1e3          	blt	a3,a2,11b4e <_vfprintf_r+0x181c>
   10f70:	6686                	ld	a3,64(sp)
   10f72:	41b68bb3          	sub	s7,a3,s11
   10f76:	76a2                	ld	a3,40(sp)
   10f78:	000b861b          	sext.w	a2,s7
   10f7c:	40f687bb          	subw	a5,a3,a5
   10f80:	00c7d363          	bge	a5,a2,10f86 <_vfprintf_r+0xc54>
   10f84:	8bbe                	mv	s7,a5
   10f86:	000b8c9b          	sext.w	s9,s7
   10f8a:	03905263          	blez	s9,10fae <_vfprintf_r+0xc7c>
   10f8e:	10812683          	lw	a3,264(sp)
   10f92:	9766                	add	a4,a4,s9
   10f94:	01b33023          	sd	s11,0(t1)
   10f98:	0016861b          	addiw	a2,a3,1
   10f9c:	01933423          	sd	s9,8(t1)
   10fa0:	ea3a                	sd	a4,272(sp)
   10fa2:	10c12423          	sw	a2,264(sp)
   10fa6:	469d                	li	a3,7
   10fa8:	0341                	addi	t1,t1,16
   10faa:	42c6c8e3          	blt	a3,a2,11bda <_vfprintf_r+0x18a8>
   10fae:	fffcc693          	not	a3,s9
   10fb2:	96fd                	srai	a3,a3,0x3f
   10fb4:	00dcfcb3          	and	s9,s9,a3
   10fb8:	41978bbb          	subw	s7,a5,s9
   10fbc:	dd705963          	blez	s7,1058e <_vfprintf_r+0x25c>
   10fc0:	6cf5                	lui	s9,0x1d
   10fc2:	46c1                	li	a3,16
   10fc4:	10812783          	lw	a5,264(sp)
   10fc8:	8f8c8c93          	addi	s9,s9,-1800 # 1c8f8 <zeroes.0>
   10fcc:	4dc1                	li	s11,16
   10fce:	4d1d                	li	s10,7
   10fd0:	0176c663          	blt	a3,s7,10fdc <_vfprintf_r+0xcaa>
   10fd4:	abd1                	j	115a8 <_vfprintf_r+0x1276>
   10fd6:	3bc1                	addiw	s7,s7,-16
   10fd8:	5d7dd863          	bge	s11,s7,115a8 <_vfprintf_r+0x1276>
   10fdc:	2785                	addiw	a5,a5,1
   10fde:	0741                	addi	a4,a4,16
   10fe0:	01933023          	sd	s9,0(t1)
   10fe4:	01b33423          	sd	s11,8(t1)
   10fe8:	ea3a                	sd	a4,272(sp)
   10fea:	10f12423          	sw	a5,264(sp)
   10fee:	0341                	addi	t1,t1,16
   10ff0:	fefd53e3          	bge	s10,a5,10fd6 <_vfprintf_r+0xca4>
   10ff4:	0210                	addi	a2,sp,256
   10ff6:	85ca                	mv	a1,s2
   10ff8:	8552                	mv	a0,s4
   10ffa:	723060ef          	jal	ra,17f1c <__sprint_r>
   10ffe:	d60516e3          	bnez	a0,10d6a <_vfprintf_r+0xa38>
   11002:	6752                	ld	a4,272(sp)
   11004:	10812783          	lw	a5,264(sp)
   11008:	835a                	mv	t1,s6
   1100a:	b7f1                	j	10fd6 <_vfprintf_r+0xca4>
   1100c:	0014f713          	andi	a4,s1,1
   11010:	fc071c63          	bnez	a4,107e8 <_vfprintf_r+0x4b6>
   11014:	2685                	addiw	a3,a3,1
   11016:	001c8d13          	addi	s10,s9,1
   1101a:	00f33423          	sd	a5,8(t1)
   1101e:	10d12423          	sw	a3,264(sp)
   11022:	0006879b          	sext.w	a5,a3
   11026:	01b33023          	sd	s11,0(t1)
   1102a:	ea6a                	sd	s10,272(sp)
   1102c:	469d                	li	a3,7
   1102e:	82f6dde3          	bge	a3,a5,10868 <_vfprintf_r+0x536>
   11032:	0210                	addi	a2,sp,256
   11034:	85ca                	mv	a1,s2
   11036:	8552                	mv	a0,s4
   11038:	6e5060ef          	jal	ra,17f1c <__sprint_r>
   1103c:	d20517e3          	bnez	a0,10d6a <_vfprintf_r+0xa38>
   11040:	6d52                	ld	s10,272(sp)
   11042:	10812783          	lw	a5,264(sp)
   11046:	8bda                	mv	s7,s6
   11048:	821ff06f          	j	10868 <_vfprintf_r+0x536>
   1104c:	7722                	ld	a4,40(sp)
   1104e:	4605                	li	a2,1
   11050:	80e65ce3          	bge	a2,a4,10868 <_vfprintf_r+0x536>
   11054:	6cf5                	lui	s9,0x1d
   11056:	4645                	li	a2,17
   11058:	8f8c8c93          	addi	s9,s9,-1800 # 1c8f8 <zeroes.0>
   1105c:	4841                	li	a6,16
   1105e:	4d9d                	li	s11,7
   11060:	00e64663          	blt	a2,a4,1106c <_vfprintf_r+0xd3a>
   11064:	abc1                	j	11634 <_vfprintf_r+0x1302>
   11066:	36c1                	addiw	a3,a3,-16
   11068:	5cd85663          	bge	a6,a3,11634 <_vfprintf_r+0x1302>
   1106c:	2785                	addiw	a5,a5,1
   1106e:	0d41                	addi	s10,s10,16
   11070:	019bb023          	sd	s9,0(s7)
   11074:	010bb423          	sd	a6,8(s7)
   11078:	ea6a                	sd	s10,272(sp)
   1107a:	10f12423          	sw	a5,264(sp)
   1107e:	0bc1                	addi	s7,s7,16
   11080:	fefdd3e3          	bge	s11,a5,11066 <_vfprintf_r+0xd34>
   11084:	0210                	addi	a2,sp,256
   11086:	85ca                	mv	a1,s2
   11088:	8552                	mv	a0,s4
   1108a:	e836                	sd	a3,16(sp)
   1108c:	691060ef          	jal	ra,17f1c <__sprint_r>
   11090:	cc051de3          	bnez	a0,10d6a <_vfprintf_r+0xa38>
   11094:	6d52                	ld	s10,272(sp)
   11096:	10812783          	lw	a5,264(sp)
   1109a:	66c2                	ld	a3,16(sp)
   1109c:	8bda                	mv	s7,s6
   1109e:	4841                	li	a6,16
   110a0:	b7d9                	j	11066 <_vfprintf_r+0xd34>
   110a2:	0210                	addi	a2,sp,256
   110a4:	85ca                	mv	a1,s2
   110a6:	8552                	mv	a0,s4
   110a8:	675060ef          	jal	ra,17f1c <__sprint_r>
   110ac:	ca051fe3          	bnez	a0,10d6a <_vfprintf_r+0xa38>
   110b0:	6cd2                	ld	s9,272(sp)
   110b2:	835a                	mv	t1,s6
   110b4:	caeff06f          	j	10562 <_vfprintf_r+0x230>
   110b8:	010cf793          	andi	a5,s9,16
   110bc:	ebad                	bnez	a5,1112e <_vfprintf_r+0xdfc>
   110be:	66e2                	ld	a3,24(sp)
   110c0:	040cf793          	andi	a5,s9,64
   110c4:	0006a983          	lw	s3,0(a3)
   110c8:	5e078f63          	beqz	a5,116c6 <_vfprintf_r+0x1394>
   110cc:	19c2                	slli	s3,s3,0x30
   110ce:	0309d993          	srli	s3,s3,0x30
   110d2:	ec3a                	sd	a4,24(sp)
   110d4:	4785                	li	a5,1
   110d6:	e02ff06f          	j	106d8 <_vfprintf_r+0x3a6>
   110da:	4b81                	li	s7,0
   110dc:	17c10d93          	addi	s11,sp,380
   110e0:	db6ff06f          	j	10696 <_vfprintf_r+0x364>
   110e4:	0014f793          	andi	a5,s1,1
   110e8:	8766                	mv	a4,s9
   110ea:	ca078263          	beqz	a5,1058e <_vfprintf_r+0x25c>
   110ee:	b46d                	j	10b98 <_vfprintf_r+0x866>
   110f0:	00044e03          	lbu	t3,0(s0)
   110f4:	ec6a                	sd	s10,24(sp)
   110f6:	b72ff06f          	j	10468 <_vfprintf_r+0x136>
   110fa:	0104f793          	andi	a5,s1,16
   110fe:	a0079be3          	bnez	a5,10b14 <_vfprintf_r+0x7e2>
   11102:	0404f793          	andi	a5,s1,64
   11106:	7e079263          	bnez	a5,118ea <_vfprintf_r+0x15b8>
   1110a:	2004f493          	andi	s1,s1,512
   1110e:	67a2                	ld	a5,8(sp)
   11110:	440482e3          	beqz	s1,11d54 <_vfprintf_r+0x1a22>
   11114:	00f70023          	sb	a5,0(a4)
   11118:	b401                	j	10b18 <_vfprintf_r+0x7e6>
   1111a:	67e2                	ld	a5,24(sp)
   1111c:	639c                	ld	a5,0(a5)
   1111e:	89be                	mv	s3,a5
   11120:	d50ff06f          	j	10670 <_vfprintf_r+0x33e>
   11124:	67e2                	ld	a5,24(sp)
   11126:	0007b983          	ld	s3,0(a5)
   1112a:	da4ff06f          	j	106ce <_vfprintf_r+0x39c>
   1112e:	67e2                	ld	a5,24(sp)
   11130:	ec3a                	sd	a4,24(sp)
   11132:	0007b983          	ld	s3,0(a5)
   11136:	4785                	li	a5,1
   11138:	da0ff06f          	j	106d8 <_vfprintf_r+0x3a6>
   1113c:	67e2                	ld	a5,24(sp)
   1113e:	f01a                	sd	t1,32(sp)
   11140:	e876                	sd	t4,16(sp)
   11142:	2388                	fld	fa0,0(a5)
   11144:	07a1                	addi	a5,a5,8
   11146:	ec3e                	sd	a5,24(sp)
   11148:	1aa0b0ef          	jal	ra,1c2f2 <__extenddftf2>
   1114c:	7302                	ld	t1,32(sp)
   1114e:	6ec2                	ld	t4,16(sp)
   11150:	87aa                	mv	a5,a0
   11152:	df6ff06f          	j	10748 <_vfprintf_r+0x416>
   11156:	ec3a                	sd	a4,24(sp)
   11158:	47a5                	li	a5,9
   1115a:	8ca6                	mv	s9,s1
   1115c:	c337f6e3          	bgeu	a5,s3,10d88 <_vfprintf_r+0xa56>
   11160:	17c10b93          	addi	s7,sp,380
   11164:	400cf713          	andi	a4,s9,1024
   11168:	f402                	sd	zero,40(sp)
   1116a:	865e                	mv	a2,s7
   1116c:	44a9                	li	s1,10
   1116e:	46a5                	li	a3,9
   11170:	0ff00893          	li	a7,255
   11174:	a039                	j	11182 <_vfprintf_r+0xe50>
   11176:	0299d7b3          	divu	a5,s3,s1
   1117a:	ad36f8e3          	bgeu	a3,s3,10c4a <_vfprintf_r+0x918>
   1117e:	89be                	mv	s3,a5
   11180:	866e                	mv	a2,s11
   11182:	75a2                	ld	a1,40(sp)
   11184:	fff60d93          	addi	s11,a2,-1
   11188:	2585                	addiw	a1,a1,1
   1118a:	f42e                	sd	a1,40(sp)
   1118c:	0299f7b3          	remu	a5,s3,s1
   11190:	0307879b          	addiw	a5,a5,48
   11194:	fef60fa3          	sb	a5,-1(a2)
   11198:	df79                	beqz	a4,11176 <_vfprintf_r+0xe44>
   1119a:	77c6                	ld	a5,112(sp)
   1119c:	0007c783          	lbu	a5,0(a5)
   111a0:	fcf59be3          	bne	a1,a5,11176 <_vfprintf_r+0xe44>
   111a4:	fd1789e3          	beq	a5,a7,11176 <_vfprintf_r+0xe44>
   111a8:	ab36f1e3          	bgeu	a3,s3,10c4a <_vfprintf_r+0x918>
   111ac:	67aa                	ld	a5,136(sp)
   111ae:	65ea                	ld	a1,152(sp)
   111b0:	e0ba                	sd	a4,64(sp)
   111b2:	40fd8db3          	sub	s11,s11,a5
   111b6:	863e                	mv	a2,a5
   111b8:	856e                	mv	a0,s11
   111ba:	f01a                	sd	t1,32(sp)
   111bc:	e876                	sd	t4,16(sp)
   111be:	170050ef          	jal	ra,1632e <strncpy>
   111c2:	7746                	ld	a4,112(sp)
   111c4:	47a9                	li	a5,10
   111c6:	02f9d7b3          	divu	a5,s3,a5
   111ca:	00174603          	lbu	a2,1(a4)
   111ce:	6ec2                	ld	t4,16(sp)
   111d0:	7302                	ld	t1,32(sp)
   111d2:	00c03633          	snez	a2,a2
   111d6:	9732                	add	a4,a4,a2
   111d8:	f8ba                	sd	a4,112(sp)
   111da:	f402                	sd	zero,40(sp)
   111dc:	6706                	ld	a4,64(sp)
   111de:	46a5                	li	a3,9
   111e0:	0ff00893          	li	a7,255
   111e4:	bf69                	j	1117e <_vfprintf_r+0xe4c>
   111e6:	87ba                	mv	a5,a4
   111e8:	00078b9b          	sext.w	s7,a5
   111ec:	d17046e3          	bgtz	s7,10ef8 <_vfprintf_r+0xbc6>
   111f0:	b325                	j	10f18 <_vfprintf_r+0xbe6>
   111f2:	0210                	addi	a2,sp,256
   111f4:	85ca                	mv	a1,s2
   111f6:	8552                	mv	a0,s4
   111f8:	e876                	sd	t4,16(sp)
   111fa:	523060ef          	jal	ra,17f1c <__sprint_r>
   111fe:	b60516e3          	bnez	a0,10d6a <_vfprintf_r+0xa38>
   11202:	6cd2                	ld	s9,272(sp)
   11204:	6ec2                	ld	t4,16(sp)
   11206:	835a                	mv	t1,s6
   11208:	b52ff06f          	j	1055a <_vfprintf_r+0x228>
   1120c:	8ca6                	mv	s9,s1
   1120e:	b06d                	j	10ab8 <_vfprintf_r+0x786>
   11210:	67f1                	lui	a5,0x1c
   11212:	6b878793          	addi	a5,a5,1720 # 1c6b8 <__clzdi2+0x88>
   11216:	fc3e                	sd	a5,56(sp)
   11218:	66e2                	ld	a3,24(sp)
   1121a:	0204f793          	andi	a5,s1,32
   1121e:	00868713          	addi	a4,a3,8
   11222:	2a078a63          	beqz	a5,114d6 <_vfprintf_r+0x11a4>
   11226:	0006b983          	ld	s3,0(a3)
   1122a:	0014f793          	andi	a5,s1,1
   1122e:	cf81                	beqz	a5,11246 <_vfprintf_r+0xf14>
   11230:	00098b63          	beqz	s3,11246 <_vfprintf_r+0xf14>
   11234:	0024e493          	ori	s1,s1,2
   11238:	03000793          	li	a5,48
   1123c:	0cf10823          	sb	a5,208(sp)
   11240:	0da108a3          	sb	s10,209(sp)
   11244:	2481                	sext.w	s1,s1
   11246:	bff4fc93          	andi	s9,s1,-1025
   1124a:	2c81                	sext.w	s9,s9
   1124c:	ec3a                	sd	a4,24(sp)
   1124e:	4789                	li	a5,2
   11250:	c88ff06f          	j	106d8 <_vfprintf_r+0x3a6>
   11254:	67f1                	lui	a5,0x1c
   11256:	6d078793          	addi	a5,a5,1744 # 1c6d0 <__clzdi2+0xa0>
   1125a:	fc3e                	sd	a5,56(sp)
   1125c:	bf75                	j	11218 <_vfprintf_r+0xee6>
   1125e:	2004e493          	ori	s1,s1,512
   11262:	00144e03          	lbu	t3,1(s0)
   11266:	2481                	sext.w	s1,s1
   11268:	0405                	addi	s0,s0,1
   1126a:	9feff06f          	j	10468 <_vfprintf_r+0x136>
   1126e:	0204e493          	ori	s1,s1,32
   11272:	00144e03          	lbu	t3,1(s0)
   11276:	2481                	sext.w	s1,s1
   11278:	0405                	addi	s0,s0,1
   1127a:	9eeff06f          	j	10468 <_vfprintf_r+0x136>
   1127e:	0210                	addi	a2,sp,256
   11280:	85ca                	mv	a1,s2
   11282:	8552                	mv	a0,s4
   11284:	499060ef          	jal	ra,17f1c <__sprint_r>
   11288:	ae0511e3          	bnez	a0,10d6a <_vfprintf_r+0xa38>
   1128c:	6752                	ld	a4,272(sp)
   1128e:	835a                	mv	t1,s6
   11290:	ba05                	j	10bc0 <_vfprintf_r+0x88e>
   11292:	4799                	li	a5,6
   11294:	000e8b9b          	sext.w	s7,t4
   11298:	63d7e063          	bltu	a5,t4,118b8 <_vfprintf_r+0x1586>
   1129c:	6871                	lui	a6,0x1c
   1129e:	89de                	mv	s3,s7
   112a0:	ec66                	sd	s9,24(sp)
   112a2:	6e880d93          	addi	s11,a6,1768 # 1c6e8 <__clzdi2+0xb8>
   112a6:	a2eff06f          	j	104d4 <_vfprintf_r+0x1a2>
   112aa:	8766                	mv	a4,s9
   112ac:	4641                	li	a2,16
   112ae:	6cf5                	lui	s9,0x1d
   112b0:	10812683          	lw	a3,264(sp)
   112b4:	8f8c8c93          	addi	s9,s9,-1800 # 1c8f8 <zeroes.0>
   112b8:	48c1                	li	a7,16
   112ba:	4d1d                	li	s10,7
   112bc:	01764663          	blt	a2,s7,112c8 <_vfprintf_r+0xf96>
   112c0:	a915                	j	116f4 <_vfprintf_r+0x13c2>
   112c2:	3bc1                	addiw	s7,s7,-16
   112c4:	4378d863          	bge	a7,s7,116f4 <_vfprintf_r+0x13c2>
   112c8:	2685                	addiw	a3,a3,1
   112ca:	0741                	addi	a4,a4,16
   112cc:	01933023          	sd	s9,0(t1)
   112d0:	01133423          	sd	a7,8(t1)
   112d4:	ea3a                	sd	a4,272(sp)
   112d6:	10d12423          	sw	a3,264(sp)
   112da:	0341                	addi	t1,t1,16
   112dc:	fedd53e3          	bge	s10,a3,112c2 <_vfprintf_r+0xf90>
   112e0:	0210                	addi	a2,sp,256
   112e2:	85ca                	mv	a1,s2
   112e4:	8552                	mv	a0,s4
   112e6:	437060ef          	jal	ra,17f1c <__sprint_r>
   112ea:	a80510e3          	bnez	a0,10d6a <_vfprintf_r+0xa38>
   112ee:	6752                	ld	a4,272(sp)
   112f0:	10812683          	lw	a3,264(sp)
   112f4:	835a                	mv	t1,s6
   112f6:	48c1                	li	a7,16
   112f8:	b7e9                	j	112c2 <_vfprintf_r+0xf90>
   112fa:	07800713          	li	a4,120
   112fe:	0024e793          	ori	a5,s1,2
   11302:	03000693          	li	a3,48
   11306:	2781                	sext.w	a5,a5
   11308:	0ce108a3          	sb	a4,209(sp)
   1130c:	0cd10823          	sb	a3,208(sp)
   11310:	06300713          	li	a4,99
   11314:	e8be                	sd	a5,80(sp)
   11316:	f002                	sd	zero,32(sp)
   11318:	11810d93          	addi	s11,sp,280
   1131c:	63d74a63          	blt	a4,t4,11950 <_vfprintf_r+0x161e>
   11320:	1024e493          	ori	s1,s1,258
   11324:	7bee                	ld	s7,248(sp)
   11326:	0004879b          	sext.w	a5,s1
   1132a:	f13e                	sd	a5,160(sp)
   1132c:	f902                	sd	zero,176(sp)
   1132e:	79ce                	ld	s3,240(sp)
   11330:	5e0bcb63          	bltz	s7,11926 <_vfprintf_r+0x15f4>
   11334:	06100793          	li	a5,97
   11338:	24fd0ae3          	beq	s10,a5,11d8c <_vfprintf_r+0x1a5a>
   1133c:	fbfd079b          	addiw	a5,s10,-65
   11340:	0007869b          	sext.w	a3,a5
   11344:	02500713          	li	a4,37
   11348:	00d76c63          	bltu	a4,a3,11360 <_vfprintf_r+0x102e>
   1134c:	02079713          	slli	a4,a5,0x20
   11350:	01e75793          	srli	a5,a4,0x1e
   11354:	6775                	lui	a4,0x1d
   11356:	86070713          	addi	a4,a4,-1952 # 1c860 <__clzdi2+0x230>
   1135a:	97ba                	add	a5,a5,a4
   1135c:	439c                	lw	a5,0(a5)
   1135e:	8782                	jr	a5
   11360:	8776                	mv	a4,t4
   11362:	4689                	li	a3,2
   11364:	09bc                	addi	a5,sp,216
   11366:	0e810893          	addi	a7,sp,232
   1136a:	0dc10813          	addi	a6,sp,220
   1136e:	85ce                	mv	a1,s3
   11370:	865e                	mv	a2,s7
   11372:	8552                	mv	a0,s4
   11374:	e09a                	sd	t1,64(sp)
   11376:	f476                	sd	t4,40(sp)
   11378:	e83a                	sd	a4,16(sp)
   1137a:	11b020ef          	jal	ra,13c94 <_ldtoa_r>
   1137e:	06700793          	li	a5,103
   11382:	6742                	ld	a4,16(sp)
   11384:	7ea2                	ld	t4,40(sp)
   11386:	6306                	ld	t1,64(sp)
   11388:	8daa                	mv	s11,a0
   1138a:	5efd0163          	beq	s10,a5,1196c <_vfprintf_r+0x163a>
   1138e:	04700793          	li	a5,71
   11392:	5cfd0d63          	beq	s10,a5,1196c <_vfprintf_r+0x163a>
   11396:	fdfd7c93          	andi	s9,s10,-33
   1139a:	04600793          	li	a5,70
   1139e:	00e504b3          	add	s1,a0,a4
   113a2:	7cfc8763          	beq	s9,a5,11b70 <_vfprintf_r+0x183e>
   113a6:	4601                	li	a2,0
   113a8:	4681                	li	a3,0
   113aa:	854e                	mv	a0,s3
   113ac:	85de                	mv	a1,s7
   113ae:	f41a                	sd	t1,40(sp)
   113b0:	e876                	sd	t4,16(sp)
   113b2:	4e7090ef          	jal	ra,1b098 <__eqtf2>
   113b6:	6ec2                	ld	t4,16(sp)
   113b8:	7322                	ld	t1,40(sp)
   113ba:	87a6                	mv	a5,s1
   113bc:	cd11                	beqz	a0,113d8 <_vfprintf_r+0x10a6>
   113be:	77ae                	ld	a5,232(sp)
   113c0:	0097fc63          	bgeu	a5,s1,113d8 <_vfprintf_r+0x10a6>
   113c4:	03000693          	li	a3,48
   113c8:	00178713          	addi	a4,a5,1
   113cc:	f5ba                	sd	a4,232(sp)
   113ce:	00d78023          	sb	a3,0(a5)
   113d2:	77ae                	ld	a5,232(sp)
   113d4:	fe97eae3          	bltu	a5,s1,113c8 <_vfprintf_r+0x1096>
   113d8:	41b787bb          	subw	a5,a5,s11
   113dc:	f43e                	sd	a5,40(sp)
   113de:	47ee                	lw	a5,216(sp)
   113e0:	04700713          	li	a4,71
   113e4:	f0be                	sd	a5,96(sp)
   113e6:	6eec8263          	beq	s9,a4,11aca <_vfprintf_r+0x1798>
   113ea:	04600713          	li	a4,70
   113ee:	02ec8fe3          	beq	s9,a4,11c2c <_vfprintf_r+0x18fa>
   113f2:	fff78e9b          	addiw	t4,a5,-1
   113f6:	cdf6                	sw	t4,216(sp)
   113f8:	06100713          	li	a4,97
   113fc:	26ed09e3          	beq	s10,a4,11e6e <_vfprintf_r+0x1b3c>
   11400:	04100693          	li	a3,65
   11404:	05000713          	li	a4,80
   11408:	6cdd1b63          	bne	s10,a3,11ade <_vfprintf_r+0x17ac>
   1140c:	4685                	li	a3,1
   1140e:	0ee10023          	sb	a4,224(sp)
   11412:	02b00713          	li	a4,43
   11416:	000ed763          	bgez	t4,11424 <_vfprintf_r+0x10f2>
   1141a:	4e85                	li	t4,1
   1141c:	40fe8ebb          	subw	t4,t4,a5
   11420:	02d00713          	li	a4,45
   11424:	0ee100a3          	sb	a4,225(sp)
   11428:	47a5                	li	a5,9
   1142a:	11d7d0e3          	bge	a5,t4,11d2a <_vfprintf_r+0x19f8>
   1142e:	0ef10893          	addi	a7,sp,239
   11432:	8646                	mv	a2,a7
   11434:	45a9                	li	a1,10
   11436:	06300f13          	li	t5,99
   1143a:	02bee7bb          	remw	a5,t4,a1
   1143e:	8532                	mv	a0,a2
   11440:	8776                	mv	a4,t4
   11442:	167d                	addi	a2,a2,-1
   11444:	0307879b          	addiw	a5,a5,48
   11448:	fef50fa3          	sb	a5,-1(a0)
   1144c:	02becebb          	divw	t4,t4,a1
   11450:	feef45e3          	blt	t5,a4,1143a <_vfprintf_r+0x1108>
   11454:	030e869b          	addiw	a3,t4,48
   11458:	ffe50793          	addi	a5,a0,-2
   1145c:	fed60fa3          	sb	a3,-1(a2)
   11460:	2517f2e3          	bgeu	a5,a7,11ea4 <_vfprintf_r+0x1b72>
   11464:	0e210713          	addi	a4,sp,226
   11468:	0007c683          	lbu	a3,0(a5)
   1146c:	0785                	addi	a5,a5,1
   1146e:	0705                	addi	a4,a4,1
   11470:	fed70fa3          	sb	a3,-1(a4)
   11474:	ff179ae3          	bne	a5,a7,11468 <_vfprintf_r+0x1136>
   11478:	0f110793          	addi	a5,sp,241
   1147c:	0e210713          	addi	a4,sp,226
   11480:	8f89                	sub	a5,a5,a0
   11482:	97ba                	add	a5,a5,a4
   11484:	1198                	addi	a4,sp,224
   11486:	9f99                	subw	a5,a5,a4
   11488:	e93e                	sd	a5,144(sp)
   1148a:	67ca                	ld	a5,144(sp)
   1148c:	76a2                	ld	a3,40(sp)
   1148e:	4705                	li	a4,1
   11490:	00f68bbb          	addw	s7,a3,a5
   11494:	87de                	mv	a5,s7
   11496:	0ed755e3          	bge	a4,a3,11d80 <_vfprintf_r+0x1a4e>
   1149a:	7766                	ld	a4,120(sp)
   1149c:	00e78bbb          	addw	s7,a5,a4
   114a0:	67c6                	ld	a5,80(sp)
   114a2:	fffbc993          	not	s3,s7
   114a6:	43f9d993          	srai	s3,s3,0x3f
   114aa:	bff7f493          	andi	s1,a5,-1025
   114ae:	2481                	sext.w	s1,s1
   114b0:	013bf9b3          	and	s3,s7,s3
   114b4:	1004e493          	ori	s1,s1,256
   114b8:	2981                	sext.w	s3,s3
   114ba:	ec82                	sd	zero,88(sp)
   114bc:	f482                	sd	zero,104(sp)
   114be:	f082                	sd	zero,96(sp)
   114c0:	77ca                	ld	a5,176(sp)
   114c2:	62078263          	beqz	a5,11ae6 <_vfprintf_r+0x17b4>
   114c6:	02d00793          	li	a5,45
   114ca:	0cf107a3          	sb	a5,207(sp)
   114ce:	4e81                	li	t4,0
   114d0:	2985                	addiw	s3,s3,1
   114d2:	80cff06f          	j	104de <_vfprintf_r+0x1ac>
   114d6:	0104f793          	andi	a5,s1,16
   114da:	c3cd                	beqz	a5,1157c <_vfprintf_r+0x124a>
   114dc:	67e2                	ld	a5,24(sp)
   114de:	0007b983          	ld	s3,0(a5)
   114e2:	b3a1                	j	1122a <_vfprintf_r+0xef8>
   114e4:	0210                	addi	a2,sp,256
   114e6:	85ca                	mv	a1,s2
   114e8:	8552                	mv	a0,s4
   114ea:	233060ef          	jal	ra,17f1c <__sprint_r>
   114ee:	86051ee3          	bnez	a0,10d6a <_vfprintf_r+0xa38>
   114f2:	6752                	ld	a4,272(sp)
   114f4:	10812783          	lw	a5,264(sp)
   114f8:	8bda                	mv	s7,s6
   114fa:	b0eff06f          	j	10808 <_vfprintf_r+0x4d6>
   114fe:	0210                	addi	a2,sp,256
   11500:	85ca                	mv	a1,s2
   11502:	8552                	mv	a0,s4
   11504:	219060ef          	jal	ra,17f1c <__sprint_r>
   11508:	860511e3          	bnez	a0,10d6a <_vfprintf_r+0xa38>
   1150c:	6d52                	ld	s10,272(sp)
   1150e:	10812783          	lw	a5,264(sp)
   11512:	8bda                	mv	s7,s6
   11514:	b1aff06f          	j	1082e <_vfprintf_r+0x4fc>
   11518:	10812783          	lw	a5,264(sp)
   1151c:	66f1                	lui	a3,0x1c
   1151e:	6f068693          	addi	a3,a3,1776 # 1c6f0 <__clzdi2+0xc0>
   11522:	2785                	addiw	a5,a5,1
   11524:	00d33023          	sd	a3,0(t1)
   11528:	001c8713          	addi	a4,s9,1
   1152c:	4685                	li	a3,1
   1152e:	00d33423          	sd	a3,8(t1)
   11532:	10f12423          	sw	a5,264(sp)
   11536:	0007869b          	sext.w	a3,a5
   1153a:	ea3a                	sd	a4,272(sp)
   1153c:	479d                	li	a5,7
   1153e:	0341                	addi	t1,t1,16
   11540:	34d7c263          	blt	a5,a3,11884 <_vfprintf_r+0x1552>
   11544:	0e061f63          	bnez	a2,11642 <_vfprintf_r+0x1310>
   11548:	76a2                	ld	a3,40(sp)
   1154a:	0014f793          	andi	a5,s1,1
   1154e:	8fd5                	or	a5,a5,a3
   11550:	e399                	bnez	a5,11556 <_vfprintf_r+0x1224>
   11552:	83cff06f          	j	1058e <_vfprintf_r+0x25c>
   11556:	10812783          	lw	a5,264(sp)
   1155a:	76e6                	ld	a3,120(sp)
   1155c:	660a                	ld	a2,128(sp)
   1155e:	0017859b          	addiw	a1,a5,1
   11562:	9736                	add	a4,a4,a3
   11564:	00c33023          	sd	a2,0(t1)
   11568:	00d33423          	sd	a3,8(t1)
   1156c:	ea3a                	sd	a4,272(sp)
   1156e:	10b12423          	sw	a1,264(sp)
   11572:	479d                	li	a5,7
   11574:	3cb7c163          	blt	a5,a1,11936 <_vfprintf_r+0x1604>
   11578:	0341                	addi	t1,t1,16
   1157a:	a8c5                	j	1166a <_vfprintf_r+0x1338>
   1157c:	66e2                	ld	a3,24(sp)
   1157e:	0404f793          	andi	a5,s1,64
   11582:	0006a983          	lw	s3,0(a3)
   11586:	12078163          	beqz	a5,116a8 <_vfprintf_r+0x1376>
   1158a:	19c2                	slli	s3,s3,0x30
   1158c:	0309d993          	srli	s3,s3,0x30
   11590:	b969                	j	1122a <_vfprintf_r+0xef8>
   11592:	0210                	addi	a2,sp,256
   11594:	85ca                	mv	a1,s2
   11596:	8552                	mv	a0,s4
   11598:	185060ef          	jal	ra,17f1c <__sprint_r>
   1159c:	fc051763          	bnez	a0,10d6a <_vfprintf_r+0xa38>
   115a0:	6cd2                	ld	s9,272(sp)
   115a2:	835a                	mv	t1,s6
   115a4:	decff06f          	j	10b90 <_vfprintf_r+0x85e>
   115a8:	0017869b          	addiw	a3,a5,1
   115ac:	87b6                	mv	a5,a3
   115ae:	975e                	add	a4,a4,s7
   115b0:	01933023          	sd	s9,0(t1)
   115b4:	fc9fe06f          	j	1057c <_vfprintf_r+0x24a>
   115b8:	ec3a                	sd	a4,24(sp)
   115ba:	fc8ff06f          	j	10d82 <_vfprintf_r+0xa50>
   115be:	754e                	ld	a0,240(sp)
   115c0:	75ee                	ld	a1,248(sp)
   115c2:	4601                	li	a2,0
   115c4:	4681                	li	a3,0
   115c6:	e81a                	sd	t1,16(sp)
   115c8:	42b090ef          	jal	ra,1b1f2 <__letf2>
   115cc:	6342                	ld	t1,16(sp)
   115ce:	58054c63          	bltz	a0,11b66 <_vfprintf_r+0x1834>
   115d2:	0cf14783          	lbu	a5,207(sp)
   115d6:	04700713          	li	a4,71
   115da:	2da75063          	bge	a4,s10,1189a <_vfprintf_r+0x1568>
   115de:	6871                	lui	a6,0x1c
   115e0:	6a080d93          	addi	s11,a6,1696 # 1c6a0 <__clzdi2+0x70>
   115e4:	f7f4f493          	andi	s1,s1,-129
   115e8:	f002                	sd	zero,32(sp)
   115ea:	ec82                	sd	zero,88(sp)
   115ec:	f482                	sd	zero,104(sp)
   115ee:	f082                	sd	zero,96(sp)
   115f0:	2481                	sext.w	s1,s1
   115f2:	498d                	li	s3,3
   115f4:	4b8d                	li	s7,3
   115f6:	4e81                	li	t4,0
   115f8:	8a079d63          	bnez	a5,106b2 <_vfprintf_r+0x380>
   115fc:	ee3fe06f          	j	104de <_vfprintf_r+0x1ac>
   11600:	856e                	mv	a0,s11
   11602:	e81a                	sd	t1,16(sp)
   11604:	49b040ef          	jal	ra,1629e <strlen>
   11608:	00050b9b          	sext.w	s7,a0
   1160c:	0cf14783          	lbu	a5,207(sp)
   11610:	fffbc993          	not	s3,s7
   11614:	43f9d993          	srai	s3,s3,0x3f
   11618:	ec66                	sd	s9,24(sp)
   1161a:	f002                	sd	zero,32(sp)
   1161c:	ec82                	sd	zero,88(sp)
   1161e:	f482                	sd	zero,104(sp)
   11620:	f082                	sd	zero,96(sp)
   11622:	6342                	ld	t1,16(sp)
   11624:	0179f9b3          	and	s3,s3,s7
   11628:	4e81                	li	t4,0
   1162a:	c399                	beqz	a5,11630 <_vfprintf_r+0x12fe>
   1162c:	886ff06f          	j	106b2 <_vfprintf_r+0x380>
   11630:	eaffe06f          	j	104de <_vfprintf_r+0x1ac>
   11634:	2785                	addiw	a5,a5,1
   11636:	863e                	mv	a2,a5
   11638:	9d36                	add	s10,s10,a3
   1163a:	019bb023          	sd	s9,0(s7)
   1163e:	a18ff06f          	j	10856 <_vfprintf_r+0x524>
   11642:	10812783          	lw	a5,264(sp)
   11646:	76e6                	ld	a3,120(sp)
   11648:	658a                	ld	a1,128(sp)
   1164a:	0341                	addi	t1,t1,16
   1164c:	9736                	add	a4,a4,a3
   1164e:	feb33823          	sd	a1,-16(t1)
   11652:	0017859b          	addiw	a1,a5,1
   11656:	fed33c23          	sd	a3,-8(t1)
   1165a:	ea3a                	sd	a4,272(sp)
   1165c:	10b12423          	sw	a1,264(sp)
   11660:	479d                	li	a5,7
   11662:	2cb7ca63          	blt	a5,a1,11936 <_vfprintf_r+0x1604>
   11666:	5e064563          	bltz	a2,11c50 <_vfprintf_r+0x191e>
   1166a:	76a2                	ld	a3,40(sp)
   1166c:	0015879b          	addiw	a5,a1,1
   11670:	10f12423          	sw	a5,264(sp)
   11674:	9736                	add	a4,a4,a3
   11676:	00d33423          	sd	a3,8(t1)
   1167a:	01b33023          	sd	s11,0(t1)
   1167e:	0007869b          	sext.w	a3,a5
   11682:	ea3a                	sd	a4,272(sp)
   11684:	479d                	li	a5,7
   11686:	00d7c463          	blt	a5,a3,1168e <_vfprintf_r+0x135c>
   1168a:	f03fe06f          	j	1058c <_vfprintf_r+0x25a>
   1168e:	a00ff06f          	j	1088e <_vfprintf_r+0x55c>
   11692:	2004f793          	andi	a5,s1,512
   11696:	26078363          	beqz	a5,118fc <_vfprintf_r+0x15ca>
   1169a:	0189999b          	slliw	s3,s3,0x18
   1169e:	4189d99b          	sraiw	s3,s3,0x18
   116a2:	87ce                	mv	a5,s3
   116a4:	fcdfe06f          	j	10670 <_vfprintf_r+0x33e>
   116a8:	2004f793          	andi	a5,s1,512
   116ac:	24078463          	beqz	a5,118f4 <_vfprintf_r+0x15c2>
   116b0:	0ff9f993          	zext.b	s3,s3
   116b4:	be9d                	j	1122a <_vfprintf_r+0xef8>
   116b6:	2004f793          	andi	a5,s1,512
   116ba:	24078463          	beqz	a5,11902 <_vfprintf_r+0x15d0>
   116be:	0ff9f993          	zext.b	s3,s3
   116c2:	80cff06f          	j	106ce <_vfprintf_r+0x39c>
   116c6:	200cf793          	andi	a5,s9,512
   116ca:	20078963          	beqz	a5,118dc <_vfprintf_r+0x15aa>
   116ce:	0ff9f993          	zext.b	s3,s3
   116d2:	ec3a                	sd	a4,24(sp)
   116d4:	4785                	li	a5,1
   116d6:	802ff06f          	j	106d8 <_vfprintf_r+0x3a6>
   116da:	77ee                	ld	a5,248(sp)
   116dc:	2207cf63          	bltz	a5,1191a <_vfprintf_r+0x15e8>
   116e0:	0cf14783          	lbu	a5,207(sp)
   116e4:	04700713          	li	a4,71
   116e8:	4fa75563          	bge	a4,s10,11bd2 <_vfprintf_r+0x18a0>
   116ec:	6871                	lui	a6,0x1c
   116ee:	6b080d93          	addi	s11,a6,1712 # 1c6b0 <__clzdi2+0x80>
   116f2:	bdcd                	j	115e4 <_vfprintf_r+0x12b2>
   116f4:	0016861b          	addiw	a2,a3,1
   116f8:	975e                	add	a4,a4,s7
   116fa:	01933023          	sd	s9,0(t1)
   116fe:	01733423          	sd	s7,8(t1)
   11702:	ea3a                	sd	a4,272(sp)
   11704:	10c12423          	sw	a2,264(sp)
   11708:	479d                	li	a5,7
   1170a:	26c7ca63          	blt	a5,a2,1197e <_vfprintf_r+0x164c>
   1170e:	0341                	addi	t1,t1,16
   11710:	8cba                	mv	s9,a4
   11712:	81bff06f          	j	10f2c <_vfprintf_r+0xbfa>
   11716:	77a6                	ld	a5,104(sp)
   11718:	6ef5                	lui	t4,0x1d
   1171a:	4e1d                	li	t3,7
   1171c:	4bc1                	li	s7,16
   1171e:	8f8e8d13          	addi	s10,t4,-1800 # 1c8f8 <zeroes.0>
   11722:	c7d9                	beqz	a5,117b0 <_vfprintf_r+0x147e>
   11724:	67e6                	ld	a5,88(sp)
   11726:	12078663          	beqz	a5,11852 <_vfprintf_r+0x1520>
   1172a:	67e6                	ld	a5,88(sp)
   1172c:	37fd                	addiw	a5,a5,-1
   1172e:	ecbe                	sd	a5,88(sp)
   11730:	672a                	ld	a4,136(sp)
   11732:	10812783          	lw	a5,264(sp)
   11736:	66ea                	ld	a3,152(sp)
   11738:	9cba                	add	s9,s9,a4
   1173a:	2785                	addiw	a5,a5,1
   1173c:	00e33423          	sd	a4,8(t1)
   11740:	00d33023          	sd	a3,0(t1)
   11744:	ea66                	sd	s9,272(sp)
   11746:	0007871b          	sext.w	a4,a5
   1174a:	10f12423          	sw	a5,264(sp)
   1174e:	0341                	addi	t1,t1,16
   11750:	0eee4663          	blt	t3,a4,1183c <_vfprintf_r+0x150a>
   11754:	77c6                	ld	a5,112(sp)
   11756:	0007c603          	lbu	a2,0(a5)
   1175a:	6786                	ld	a5,64(sp)
   1175c:	41b78733          	sub	a4,a5,s11
   11760:	0007069b          	sext.w	a3,a4
   11764:	0006079b          	sext.w	a5,a2
   11768:	00d65363          	bge	a2,a3,1176e <_vfprintf_r+0x143c>
   1176c:	873e                	mv	a4,a5
   1176e:	2701                	sext.w	a4,a4
   11770:	02e05663          	blez	a4,1179c <_vfprintf_r+0x146a>
   11774:	10812783          	lw	a5,264(sp)
   11778:	9cba                	add	s9,s9,a4
   1177a:	01b33023          	sd	s11,0(t1)
   1177e:	0017869b          	addiw	a3,a5,1
   11782:	00e33423          	sd	a4,8(t1)
   11786:	ea66                	sd	s9,272(sp)
   11788:	10d12423          	sw	a3,264(sp)
   1178c:	0cde4a63          	blt	t3,a3,11860 <_vfprintf_r+0x152e>
   11790:	77c6                	ld	a5,112(sp)
   11792:	0341                	addi	t1,t1,16
   11794:	0007c603          	lbu	a2,0(a5)
   11798:	0006079b          	sext.w	a5,a2
   1179c:	fff74693          	not	a3,a4
   117a0:	96fd                	srai	a3,a3,0x3f
   117a2:	8f75                	and	a4,a4,a3
   117a4:	9f99                	subw	a5,a5,a4
   117a6:	00f04d63          	bgtz	a5,117c0 <_vfprintf_r+0x148e>
   117aa:	9db2                	add	s11,s11,a2
   117ac:	77a6                	ld	a5,104(sp)
   117ae:	fbbd                	bnez	a5,11724 <_vfprintf_r+0x13f2>
   117b0:	67e6                	ld	a5,88(sp)
   117b2:	ffa5                	bnez	a5,1172a <_vfprintf_r+0x13f8>
   117b4:	6786                	ld	a5,64(sp)
   117b6:	f9b7f163          	bgeu	a5,s11,10f38 <_vfprintf_r+0xc06>
   117ba:	8dbe                	mv	s11,a5
   117bc:	f7cff06f          	j	10f38 <_vfprintf_r+0xc06>
   117c0:	8766                	mv	a4,s9
   117c2:	6cf5                	lui	s9,0x1d
   117c4:	10812683          	lw	a3,264(sp)
   117c8:	8f8c8c93          	addi	s9,s9,-1800 # 1c8f8 <zeroes.0>
   117cc:	04fbd463          	bge	s7,a5,11814 <_vfprintf_r+0x14e2>
   117d0:	8cea                	mv	s9,s10
   117d2:	a021                	j	117da <_vfprintf_r+0x14a8>
   117d4:	37c1                	addiw	a5,a5,-16
   117d6:	02fbdf63          	bge	s7,a5,11814 <_vfprintf_r+0x14e2>
   117da:	2685                	addiw	a3,a3,1
   117dc:	0741                	addi	a4,a4,16
   117de:	01a33023          	sd	s10,0(t1)
   117e2:	01733423          	sd	s7,8(t1)
   117e6:	ea3a                	sd	a4,272(sp)
   117e8:	10d12423          	sw	a3,264(sp)
   117ec:	0341                	addi	t1,t1,16
   117ee:	fede53e3          	bge	t3,a3,117d4 <_vfprintf_r+0x14a2>
   117f2:	0210                	addi	a2,sp,256
   117f4:	85ca                	mv	a1,s2
   117f6:	8552                	mv	a0,s4
   117f8:	e83e                	sd	a5,16(sp)
   117fa:	722060ef          	jal	ra,17f1c <__sprint_r>
   117fe:	d6051663          	bnez	a0,10d6a <_vfprintf_r+0xa38>
   11802:	67c2                	ld	a5,16(sp)
   11804:	6752                	ld	a4,272(sp)
   11806:	10812683          	lw	a3,264(sp)
   1180a:	37c1                	addiw	a5,a5,-16
   1180c:	835a                	mv	t1,s6
   1180e:	4e1d                	li	t3,7
   11810:	fcfbc5e3          	blt	s7,a5,117da <_vfprintf_r+0x14a8>
   11814:	2685                	addiw	a3,a3,1
   11816:	973e                	add	a4,a4,a5
   11818:	00f33423          	sd	a5,8(t1)
   1181c:	01933023          	sd	s9,0(t1)
   11820:	ea3a                	sd	a4,272(sp)
   11822:	0006879b          	sext.w	a5,a3
   11826:	10d12423          	sw	a3,264(sp)
   1182a:	30fe4363          	blt	t3,a5,11b30 <_vfprintf_r+0x17fe>
   1182e:	77c6                	ld	a5,112(sp)
   11830:	0341                	addi	t1,t1,16
   11832:	8cba                	mv	s9,a4
   11834:	0007c603          	lbu	a2,0(a5)
   11838:	9db2                	add	s11,s11,a2
   1183a:	bf8d                	j	117ac <_vfprintf_r+0x147a>
   1183c:	0210                	addi	a2,sp,256
   1183e:	85ca                	mv	a1,s2
   11840:	8552                	mv	a0,s4
   11842:	6da060ef          	jal	ra,17f1c <__sprint_r>
   11846:	d2051263          	bnez	a0,10d6a <_vfprintf_r+0xa38>
   1184a:	6cd2                	ld	s9,272(sp)
   1184c:	835a                	mv	t1,s6
   1184e:	4e1d                	li	t3,7
   11850:	b711                	j	11754 <_vfprintf_r+0x1422>
   11852:	77c6                	ld	a5,112(sp)
   11854:	17fd                	addi	a5,a5,-1
   11856:	f8be                	sd	a5,112(sp)
   11858:	77a6                	ld	a5,104(sp)
   1185a:	37fd                	addiw	a5,a5,-1
   1185c:	f4be                	sd	a5,104(sp)
   1185e:	bdc9                	j	11730 <_vfprintf_r+0x13fe>
   11860:	0210                	addi	a2,sp,256
   11862:	85ca                	mv	a1,s2
   11864:	8552                	mv	a0,s4
   11866:	e83a                	sd	a4,16(sp)
   11868:	6b4060ef          	jal	ra,17f1c <__sprint_r>
   1186c:	ce051f63          	bnez	a0,10d6a <_vfprintf_r+0xa38>
   11870:	77c6                	ld	a5,112(sp)
   11872:	6cd2                	ld	s9,272(sp)
   11874:	6742                	ld	a4,16(sp)
   11876:	0007c603          	lbu	a2,0(a5)
   1187a:	835a                	mv	t1,s6
   1187c:	4e1d                	li	t3,7
   1187e:	0006079b          	sext.w	a5,a2
   11882:	bf29                	j	1179c <_vfprintf_r+0x146a>
   11884:	0210                	addi	a2,sp,256
   11886:	85ca                	mv	a1,s2
   11888:	8552                	mv	a0,s4
   1188a:	692060ef          	jal	ra,17f1c <__sprint_r>
   1188e:	cc051e63          	bnez	a0,10d6a <_vfprintf_r+0xa38>
   11892:	466e                	lw	a2,216(sp)
   11894:	6752                	ld	a4,272(sp)
   11896:	835a                	mv	t1,s6
   11898:	b175                	j	11544 <_vfprintf_r+0x1212>
   1189a:	6871                	lui	a6,0x1c
   1189c:	69880d93          	addi	s11,a6,1688 # 1c698 <__clzdi2+0x68>
   118a0:	b391                	j	115e4 <_vfprintf_r+0x12b2>
   118a2:	0210                	addi	a2,sp,256
   118a4:	85ca                	mv	a1,s2
   118a6:	8552                	mv	a0,s4
   118a8:	674060ef          	jal	ra,17f1c <__sprint_r>
   118ac:	ca051f63          	bnez	a0,10d6a <_vfprintf_r+0xa38>
   118b0:	6cd2                	ld	s9,272(sp)
   118b2:	835a                	mv	t1,s6
   118b4:	e64ff06f          	j	10f18 <_vfprintf_r+0xbe6>
   118b8:	4b99                	li	s7,6
   118ba:	b2cd                	j	1129c <_vfprintf_r+0xf6a>
   118bc:	6706                	ld	a4,64(sp)
   118be:	40f687bb          	subw	a5,a3,a5
   118c2:	41b70bb3          	sub	s7,a4,s11
   118c6:	000b861b          	sext.w	a2,s7
   118ca:	8766                	mv	a4,s9
   118cc:	000b8c9b          	sext.w	s9,s7
   118d0:	ecc7df63          	bge	a5,a2,10fae <_vfprintf_r+0xc7c>
   118d4:	00078c9b          	sext.w	s9,a5
   118d8:	ed6ff06f          	j	10fae <_vfprintf_r+0xc7c>
   118dc:	1982                	slli	s3,s3,0x20
   118de:	0209d993          	srli	s3,s3,0x20
   118e2:	ec3a                	sd	a4,24(sp)
   118e4:	4785                	li	a5,1
   118e6:	df3fe06f          	j	106d8 <_vfprintf_r+0x3a6>
   118ea:	67a2                	ld	a5,8(sp)
   118ec:	00f71023          	sh	a5,0(a4)
   118f0:	a28ff06f          	j	10b18 <_vfprintf_r+0x7e6>
   118f4:	1982                	slli	s3,s3,0x20
   118f6:	0209d993          	srli	s3,s3,0x20
   118fa:	ba05                	j	1122a <_vfprintf_r+0xef8>
   118fc:	87ce                	mv	a5,s3
   118fe:	d73fe06f          	j	10670 <_vfprintf_r+0x33e>
   11902:	1982                	slli	s3,s3,0x20
   11904:	0209d993          	srli	s3,s3,0x20
   11908:	dc7fe06f          	j	106ce <_vfprintf_r+0x39c>
   1190c:	0210                	addi	a2,sp,256
   1190e:	85ca                	mv	a1,s2
   11910:	8552                	mv	a0,s4
   11912:	60a060ef          	jal	ra,17f1c <__sprint_r>
   11916:	cbbfe06f          	j	105d0 <_vfprintf_r+0x29e>
   1191a:	02d00793          	li	a5,45
   1191e:	0cf107a3          	sb	a5,207(sp)
   11922:	b3c9                	j	116e4 <_vfprintf_r+0x13b2>
   11924:	f002                	sd	zero,32(sp)
   11926:	57fd                	li	a5,-1
   11928:	17fe                	slli	a5,a5,0x3f
   1192a:	00fbcbb3          	xor	s7,s7,a5
   1192e:	02d00793          	li	a5,45
   11932:	f93e                	sd	a5,176(sp)
   11934:	b401                	j	11334 <_vfprintf_r+0x1002>
   11936:	0210                	addi	a2,sp,256
   11938:	85ca                	mv	a1,s2
   1193a:	8552                	mv	a0,s4
   1193c:	5e0060ef          	jal	ra,17f1c <__sprint_r>
   11940:	c2051563          	bnez	a0,10d6a <_vfprintf_r+0xa38>
   11944:	466e                	lw	a2,216(sp)
   11946:	6752                	ld	a4,272(sp)
   11948:	10812583          	lw	a1,264(sp)
   1194c:	835a                	mv	t1,s6
   1194e:	bb21                	j	11666 <_vfprintf_r+0x1334>
   11950:	001e859b          	addiw	a1,t4,1
   11954:	8552                	mv	a0,s4
   11956:	f01a                	sd	t1,32(sp)
   11958:	e876                	sd	t4,16(sp)
   1195a:	35e030ef          	jal	ra,14cb8 <_malloc_r>
   1195e:	6ec2                	ld	t4,16(sp)
   11960:	7302                	ld	t1,32(sp)
   11962:	8daa                	mv	s11,a0
   11964:	56050463          	beqz	a0,11ecc <_vfprintf_r+0x1b9a>
   11968:	f02a                	sd	a0,32(sp)
   1196a:	ba5d                	j	11320 <_vfprintf_r+0xfee>
   1196c:	67c6                	ld	a5,80(sp)
   1196e:	8b85                	andi	a5,a5,1
   11970:	14078863          	beqz	a5,11ac0 <_vfprintf_r+0x178e>
   11974:	00ed84b3          	add	s1,s11,a4
   11978:	04700c93          	li	s9,71
   1197c:	b42d                	j	113a6 <_vfprintf_r+0x1074>
   1197e:	0210                	addi	a2,sp,256
   11980:	85ca                	mv	a1,s2
   11982:	8552                	mv	a0,s4
   11984:	598060ef          	jal	ra,17f1c <__sprint_r>
   11988:	be051163          	bnez	a0,10d6a <_vfprintf_r+0xa38>
   1198c:	6cd2                	ld	s9,272(sp)
   1198e:	835a                	mv	t1,s6
   11990:	d9cff06f          	j	10f2c <_vfprintf_r+0xbfa>
   11994:	001e871b          	addiw	a4,t4,1
   11998:	4689                	li	a3,2
   1199a:	b2e9                	j	11364 <_vfprintf_r+0x1032>
   1199c:	8776                	mv	a4,t4
   1199e:	468d                	li	a3,3
   119a0:	b2d1                	j	11364 <_vfprintf_r+0x1032>
   119a2:	85de                	mv	a1,s7
   119a4:	854e                	mv	a0,s3
   119a6:	e09a                	sd	t1,64(sp)
   119a8:	f476                	sd	t4,40(sp)
   119aa:	20d0a0ef          	jal	ra,1c3b6 <__trunctfdf2>
   119ae:	09a8                	addi	a0,sp,216
   119b0:	62c040ef          	jal	ra,15fdc <frexp>
   119b4:	13f0a0ef          	jal	ra,1c2f2 <__extenddftf2>
   119b8:	67f5                	lui	a5,0x1d
   119ba:	9287b683          	ld	a3,-1752(a5) # 1c928 <blanks.1+0x20>
   119be:	4601                	li	a2,0
   119c0:	0f3090ef          	jal	ra,1b2b2 <__multf3>
   119c4:	4601                	li	a2,0
   119c6:	4681                	li	a3,0
   119c8:	8baa                	mv	s7,a0
   119ca:	e82e                	sd	a1,16(sp)
   119cc:	6cc090ef          	jal	ra,1b098 <__eqtf2>
   119d0:	7ea2                	ld	t4,40(sp)
   119d2:	6306                	ld	t1,64(sp)
   119d4:	e119                	bnez	a0,119da <_vfprintf_r+0x16a8>
   119d6:	4785                	li	a5,1
   119d8:	cdbe                	sw	a5,216(sp)
   119da:	67f1                	lui	a5,0x1c
   119dc:	6b878793          	addi	a5,a5,1720 # 1c6b8 <__clzdi2+0x88>
   119e0:	e4be                	sd	a5,72(sp)
   119e2:	6775                	lui	a4,0x1d
   119e4:	93873703          	ld	a4,-1736(a4) # 1c938 <blanks.1+0x30>
   119e8:	020e9793          	slli	a5,t4,0x20
   119ec:	9381                	srli	a5,a5,0x20
   119ee:	0785                	addi	a5,a5,1
   119f0:	f53a                	sd	a4,168(sp)
   119f2:	97ee                	add	a5,a5,s11
   119f4:	000e871b          	sext.w	a4,t4
   119f8:	fd3a                	sd	a4,184(sp)
   119fa:	f0be                	sd	a5,96(sp)
   119fc:	8cee                	mv	s9,s11
   119fe:	a809                	j	11a10 <_vfprintf_r+0x16de>
   11a00:	4601                	li	a2,0
   11a02:	4681                	li	a3,0
   11a04:	694090ef          	jal	ra,1b098 <__eqtf2>
   11a08:	7ea2                	ld	t4,40(sp)
   11a0a:	6306                	ld	t1,64(sp)
   11a0c:	34050763          	beqz	a0,11d5a <_vfprintf_r+0x1a28>
   11a10:	76aa                	ld	a3,168(sp)
   11a12:	65c2                	ld	a1,16(sp)
   11a14:	4601                	li	a2,0
   11a16:	855e                	mv	a0,s7
   11a18:	e09a                	sd	t1,64(sp)
   11a1a:	f476                	sd	t4,40(sp)
   11a1c:	097090ef          	jal	ra,1b2b2 <__multf3>
   11a20:	8bae                	mv	s7,a1
   11a22:	89aa                	mv	s3,a0
   11a24:	7e80a0ef          	jal	ra,1c20c <__fixtfsi>
   11a28:	0005049b          	sext.w	s1,a0
   11a2c:	8526                	mv	a0,s1
   11a2e:	06f0a0ef          	jal	ra,1c29c <__floatsitf>
   11a32:	862a                	mv	a2,a0
   11a34:	86ae                	mv	a3,a1
   11a36:	854e                	mv	a0,s3
   11a38:	85de                	mv	a1,s7
   11a3a:	69b090ef          	jal	ra,1b8d4 <__subtf3>
   11a3e:	67a6                	ld	a5,72(sp)
   11a40:	f4e6                	sd	s9,104(sp)
   11a42:	0c85                	addi	s9,s9,1
   11a44:	00978733          	add	a4,a5,s1
   11a48:	00074703          	lbu	a4,0(a4)
   11a4c:	7786                	ld	a5,96(sp)
   11a4e:	ecaa                	sd	a0,88(sp)
   11a50:	feec8fa3          	sb	a4,-1(s9)
   11a54:	e82e                	sd	a1,16(sp)
   11a56:	7ea2                	ld	t4,40(sp)
   11a58:	6306                	ld	t1,64(sp)
   11a5a:	8baa                	mv	s7,a0
   11a5c:	89ae                	mv	s3,a1
   11a5e:	fb9791e3          	bne	a5,s9,11a00 <_vfprintf_r+0x16ce>
   11a62:	5bfd                	li	s7,-1
   11a64:	6775                	lui	a4,0x1d
   11a66:	94873783          	ld	a5,-1720(a4) # 1c948 <blanks.1+0x40>
   11a6a:	6566                	ld	a0,88(sp)
   11a6c:	4601                	li	a2,0
   11a6e:	86be                	mv	a3,a5
   11a70:	85ce                	mv	a1,s3
   11a72:	e09a                	sd	t1,64(sp)
   11a74:	f476                	sd	t4,40(sp)
   11a76:	e83e                	sd	a5,16(sp)
   11a78:	6ba090ef          	jal	ra,1b132 <__getf2>
   11a7c:	7ea2                	ld	t4,40(sp)
   11a7e:	6306                	ld	t1,64(sp)
   11a80:	24a04d63          	bgtz	a0,11cda <_vfprintf_r+0x19a8>
   11a84:	66c2                	ld	a3,16(sp)
   11a86:	6566                	ld	a0,88(sp)
   11a88:	4601                	li	a2,0
   11a8a:	85ce                	mv	a1,s3
   11a8c:	60c090ef          	jal	ra,1b098 <__eqtf2>
   11a90:	7ea2                	ld	t4,40(sp)
   11a92:	6306                	ld	t1,64(sp)
   11a94:	e501                	bnez	a0,11a9c <_vfprintf_r+0x176a>
   11a96:	8885                	andi	s1,s1,1
   11a98:	24049163          	bnez	s1,11cda <_vfprintf_r+0x19a8>
   11a9c:	001b871b          	addiw	a4,s7,1
   11aa0:	9766                	add	a4,a4,s9
   11aa2:	03000693          	li	a3,48
   11aa6:	260bca63          	bltz	s7,11d1a <_vfprintf_r+0x19e8>
   11aaa:	0c85                	addi	s9,s9,1
   11aac:	fedc8fa3          	sb	a3,-1(s9)
   11ab0:	ff971de3          	bne	a4,s9,11aaa <_vfprintf_r+0x1778>
   11ab4:	41b707bb          	subw	a5,a4,s11
   11ab8:	f43e                	sd	a5,40(sp)
   11aba:	fdfd7c93          	andi	s9,s10,-33
   11abe:	b205                	j	113de <_vfprintf_r+0x10ac>
   11ac0:	772e                	ld	a4,232(sp)
   11ac2:	47ee                	lw	a5,216(sp)
   11ac4:	41b7073b          	subw	a4,a4,s11
   11ac8:	f43a                	sd	a4,40(sp)
   11aca:	5775                	li	a4,-3
   11acc:	f0be                	sd	a5,96(sp)
   11ace:	00e7c463          	blt	a5,a4,11ad6 <_vfprintf_r+0x17a4>
   11ad2:	02fed263          	bge	t4,a5,11af6 <_vfprintf_r+0x17c4>
   11ad6:	fff78e9b          	addiw	t4,a5,-1
   11ada:	3d79                	addiw	s10,s10,-2
   11adc:	cdf6                	sw	t4,216(sp)
   11ade:	0ffd7713          	zext.b	a4,s10
   11ae2:	4681                	li	a3,0
   11ae4:	b22d                	j	1140e <_vfprintf_r+0x10dc>
   11ae6:	0cf14783          	lbu	a5,207(sp)
   11aea:	4e81                	li	t4,0
   11aec:	c399                	beqz	a5,11af2 <_vfprintf_r+0x17c0>
   11aee:	bc5fe06f          	j	106b2 <_vfprintf_r+0x380>
   11af2:	9edfe06f          	j	104de <_vfprintf_r+0x1ac>
   11af6:	7722                	ld	a4,40(sp)
   11af8:	10e7c363          	blt	a5,a4,11bfe <_vfprintf_r+0x18cc>
   11afc:	6746                	ld	a4,80(sp)
   11afe:	8bbe                	mv	s7,a5
   11b00:	8b05                	andi	a4,a4,1
   11b02:	c701                	beqz	a4,11b0a <_vfprintf_r+0x17d8>
   11b04:	7766                	ld	a4,120(sp)
   11b06:	00f70bbb          	addw	s7,a4,a5
   11b0a:	6746                	ld	a4,80(sp)
   11b0c:	40077713          	andi	a4,a4,1024
   11b10:	c319                	beqz	a4,11b16 <_vfprintf_r+0x17e4>
   11b12:	2af04e63          	bgtz	a5,11dce <_vfprintf_r+0x1a9c>
   11b16:	fffbc993          	not	s3,s7
   11b1a:	43f9d993          	srai	s3,s3,0x3f
   11b1e:	748a                	ld	s1,160(sp)
   11b20:	013bf9b3          	and	s3,s7,s3
   11b24:	2981                	sext.w	s3,s3
   11b26:	06700d13          	li	s10,103
   11b2a:	ec82                	sd	zero,88(sp)
   11b2c:	f482                	sd	zero,104(sp)
   11b2e:	ba49                	j	114c0 <_vfprintf_r+0x118e>
   11b30:	0210                	addi	a2,sp,256
   11b32:	85ca                	mv	a1,s2
   11b34:	8552                	mv	a0,s4
   11b36:	3e6060ef          	jal	ra,17f1c <__sprint_r>
   11b3a:	a2051863          	bnez	a0,10d6a <_vfprintf_r+0xa38>
   11b3e:	77c6                	ld	a5,112(sp)
   11b40:	6cd2                	ld	s9,272(sp)
   11b42:	835a                	mv	t1,s6
   11b44:	0007c603          	lbu	a2,0(a5)
   11b48:	4e1d                	li	t3,7
   11b4a:	9db2                	add	s11,s11,a2
   11b4c:	b185                	j	117ac <_vfprintf_r+0x147a>
   11b4e:	0210                	addi	a2,sp,256
   11b50:	85ca                	mv	a1,s2
   11b52:	8552                	mv	a0,s4
   11b54:	3c8060ef          	jal	ra,17f1c <__sprint_r>
   11b58:	a0051963          	bnez	a0,10d6a <_vfprintf_r+0xa38>
   11b5c:	47ee                	lw	a5,216(sp)
   11b5e:	6752                	ld	a4,272(sp)
   11b60:	835a                	mv	t1,s6
   11b62:	c0eff06f          	j	10f70 <_vfprintf_r+0xc3e>
   11b66:	02d00793          	li	a5,45
   11b6a:	0cf107a3          	sb	a5,207(sp)
   11b6e:	b4a5                	j	115d6 <_vfprintf_r+0x12a4>
   11b70:	00054683          	lbu	a3,0(a0)
   11b74:	03000793          	li	a5,48
   11b78:	00f68663          	beq	a3,a5,11b84 <_vfprintf_r+0x1852>
   11b7c:	476e                	lw	a4,216(sp)
   11b7e:	94ba                	add	s1,s1,a4
   11b80:	827ff06f          	j	113a6 <_vfprintf_r+0x1074>
   11b84:	4601                	li	a2,0
   11b86:	4681                	li	a3,0
   11b88:	854e                	mv	a0,s3
   11b8a:	85de                	mv	a1,s7
   11b8c:	f41a                	sd	t1,40(sp)
   11b8e:	e876                	sd	t4,16(sp)
   11b90:	e0ba                	sd	a4,64(sp)
   11b92:	506090ef          	jal	ra,1b098 <__eqtf2>
   11b96:	6ec2                	ld	t4,16(sp)
   11b98:	7322                	ld	t1,40(sp)
   11b9a:	d16d                	beqz	a0,11b7c <_vfprintf_r+0x184a>
   11b9c:	6706                	ld	a4,64(sp)
   11b9e:	4785                	li	a5,1
   11ba0:	40e7873b          	subw	a4,a5,a4
   11ba4:	cdba                	sw	a4,216(sp)
   11ba6:	94ba                	add	s1,s1,a4
   11ba8:	ffeff06f          	j	113a6 <_vfprintf_r+0x1074>
   11bac:	0cf14783          	lbu	a5,207(sp)
   11bb0:	ec66                	sd	s9,24(sp)
   11bb2:	ec82                	sd	zero,88(sp)
   11bb4:	f482                	sd	zero,104(sp)
   11bb6:	f082                	sd	zero,96(sp)
   11bb8:	89f6                	mv	s3,t4
   11bba:	8bf6                	mv	s7,t4
   11bbc:	4e81                	li	t4,0
   11bbe:	c399                	beqz	a5,11bc4 <_vfprintf_r+0x1892>
   11bc0:	af3fe06f          	j	106b2 <_vfprintf_r+0x380>
   11bc4:	91bfe06f          	j	104de <_vfprintf_r+0x1ac>
   11bc8:	66f5                	lui	a3,0x1d
   11bca:	90868693          	addi	a3,a3,-1784 # 1c908 <blanks.1>
   11bce:	a30ff06f          	j	10dfe <_vfprintf_r+0xacc>
   11bd2:	6871                	lui	a6,0x1c
   11bd4:	6a880d93          	addi	s11,a6,1704 # 1c6a8 <__clzdi2+0x78>
   11bd8:	b431                	j	115e4 <_vfprintf_r+0x12b2>
   11bda:	0210                	addi	a2,sp,256
   11bdc:	85ca                	mv	a1,s2
   11bde:	8552                	mv	a0,s4
   11be0:	33c060ef          	jal	ra,17f1c <__sprint_r>
   11be4:	98051363          	bnez	a0,10d6a <_vfprintf_r+0xa38>
   11be8:	47ee                	lw	a5,216(sp)
   11bea:	76a2                	ld	a3,40(sp)
   11bec:	6752                	ld	a4,272(sp)
   11bee:	835a                	mv	t1,s6
   11bf0:	40f687bb          	subw	a5,a3,a5
   11bf4:	bbaff06f          	j	10fae <_vfprintf_r+0xc7c>
   11bf8:	8ca6                	mv	s9,s1
   11bfa:	98eff06f          	j	10d88 <_vfprintf_r+0xa56>
   11bfe:	7722                	ld	a4,40(sp)
   11c00:	77e6                	ld	a5,120(sp)
   11c02:	06700d13          	li	s10,103
   11c06:	00e78bbb          	addw	s7,a5,a4
   11c0a:	7706                	ld	a4,96(sp)
   11c0c:	22e05c63          	blez	a4,11e44 <_vfprintf_r+0x1b12>
   11c10:	67c6                	ld	a5,80(sp)
   11c12:	4007f793          	andi	a5,a5,1024
   11c16:	1a079e63          	bnez	a5,11dd2 <_vfprintf_r+0x1aa0>
   11c1a:	fffbc993          	not	s3,s7
   11c1e:	43f9d993          	srai	s3,s3,0x3f
   11c22:	013bf9b3          	and	s3,s7,s3
   11c26:	748a                	ld	s1,160(sp)
   11c28:	2981                	sext.w	s3,s3
   11c2a:	b701                	j	11b2a <_vfprintf_r+0x17f8>
   11c2c:	67c6                	ld	a5,80(sp)
   11c2e:	7706                	ld	a4,96(sp)
   11c30:	8b85                	andi	a5,a5,1
   11c32:	00fee7b3          	or	a5,t4,a5
   11c36:	24e05063          	blez	a4,11e76 <_vfprintf_r+0x1b44>
   11c3a:	22079263          	bnez	a5,11e5e <_vfprintf_r+0x1b2c>
   11c3e:	7b86                	ld	s7,96(sp)
   11c40:	06600d13          	li	s10,102
   11c44:	b7f1                	j	11c10 <_vfprintf_r+0x18de>
   11c46:	66f5                	lui	a3,0x1d
   11c48:	90868693          	addi	a3,a3,-1784 # 1c908 <blanks.1>
   11c4c:	a5eff06f          	j	10eaa <_vfprintf_r+0xb78>
   11c50:	6cf5                	lui	s9,0x1d
   11c52:	57c1                	li	a5,-16
   11c54:	40c00bbb          	negw	s7,a2
   11c58:	8f8c8c93          	addi	s9,s9,-1800 # 1c8f8 <zeroes.0>
   11c5c:	46c1                	li	a3,16
   11c5e:	4d1d                	li	s10,7
   11c60:	00f64663          	blt	a2,a5,11c6c <_vfprintf_r+0x193a>
   11c64:	a091                	j	11ca8 <_vfprintf_r+0x1976>
   11c66:	3bc1                	addiw	s7,s7,-16
   11c68:	0576d063          	bge	a3,s7,11ca8 <_vfprintf_r+0x1976>
   11c6c:	2585                	addiw	a1,a1,1
   11c6e:	0741                	addi	a4,a4,16
   11c70:	01933023          	sd	s9,0(t1)
   11c74:	00d33423          	sd	a3,8(t1)
   11c78:	ea3a                	sd	a4,272(sp)
   11c7a:	10b12423          	sw	a1,264(sp)
   11c7e:	0341                	addi	t1,t1,16
   11c80:	febd53e3          	bge	s10,a1,11c66 <_vfprintf_r+0x1934>
   11c84:	0210                	addi	a2,sp,256
   11c86:	85ca                	mv	a1,s2
   11c88:	8552                	mv	a0,s4
   11c8a:	292060ef          	jal	ra,17f1c <__sprint_r>
   11c8e:	c119                	beqz	a0,11c94 <_vfprintf_r+0x1962>
   11c90:	8daff06f          	j	10d6a <_vfprintf_r+0xa38>
   11c94:	6752                	ld	a4,272(sp)
   11c96:	10812583          	lw	a1,264(sp)
   11c9a:	835a                	mv	t1,s6
   11c9c:	46c1                	li	a3,16
   11c9e:	b7e1                	j	11c66 <_vfprintf_r+0x1934>
   11ca0:	57fd                	li	a5,-1
   11ca2:	e43e                	sd	a5,8(sp)
   11ca4:	93bfe06f          	j	105de <_vfprintf_r+0x2ac>
   11ca8:	2585                	addiw	a1,a1,1
   11caa:	975e                	add	a4,a4,s7
   11cac:	01933023          	sd	s9,0(t1)
   11cb0:	01733423          	sd	s7,8(t1)
   11cb4:	ea3a                	sd	a4,272(sp)
   11cb6:	10b12423          	sw	a1,264(sp)
   11cba:	479d                	li	a5,7
   11cbc:	8ab7dee3          	bge	a5,a1,11578 <_vfprintf_r+0x1246>
   11cc0:	0210                	addi	a2,sp,256
   11cc2:	85ca                	mv	a1,s2
   11cc4:	8552                	mv	a0,s4
   11cc6:	256060ef          	jal	ra,17f1c <__sprint_r>
   11cca:	c119                	beqz	a0,11cd0 <_vfprintf_r+0x199e>
   11ccc:	89eff06f          	j	10d6a <_vfprintf_r+0xa38>
   11cd0:	6752                	ld	a4,272(sp)
   11cd2:	10812583          	lw	a1,264(sp)
   11cd6:	835a                	mv	t1,s6
   11cd8:	ba49                	j	1166a <_vfprintf_r+0x1338>
   11cda:	77a6                	ld	a5,104(sp)
   11cdc:	8766                	mv	a4,s9
   11cde:	f5be                	sd	a5,232(sp)
   11ce0:	67a6                	ld	a5,72(sp)
   11ce2:	fffcc683          	lbu	a3,-1(s9)
   11ce6:	00f7c603          	lbu	a2,15(a5)
   11cea:	00d61e63          	bne	a2,a3,11d06 <_vfprintf_r+0x19d4>
   11cee:	03000593          	li	a1,48
   11cf2:	feb70fa3          	sb	a1,-1(a4)
   11cf6:	772e                	ld	a4,232(sp)
   11cf8:	fff70693          	addi	a3,a4,-1
   11cfc:	f5b6                	sd	a3,232(sp)
   11cfe:	fff74683          	lbu	a3,-1(a4)
   11d02:	fed608e3          	beq	a2,a3,11cf2 <_vfprintf_r+0x19c0>
   11d06:	0016861b          	addiw	a2,a3,1
   11d0a:	03900593          	li	a1,57
   11d0e:	0ff67613          	zext.b	a2,a2
   11d12:	00b68663          	beq	a3,a1,11d1e <_vfprintf_r+0x19ec>
   11d16:	fec70fa3          	sb	a2,-1(a4)
   11d1a:	8766                	mv	a4,s9
   11d1c:	bb61                	j	11ab4 <_vfprintf_r+0x1782>
   11d1e:	67a6                	ld	a5,72(sp)
   11d20:	00a7c603          	lbu	a2,10(a5)
   11d24:	fec70fa3          	sb	a2,-1(a4)
   11d28:	bfcd                	j	11d1a <_vfprintf_r+0x19e8>
   11d2a:	0e210793          	addi	a5,sp,226
   11d2e:	e699                	bnez	a3,11d3c <_vfprintf_r+0x1a0a>
   11d30:	03000793          	li	a5,48
   11d34:	0ef10123          	sb	a5,226(sp)
   11d38:	0e310793          	addi	a5,sp,227
   11d3c:	0418                	addi	a4,sp,512
   11d3e:	030e8e9b          	addiw	t4,t4,48
   11d42:	40e78733          	sub	a4,a5,a4
   11d46:	01d78023          	sb	t4,0(a5)
   11d4a:	1217079b          	addiw	a5,a4,289
   11d4e:	e93e                	sd	a5,144(sp)
   11d50:	f3aff06f          	j	1148a <_vfprintf_r+0x1158>
   11d54:	c31c                	sw	a5,0(a4)
   11d56:	dc3fe06f          	j	10b18 <_vfprintf_r+0x7e6>
   11d5a:	77ea                	ld	a5,184(sp)
   11d5c:	00fd8bbb          	addw	s7,s11,a5
   11d60:	419b8bbb          	subw	s7,s7,s9
   11d64:	b301                	j	11a64 <_vfprintf_r+0x1732>
   11d66:	000e8463          	beqz	t4,11d6e <_vfprintf_r+0x1a3c>
   11d6a:	a31fe06f          	j	1079a <_vfprintf_r+0x468>
   11d6e:	4e85                	li	t4,1
   11d70:	a2bfe06f          	j	1079a <_vfprintf_r+0x468>
   11d74:	4e99                	li	t4,6
   11d76:	a25fe06f          	j	1079a <_vfprintf_r+0x468>
   11d7a:	ec3a                	sd	a4,24(sp)
   11d7c:	80cff06f          	j	10d88 <_vfprintf_r+0xa56>
   11d80:	6746                	ld	a4,80(sp)
   11d82:	8b05                	andi	a4,a4,1
   11d84:	f0070e63          	beqz	a4,114a0 <_vfprintf_r+0x116e>
   11d88:	f12ff06f          	j	1149a <_vfprintf_r+0x1168>
   11d8c:	85de                	mv	a1,s7
   11d8e:	854e                	mv	a0,s3
   11d90:	e09a                	sd	t1,64(sp)
   11d92:	f476                	sd	t4,40(sp)
   11d94:	6220a0ef          	jal	ra,1c3b6 <__trunctfdf2>
   11d98:	09a8                	addi	a0,sp,216
   11d9a:	242040ef          	jal	ra,15fdc <frexp>
   11d9e:	5540a0ef          	jal	ra,1c2f2 <__extenddftf2>
   11da2:	67f5                	lui	a5,0x1d
   11da4:	9287b683          	ld	a3,-1752(a5) # 1c928 <blanks.1+0x20>
   11da8:	4601                	li	a2,0
   11daa:	508090ef          	jal	ra,1b2b2 <__multf3>
   11dae:	4601                	li	a2,0
   11db0:	4681                	li	a3,0
   11db2:	8baa                	mv	s7,a0
   11db4:	e82e                	sd	a1,16(sp)
   11db6:	2e2090ef          	jal	ra,1b098 <__eqtf2>
   11dba:	7ea2                	ld	t4,40(sp)
   11dbc:	6306                	ld	t1,64(sp)
   11dbe:	e119                	bnez	a0,11dc4 <_vfprintf_r+0x1a92>
   11dc0:	4785                	li	a5,1
   11dc2:	cdbe                	sw	a5,216(sp)
   11dc4:	67f1                	lui	a5,0x1c
   11dc6:	6d078793          	addi	a5,a5,1744 # 1c6d0 <__clzdi2+0xa0>
   11dca:	e4be                	sd	a5,72(sp)
   11dcc:	b919                	j	119e2 <_vfprintf_r+0x16b0>
   11dce:	06700d13          	li	s10,103
   11dd2:	77c6                	ld	a5,112(sp)
   11dd4:	0ff00713          	li	a4,255
   11dd8:	ec82                	sd	zero,88(sp)
   11dda:	0007c783          	lbu	a5,0(a5)
   11dde:	f482                	sd	zero,104(sp)
   11de0:	02e78863          	beq	a5,a4,11e10 <_vfprintf_r+0x1ade>
   11de4:	0ff00693          	li	a3,255
   11de8:	7606                	ld	a2,96(sp)
   11dea:	0007871b          	sext.w	a4,a5
   11dee:	02c7d163          	bge	a5,a2,11e10 <_vfprintf_r+0x1ade>
   11df2:	75c6                	ld	a1,112(sp)
   11df4:	40e6073b          	subw	a4,a2,a4
   11df8:	f0ba                	sd	a4,96(sp)
   11dfa:	0015c783          	lbu	a5,1(a1)
   11dfe:	cf85                	beqz	a5,11e36 <_vfprintf_r+0x1b04>
   11e00:	7726                	ld	a4,104(sp)
   11e02:	2705                	addiw	a4,a4,1
   11e04:	f4ba                	sd	a4,104(sp)
   11e06:	00158713          	addi	a4,a1,1
   11e0a:	f8ba                	sd	a4,112(sp)
   11e0c:	fcd79ee3          	bne	a5,a3,11de8 <_vfprintf_r+0x1ab6>
   11e10:	7726                	ld	a4,104(sp)
   11e12:	67e6                	ld	a5,88(sp)
   11e14:	748a                	ld	s1,160(sp)
   11e16:	9fb9                	addw	a5,a5,a4
   11e18:	672a                	ld	a4,136(sp)
   11e1a:	02e787bb          	mulw	a5,a5,a4
   11e1e:	017787bb          	addw	a5,a5,s7
   11e22:	00078b9b          	sext.w	s7,a5
   11e26:	fffbc713          	not	a4,s7
   11e2a:	977d                	srai	a4,a4,0x3f
   11e2c:	8ff9                	and	a5,a5,a4
   11e2e:	0007899b          	sext.w	s3,a5
   11e32:	e8eff06f          	j	114c0 <_vfprintf_r+0x118e>
   11e36:	6766                	ld	a4,88(sp)
   11e38:	77c6                	ld	a5,112(sp)
   11e3a:	2705                	addiw	a4,a4,1
   11e3c:	0007c783          	lbu	a5,0(a5)
   11e40:	ecba                	sd	a4,88(sp)
   11e42:	b7e9                	j	11e0c <_vfprintf_r+0x1ada>
   11e44:	40eb87bb          	subw	a5,s7,a4
   11e48:	2785                	addiw	a5,a5,1
   11e4a:	00078b9b          	sext.w	s7,a5
   11e4e:	fffbc713          	not	a4,s7
   11e52:	977d                	srai	a4,a4,0x3f
   11e54:	8ff9                	and	a5,a5,a4
   11e56:	748a                	ld	s1,160(sp)
   11e58:	0007899b          	sext.w	s3,a5
   11e5c:	b1f9                	j	11b2a <_vfprintf_r+0x17f8>
   11e5e:	77e6                	ld	a5,120(sp)
   11e60:	06600d13          	li	s10,102
   11e64:	00e78bbb          	addw	s7,a5,a4
   11e68:	01db8bbb          	addw	s7,s7,t4
   11e6c:	b355                	j	11c10 <_vfprintf_r+0x18de>
   11e6e:	07000713          	li	a4,112
   11e72:	d9aff06f          	j	1140c <_vfprintf_r+0x10da>
   11e76:	e799                	bnez	a5,11e84 <_vfprintf_r+0x1b52>
   11e78:	748a                	ld	s1,160(sp)
   11e7a:	4985                	li	s3,1
   11e7c:	06600d13          	li	s10,102
   11e80:	4b85                	li	s7,1
   11e82:	b165                	j	11b2a <_vfprintf_r+0x17f8>
   11e84:	77e6                	ld	a5,120(sp)
   11e86:	748a                	ld	s1,160(sp)
   11e88:	06600d13          	li	s10,102
   11e8c:	2785                	addiw	a5,a5,1
   11e8e:	01d787bb          	addw	a5,a5,t4
   11e92:	00078b9b          	sext.w	s7,a5
   11e96:	fffbc713          	not	a4,s7
   11e9a:	977d                	srai	a4,a4,0x3f
   11e9c:	8ff9                	and	a5,a5,a4
   11e9e:	0007899b          	sext.w	s3,a5
   11ea2:	b161                	j	11b2a <_vfprintf_r+0x17f8>
   11ea4:	4789                	li	a5,2
   11ea6:	e93e                	sd	a5,144(sp)
   11ea8:	de2ff06f          	j	1148a <_vfprintf_r+0x1158>
   11eac:	66e2                	ld	a3,24(sp)
   11eae:	4298                	lw	a4,0(a3)
   11eb0:	00868d13          	addi	s10,a3,8
   11eb4:	86ba                	mv	a3,a4
   11eb6:	00075363          	bgez	a4,11ebc <_vfprintf_r+0x1b8a>
   11eba:	56fd                	li	a3,-1
   11ebc:	00144e03          	lbu	t3,1(s0)
   11ec0:	00068e9b          	sext.w	t4,a3
   11ec4:	ec6a                	sd	s10,24(sp)
   11ec6:	843e                	mv	s0,a5
   11ec8:	da0fe06f          	j	10468 <_vfprintf_r+0x136>
   11ecc:	01095783          	lhu	a5,16(s2)
   11ed0:	0407e793          	ori	a5,a5,64
   11ed4:	00f91823          	sh	a5,16(s2)
   11ed8:	ef8fe06f          	j	105d0 <_vfprintf_r+0x29e>

0000000000011edc <vfprintf>:
   11edc:	87aa                	mv	a5,a0
   11ede:	7581b503          	ld	a0,1880(gp) # 1f6c8 <_impure_ptr>
   11ee2:	86b2                	mv	a3,a2
   11ee4:	862e                	mv	a2,a1
   11ee6:	85be                	mv	a1,a5
   11ee8:	c4afe06f          	j	10332 <_vfprintf_r>

0000000000011eec <__sbprintf>:
   11eec:	01059783          	lh	a5,16(a1)
   11ef0:	0125d703          	lhu	a4,18(a1)
   11ef4:	0ac5a303          	lw	t1,172(a1)
   11ef8:	9bf5                	andi	a5,a5,-3
   11efa:	0107979b          	slliw	a5,a5,0x10
   11efe:	0305b883          	ld	a7,48(a1)
   11f02:	0405b803          	ld	a6,64(a1)
   11f06:	0107171b          	slliw	a4,a4,0x10
   11f0a:	0107d79b          	srliw	a5,a5,0x10
   11f0e:	b3010113          	addi	sp,sp,-1232
   11f12:	8fd9                	or	a5,a5,a4
   11f14:	4c813023          	sd	s0,1216(sp)
   11f18:	40000713          	li	a4,1024
   11f1c:	c83e                	sw	a5,16(sp)
   11f1e:	842e                	mv	s0,a1
   11f20:	191c                	addi	a5,sp,176
   11f22:	858a                	mv	a1,sp
   11f24:	4a913c23          	sd	s1,1208(sp)
   11f28:	4b213823          	sd	s2,1200(sp)
   11f2c:	4c113423          	sd	ra,1224(sp)
   11f30:	892a                	mv	s2,a0
   11f32:	d71a                	sw	t1,172(sp)
   11f34:	f846                	sd	a7,48(sp)
   11f36:	e0c2                	sd	a6,64(sp)
   11f38:	e03e                	sd	a5,0(sp)
   11f3a:	ec3e                	sd	a5,24(sp)
   11f3c:	c63a                	sw	a4,12(sp)
   11f3e:	d03a                	sw	a4,32(sp)
   11f40:	d402                	sw	zero,40(sp)
   11f42:	bf0fe0ef          	jal	ra,10332 <_vfprintf_r>
   11f46:	84aa                	mv	s1,a0
   11f48:	02055963          	bgez	a0,11f7a <__sbprintf+0x8e>
   11f4c:	01015783          	lhu	a5,16(sp)
   11f50:	0407f793          	andi	a5,a5,64
   11f54:	c799                	beqz	a5,11f62 <__sbprintf+0x76>
   11f56:	01045783          	lhu	a5,16(s0)
   11f5a:	0407e793          	ori	a5,a5,64
   11f5e:	00f41823          	sh	a5,16(s0)
   11f62:	4c813083          	ld	ra,1224(sp)
   11f66:	4c013403          	ld	s0,1216(sp)
   11f6a:	4b013903          	ld	s2,1200(sp)
   11f6e:	8526                	mv	a0,s1
   11f70:	4b813483          	ld	s1,1208(sp)
   11f74:	4d010113          	addi	sp,sp,1232
   11f78:	8082                	ret
   11f7a:	858a                	mv	a1,sp
   11f7c:	854a                	mv	a0,s2
   11f7e:	336000ef          	jal	ra,122b4 <_fflush_r>
   11f82:	d569                	beqz	a0,11f4c <__sbprintf+0x60>
   11f84:	54fd                	li	s1,-1
   11f86:	b7d9                	j	11f4c <__sbprintf+0x60>

0000000000011f88 <__swsetup_r>:
   11f88:	7581b783          	ld	a5,1880(gp) # 1f6c8 <_impure_ptr>
   11f8c:	1101                	addi	sp,sp,-32
   11f8e:	e822                	sd	s0,16(sp)
   11f90:	e426                	sd	s1,8(sp)
   11f92:	ec06                	sd	ra,24(sp)
   11f94:	84aa                	mv	s1,a0
   11f96:	842e                	mv	s0,a1
   11f98:	c399                	beqz	a5,11f9e <__swsetup_r+0x16>
   11f9a:	4bb8                	lw	a4,80(a5)
   11f9c:	cb29                	beqz	a4,11fee <__swsetup_r+0x66>
   11f9e:	01041783          	lh	a5,16(s0)
   11fa2:	0087f713          	andi	a4,a5,8
   11fa6:	cf21                	beqz	a4,11ffe <__swsetup_r+0x76>
   11fa8:	6c18                	ld	a4,24(s0)
   11faa:	c735                	beqz	a4,12016 <__swsetup_r+0x8e>
   11fac:	0017f693          	andi	a3,a5,1
   11fb0:	ce91                	beqz	a3,11fcc <__swsetup_r+0x44>
   11fb2:	5014                	lw	a3,32(s0)
   11fb4:	00042623          	sw	zero,12(s0)
   11fb8:	4501                	li	a0,0
   11fba:	40d006bb          	negw	a3,a3
   11fbe:	d414                	sw	a3,40(s0)
   11fc0:	cf11                	beqz	a4,11fdc <__swsetup_r+0x54>
   11fc2:	60e2                	ld	ra,24(sp)
   11fc4:	6442                	ld	s0,16(sp)
   11fc6:	64a2                	ld	s1,8(sp)
   11fc8:	6105                	addi	sp,sp,32
   11fca:	8082                	ret
   11fcc:	0027f693          	andi	a3,a5,2
   11fd0:	4601                	li	a2,0
   11fd2:	e291                	bnez	a3,11fd6 <__swsetup_r+0x4e>
   11fd4:	5010                	lw	a2,32(s0)
   11fd6:	c450                	sw	a2,12(s0)
   11fd8:	4501                	li	a0,0
   11fda:	f765                	bnez	a4,11fc2 <__swsetup_r+0x3a>
   11fdc:	0807f713          	andi	a4,a5,128
   11fe0:	d36d                	beqz	a4,11fc2 <__swsetup_r+0x3a>
   11fe2:	0407e793          	ori	a5,a5,64
   11fe6:	00f41823          	sh	a5,16(s0)
   11fea:	557d                	li	a0,-1
   11fec:	bfd9                	j	11fc2 <__swsetup_r+0x3a>
   11fee:	853e                	mv	a0,a5
   11ff0:	596000ef          	jal	ra,12586 <__sinit>
   11ff4:	01041783          	lh	a5,16(s0)
   11ff8:	0087f713          	andi	a4,a5,8
   11ffc:	f755                	bnez	a4,11fa8 <__swsetup_r+0x20>
   11ffe:	0107f713          	andi	a4,a5,16
   12002:	cf21                	beqz	a4,1205a <__swsetup_r+0xd2>
   12004:	0047f713          	andi	a4,a5,4
   12008:	e70d                	bnez	a4,12032 <__swsetup_r+0xaa>
   1200a:	6c18                	ld	a4,24(s0)
   1200c:	0087e793          	ori	a5,a5,8
   12010:	00f41823          	sh	a5,16(s0)
   12014:	ff41                	bnez	a4,11fac <__swsetup_r+0x24>
   12016:	2807f693          	andi	a3,a5,640
   1201a:	20000613          	li	a2,512
   1201e:	f8c687e3          	beq	a3,a2,11fac <__swsetup_r+0x24>
   12022:	85a2                	mv	a1,s0
   12024:	8526                	mv	a0,s1
   12026:	2f7020ef          	jal	ra,14b1c <__smakebuf_r>
   1202a:	01041783          	lh	a5,16(s0)
   1202e:	6c18                	ld	a4,24(s0)
   12030:	bfb5                	j	11fac <__swsetup_r+0x24>
   12032:	6c2c                	ld	a1,88(s0)
   12034:	cd81                	beqz	a1,1204c <__swsetup_r+0xc4>
   12036:	07440713          	addi	a4,s0,116
   1203a:	00e58763          	beq	a1,a4,12048 <__swsetup_r+0xc0>
   1203e:	8526                	mv	a0,s1
   12040:	674000ef          	jal	ra,126b4 <_free_r>
   12044:	01041783          	lh	a5,16(s0)
   12048:	04043c23          	sd	zero,88(s0)
   1204c:	6c18                	ld	a4,24(s0)
   1204e:	fdb7f793          	andi	a5,a5,-37
   12052:	00042423          	sw	zero,8(s0)
   12056:	e018                	sd	a4,0(s0)
   12058:	bf55                	j	1200c <__swsetup_r+0x84>
   1205a:	4725                	li	a4,9
   1205c:	c098                	sw	a4,0(s1)
   1205e:	0407e793          	ori	a5,a5,64
   12062:	b751                	j	11fe6 <__swsetup_r+0x5e>

0000000000012064 <__call_exitprocs>:
   12064:	715d                	addi	sp,sp,-80
   12066:	f052                	sd	s4,32(sp)
   12068:	7481ba03          	ld	s4,1864(gp) # 1f6b8 <_global_impure_ptr>
   1206c:	f84a                	sd	s2,48(sp)
   1206e:	e486                	sd	ra,72(sp)
   12070:	1f8a3903          	ld	s2,504(s4)
   12074:	e0a2                	sd	s0,64(sp)
   12076:	fc26                	sd	s1,56(sp)
   12078:	f44e                	sd	s3,40(sp)
   1207a:	ec56                	sd	s5,24(sp)
   1207c:	e85a                	sd	s6,16(sp)
   1207e:	e45e                	sd	s7,8(sp)
   12080:	e062                	sd	s8,0(sp)
   12082:	02090863          	beqz	s2,120b2 <__call_exitprocs+0x4e>
   12086:	8b2a                	mv	s6,a0
   12088:	8bae                	mv	s7,a1
   1208a:	4a85                	li	s5,1
   1208c:	59fd                	li	s3,-1
   1208e:	00892483          	lw	s1,8(s2)
   12092:	fff4841b          	addiw	s0,s1,-1
   12096:	00044e63          	bltz	s0,120b2 <__call_exitprocs+0x4e>
   1209a:	048e                	slli	s1,s1,0x3
   1209c:	94ca                	add	s1,s1,s2
   1209e:	020b8663          	beqz	s7,120ca <__call_exitprocs+0x66>
   120a2:	2084b783          	ld	a5,520(s1)
   120a6:	03778263          	beq	a5,s7,120ca <__call_exitprocs+0x66>
   120aa:	347d                	addiw	s0,s0,-1
   120ac:	14e1                	addi	s1,s1,-8
   120ae:	ff3418e3          	bne	s0,s3,1209e <__call_exitprocs+0x3a>
   120b2:	60a6                	ld	ra,72(sp)
   120b4:	6406                	ld	s0,64(sp)
   120b6:	74e2                	ld	s1,56(sp)
   120b8:	7942                	ld	s2,48(sp)
   120ba:	79a2                	ld	s3,40(sp)
   120bc:	7a02                	ld	s4,32(sp)
   120be:	6ae2                	ld	s5,24(sp)
   120c0:	6b42                	ld	s6,16(sp)
   120c2:	6ba2                	ld	s7,8(sp)
   120c4:	6c02                	ld	s8,0(sp)
   120c6:	6161                	addi	sp,sp,80
   120c8:	8082                	ret
   120ca:	00892783          	lw	a5,8(s2)
   120ce:	6498                	ld	a4,8(s1)
   120d0:	37fd                	addiw	a5,a5,-1
   120d2:	04878463          	beq	a5,s0,1211a <__call_exitprocs+0xb6>
   120d6:	0004b423          	sd	zero,8(s1)
   120da:	db61                	beqz	a4,120aa <__call_exitprocs+0x46>
   120dc:	31092783          	lw	a5,784(s2)
   120e0:	008a96bb          	sllw	a3,s5,s0
   120e4:	00892c03          	lw	s8,8(s2)
   120e8:	8ff5                	and	a5,a5,a3
   120ea:	2781                	sext.w	a5,a5
   120ec:	ef89                	bnez	a5,12106 <__call_exitprocs+0xa2>
   120ee:	9702                	jalr	a4
   120f0:	00892703          	lw	a4,8(s2)
   120f4:	1f8a3783          	ld	a5,504(s4)
   120f8:	01871463          	bne	a4,s8,12100 <__call_exitprocs+0x9c>
   120fc:	fb2787e3          	beq	a5,s2,120aa <__call_exitprocs+0x46>
   12100:	dbcd                	beqz	a5,120b2 <__call_exitprocs+0x4e>
   12102:	893e                	mv	s2,a5
   12104:	b769                	j	1208e <__call_exitprocs+0x2a>
   12106:	31492783          	lw	a5,788(s2)
   1210a:	1084b583          	ld	a1,264(s1)
   1210e:	8ff5                	and	a5,a5,a3
   12110:	2781                	sext.w	a5,a5
   12112:	e799                	bnez	a5,12120 <__call_exitprocs+0xbc>
   12114:	855a                	mv	a0,s6
   12116:	9702                	jalr	a4
   12118:	bfe1                	j	120f0 <__call_exitprocs+0x8c>
   1211a:	00892423          	sw	s0,8(s2)
   1211e:	bf75                	j	120da <__call_exitprocs+0x76>
   12120:	852e                	mv	a0,a1
   12122:	9702                	jalr	a4
   12124:	b7f1                	j	120f0 <__call_exitprocs+0x8c>

0000000000012126 <atexit>:
   12126:	85aa                	mv	a1,a0
   12128:	4681                	li	a3,0
   1212a:	4601                	li	a2,0
   1212c:	4501                	li	a0,0
   1212e:	3570606f          	j	18c84 <__register_exitproc>

0000000000012132 <__sflush_r>:
   12132:	01059783          	lh	a5,16(a1)
   12136:	7179                	addi	sp,sp,-48
   12138:	f022                	sd	s0,32(sp)
   1213a:	e44e                	sd	s3,8(sp)
   1213c:	f406                	sd	ra,40(sp)
   1213e:	ec26                	sd	s1,24(sp)
   12140:	e84a                	sd	s2,16(sp)
   12142:	0087f713          	andi	a4,a5,8
   12146:	842e                	mv	s0,a1
   12148:	89aa                	mv	s3,a0
   1214a:	e369                	bnez	a4,1220c <__sflush_r+0xda>
   1214c:	6705                	lui	a4,0x1
   1214e:	80070713          	addi	a4,a4,-2048 # 800 <exit-0xf8e8>
   12152:	4594                	lw	a3,8(a1)
   12154:	8f5d                	or	a4,a4,a5
   12156:	00e59823          	sh	a4,16(a1)
   1215a:	10d05463          	blez	a3,12262 <__sflush_r+0x130>
   1215e:	04843803          	ld	a6,72(s0)
   12162:	08080d63          	beqz	a6,121fc <__sflush_r+0xca>
   12166:	83b1                	srli	a5,a5,0xc
   12168:	0009a483          	lw	s1,0(s3)
   1216c:	8b85                	andi	a5,a5,1
   1216e:	0009a023          	sw	zero,0(s3)
   12172:	780c                	ld	a1,48(s0)
   12174:	efe5                	bnez	a5,1226c <__sflush_r+0x13a>
   12176:	4601                	li	a2,0
   12178:	4685                	li	a3,1
   1217a:	854e                	mv	a0,s3
   1217c:	9802                	jalr	a6
   1217e:	57fd                	li	a5,-1
   12180:	862a                	mv	a2,a0
   12182:	10f50863          	beq	a0,a5,12292 <__sflush_r+0x160>
   12186:	01041703          	lh	a4,16(s0)
   1218a:	04843803          	ld	a6,72(s0)
   1218e:	780c                	ld	a1,48(s0)
   12190:	8b11                	andi	a4,a4,4
   12192:	c719                	beqz	a4,121a0 <__sflush_r+0x6e>
   12194:	4418                	lw	a4,8(s0)
   12196:	6c3c                	ld	a5,88(s0)
   12198:	8e19                	sub	a2,a2,a4
   1219a:	c399                	beqz	a5,121a0 <__sflush_r+0x6e>
   1219c:	583c                	lw	a5,112(s0)
   1219e:	8e1d                	sub	a2,a2,a5
   121a0:	4681                	li	a3,0
   121a2:	854e                	mv	a0,s3
   121a4:	9802                	jalr	a6
   121a6:	57fd                	li	a5,-1
   121a8:	0cf51463          	bne	a0,a5,12270 <__sflush_r+0x13e>
   121ac:	0009a683          	lw	a3,0(s3)
   121b0:	47f5                	li	a5,29
   121b2:	08d7ea63          	bltu	a5,a3,12246 <__sflush_r+0x114>
   121b6:	dfc00737          	lui	a4,0xdfc00
   121ba:	1779                	addi	a4,a4,-2 # ffffffffdfbffffe <__BSS_END__+0xffffffffdfbe088e>
   121bc:	40d75733          	sra	a4,a4,a3
   121c0:	8b05                	andi	a4,a4,1
   121c2:	01041783          	lh	a5,16(s0)
   121c6:	e351                	bnez	a4,1224a <__sflush_r+0x118>
   121c8:	6c10                	ld	a2,24(s0)
   121ca:	777d                	lui	a4,0xfffff
   121cc:	7ff70713          	addi	a4,a4,2047 # fffffffffffff7ff <__BSS_END__+0xfffffffffffe008f>
   121d0:	8f7d                	and	a4,a4,a5
   121d2:	83b1                	srli	a5,a5,0xc
   121d4:	00e41823          	sh	a4,16(s0)
   121d8:	00042423          	sw	zero,8(s0)
   121dc:	e010                	sd	a2,0(s0)
   121de:	8b85                	andi	a5,a5,1
   121e0:	e7f9                	bnez	a5,122ae <__sflush_r+0x17c>
   121e2:	6c2c                	ld	a1,88(s0)
   121e4:	0099a023          	sw	s1,0(s3)
   121e8:	c991                	beqz	a1,121fc <__sflush_r+0xca>
   121ea:	07440793          	addi	a5,s0,116
   121ee:	00f58563          	beq	a1,a5,121f8 <__sflush_r+0xc6>
   121f2:	854e                	mv	a0,s3
   121f4:	4c0000ef          	jal	ra,126b4 <_free_r>
   121f8:	04043c23          	sd	zero,88(s0)
   121fc:	4501                	li	a0,0
   121fe:	70a2                	ld	ra,40(sp)
   12200:	7402                	ld	s0,32(sp)
   12202:	64e2                	ld	s1,24(sp)
   12204:	6942                	ld	s2,16(sp)
   12206:	69a2                	ld	s3,8(sp)
   12208:	6145                	addi	sp,sp,48
   1220a:	8082                	ret
   1220c:	0185b903          	ld	s2,24(a1)
   12210:	fe0906e3          	beqz	s2,121fc <__sflush_r+0xca>
   12214:	6184                	ld	s1,0(a1)
   12216:	8b8d                	andi	a5,a5,3
   12218:	0125b023          	sd	s2,0(a1)
   1221c:	412484bb          	subw	s1,s1,s2
   12220:	4701                	li	a4,0
   12222:	e391                	bnez	a5,12226 <__sflush_r+0xf4>
   12224:	5198                	lw	a4,32(a1)
   12226:	c458                	sw	a4,12(s0)
   12228:	00904663          	bgtz	s1,12234 <__sflush_r+0x102>
   1222c:	bfc1                	j	121fc <__sflush_r+0xca>
   1222e:	992a                	add	s2,s2,a0
   12230:	fc9056e3          	blez	s1,121fc <__sflush_r+0xca>
   12234:	603c                	ld	a5,64(s0)
   12236:	780c                	ld	a1,48(s0)
   12238:	86a6                	mv	a3,s1
   1223a:	864a                	mv	a2,s2
   1223c:	854e                	mv	a0,s3
   1223e:	9782                	jalr	a5
   12240:	9c89                	subw	s1,s1,a0
   12242:	fea046e3          	bgtz	a0,1222e <__sflush_r+0xfc>
   12246:	01041783          	lh	a5,16(s0)
   1224a:	0407e793          	ori	a5,a5,64
   1224e:	70a2                	ld	ra,40(sp)
   12250:	00f41823          	sh	a5,16(s0)
   12254:	7402                	ld	s0,32(sp)
   12256:	64e2                	ld	s1,24(sp)
   12258:	6942                	ld	s2,16(sp)
   1225a:	69a2                	ld	s3,8(sp)
   1225c:	557d                	li	a0,-1
   1225e:	6145                	addi	sp,sp,48
   12260:	8082                	ret
   12262:	59b4                	lw	a3,112(a1)
   12264:	eed04de3          	bgtz	a3,1215e <__sflush_r+0x2c>
   12268:	4501                	li	a0,0
   1226a:	bf51                	j	121fe <__sflush_r+0xcc>
   1226c:	6850                	ld	a2,144(s0)
   1226e:	b70d                	j	12190 <__sflush_r+0x5e>
   12270:	01041783          	lh	a5,16(s0)
   12274:	6c14                	ld	a3,24(s0)
   12276:	777d                	lui	a4,0xfffff
   12278:	7ff70713          	addi	a4,a4,2047 # fffffffffffff7ff <__BSS_END__+0xfffffffffffe008f>
   1227c:	8f7d                	and	a4,a4,a5
   1227e:	83b1                	srli	a5,a5,0xc
   12280:	00e41823          	sh	a4,16(s0)
   12284:	00042423          	sw	zero,8(s0)
   12288:	e014                	sd	a3,0(s0)
   1228a:	8b85                	andi	a5,a5,1
   1228c:	dbb9                	beqz	a5,121e2 <__sflush_r+0xb0>
   1228e:	e848                	sd	a0,144(s0)
   12290:	bf89                	j	121e2 <__sflush_r+0xb0>
   12292:	0009a783          	lw	a5,0(s3)
   12296:	ee0788e3          	beqz	a5,12186 <__sflush_r+0x54>
   1229a:	4775                	li	a4,29
   1229c:	00e78563          	beq	a5,a4,122a6 <__sflush_r+0x174>
   122a0:	4759                	li	a4,22
   122a2:	fae792e3          	bne	a5,a4,12246 <__sflush_r+0x114>
   122a6:	0099a023          	sw	s1,0(s3)
   122aa:	4501                	li	a0,0
   122ac:	bf89                	j	121fe <__sflush_r+0xcc>
   122ae:	fa95                	bnez	a3,121e2 <__sflush_r+0xb0>
   122b0:	e848                	sd	a0,144(s0)
   122b2:	bf05                	j	121e2 <__sflush_r+0xb0>

00000000000122b4 <_fflush_r>:
   122b4:	1101                	addi	sp,sp,-32
   122b6:	e822                	sd	s0,16(sp)
   122b8:	ec06                	sd	ra,24(sp)
   122ba:	842a                	mv	s0,a0
   122bc:	c119                	beqz	a0,122c2 <_fflush_r+0xe>
   122be:	493c                	lw	a5,80(a0)
   122c0:	cb89                	beqz	a5,122d2 <_fflush_r+0x1e>
   122c2:	01059783          	lh	a5,16(a1)
   122c6:	ef89                	bnez	a5,122e0 <_fflush_r+0x2c>
   122c8:	60e2                	ld	ra,24(sp)
   122ca:	6442                	ld	s0,16(sp)
   122cc:	4501                	li	a0,0
   122ce:	6105                	addi	sp,sp,32
   122d0:	8082                	ret
   122d2:	e42e                	sd	a1,8(sp)
   122d4:	2b2000ef          	jal	ra,12586 <__sinit>
   122d8:	65a2                	ld	a1,8(sp)
   122da:	01059783          	lh	a5,16(a1)
   122de:	d7ed                	beqz	a5,122c8 <_fflush_r+0x14>
   122e0:	8522                	mv	a0,s0
   122e2:	6442                	ld	s0,16(sp)
   122e4:	60e2                	ld	ra,24(sp)
   122e6:	6105                	addi	sp,sp,32
   122e8:	b5a9                	j	12132 <__sflush_r>

00000000000122ea <fflush>:
   122ea:	cd1d                	beqz	a0,12328 <fflush+0x3e>
   122ec:	1101                	addi	sp,sp,-32
   122ee:	e822                	sd	s0,16(sp)
   122f0:	842a                	mv	s0,a0
   122f2:	7581b503          	ld	a0,1880(gp) # 1f6c8 <_impure_ptr>
   122f6:	ec06                	sd	ra,24(sp)
   122f8:	c119                	beqz	a0,122fe <fflush+0x14>
   122fa:	493c                	lw	a5,80(a0)
   122fc:	cf91                	beqz	a5,12318 <fflush+0x2e>
   122fe:	01041783          	lh	a5,16(s0)
   12302:	e791                	bnez	a5,1230e <fflush+0x24>
   12304:	60e2                	ld	ra,24(sp)
   12306:	6442                	ld	s0,16(sp)
   12308:	4501                	li	a0,0
   1230a:	6105                	addi	sp,sp,32
   1230c:	8082                	ret
   1230e:	85a2                	mv	a1,s0
   12310:	6442                	ld	s0,16(sp)
   12312:	60e2                	ld	ra,24(sp)
   12314:	6105                	addi	sp,sp,32
   12316:	bd31                	j	12132 <__sflush_r>
   12318:	e42a                	sd	a0,8(sp)
   1231a:	26c000ef          	jal	ra,12586 <__sinit>
   1231e:	01041783          	lh	a5,16(s0)
   12322:	6522                	ld	a0,8(sp)
   12324:	d3e5                	beqz	a5,12304 <fflush+0x1a>
   12326:	b7e5                	j	1230e <fflush+0x24>
   12328:	7481b503          	ld	a0,1864(gp) # 1f6b8 <_global_impure_ptr>
   1232c:	65c9                	lui	a1,0x12
   1232e:	2b458593          	addi	a1,a1,692 # 122b4 <_fflush_r>
   12332:	a599                	j	12978 <_fwalk_reent>

0000000000012334 <__fp_lock>:
   12334:	4501                	li	a0,0
   12336:	8082                	ret

0000000000012338 <_cleanup_r>:
   12338:	65e5                	lui	a1,0x19
   1233a:	e2a58593          	addi	a1,a1,-470 # 18e2a <_fclose_r>
   1233e:	ad2d                	j	12978 <_fwalk_reent>

0000000000012340 <__fp_unlock>:
   12340:	4501                	li	a0,0
   12342:	8082                	ret

0000000000012344 <__sinit.part.0>:
   12344:	7139                	addi	sp,sp,-64
   12346:	67c9                	lui	a5,0x12
   12348:	fc06                	sd	ra,56(sp)
   1234a:	f822                	sd	s0,48(sp)
   1234c:	f426                	sd	s1,40(sp)
   1234e:	f04a                	sd	s2,32(sp)
   12350:	ec4e                	sd	s3,24(sp)
   12352:	e852                	sd	s4,16(sp)
   12354:	e456                	sd	s5,8(sp)
   12356:	e05a                	sd	s6,0(sp)
   12358:	6500                	ld	s0,8(a0)
   1235a:	33878793          	addi	a5,a5,824 # 12338 <_cleanup_r>
   1235e:	ed3c                	sd	a5,88(a0)
   12360:	53850713          	addi	a4,a0,1336
   12364:	478d                	li	a5,3
   12366:	52e53823          	sd	a4,1328(a0)
   1236a:	52f52423          	sw	a5,1320(a0)
   1236e:	52053023          	sd	zero,1312(a0)
   12372:	4791                	li	a5,4
   12374:	892a                	mv	s2,a0
   12376:	c81c                	sw	a5,16(s0)
   12378:	4621                	li	a2,8
   1237a:	4581                	li	a1,0
   1237c:	00043023          	sd	zero,0(s0)
   12380:	00043423          	sd	zero,8(s0)
   12384:	0a042623          	sw	zero,172(s0)
   12388:	00043c23          	sd	zero,24(s0)
   1238c:	02042023          	sw	zero,32(s0)
   12390:	02042423          	sw	zero,40(s0)
   12394:	0a440513          	addi	a0,s0,164
   12398:	ea3fd0ef          	jal	ra,1023a <memset>
   1239c:	6b59                	lui	s6,0x16
   1239e:	01093483          	ld	s1,16(s2)
   123a2:	6ad9                	lui	s5,0x16
   123a4:	6a59                	lui	s4,0x16
   123a6:	69d9                	lui	s3,0x16
   123a8:	118b0b13          	addi	s6,s6,280 # 16118 <__sread>
   123ac:	154a8a93          	addi	s5,s5,340 # 16154 <__swrite>
   123b0:	1a8a0a13          	addi	s4,s4,424 # 161a8 <__sseek>
   123b4:	1fa98993          	addi	s3,s3,506 # 161fa <__sclose>
   123b8:	67c1                	lui	a5,0x10
   123ba:	03643c23          	sd	s6,56(s0)
   123be:	05543023          	sd	s5,64(s0)
   123c2:	05443423          	sd	s4,72(s0)
   123c6:	05343823          	sd	s3,80(s0)
   123ca:	f800                	sd	s0,48(s0)
   123cc:	07a5                	addi	a5,a5,9 # 10009 <exit-0xdf>
   123ce:	c89c                	sw	a5,16(s1)
   123d0:	4621                	li	a2,8
   123d2:	4581                	li	a1,0
   123d4:	0004b023          	sd	zero,0(s1)
   123d8:	0004b423          	sd	zero,8(s1)
   123dc:	0a04a623          	sw	zero,172(s1)
   123e0:	0004bc23          	sd	zero,24(s1)
   123e4:	0204a023          	sw	zero,32(s1)
   123e8:	0204a423          	sw	zero,40(s1)
   123ec:	0a448513          	addi	a0,s1,164
   123f0:	e4bfd0ef          	jal	ra,1023a <memset>
   123f4:	01893403          	ld	s0,24(s2)
   123f8:	000207b7          	lui	a5,0x20
   123fc:	0364bc23          	sd	s6,56(s1)
   12400:	0554b023          	sd	s5,64(s1)
   12404:	0544b423          	sd	s4,72(s1)
   12408:	0534b823          	sd	s3,80(s1)
   1240c:	f884                	sd	s1,48(s1)
   1240e:	07c9                	addi	a5,a5,18 # 20012 <__BSS_END__+0x8a2>
   12410:	c81c                	sw	a5,16(s0)
   12412:	00043023          	sd	zero,0(s0)
   12416:	00043423          	sd	zero,8(s0)
   1241a:	0a042623          	sw	zero,172(s0)
   1241e:	00043c23          	sd	zero,24(s0)
   12422:	02042023          	sw	zero,32(s0)
   12426:	02042423          	sw	zero,40(s0)
   1242a:	0a440513          	addi	a0,s0,164
   1242e:	4621                	li	a2,8
   12430:	4581                	li	a1,0
   12432:	e09fd0ef          	jal	ra,1023a <memset>
   12436:	70e2                	ld	ra,56(sp)
   12438:	03643c23          	sd	s6,56(s0)
   1243c:	05543023          	sd	s5,64(s0)
   12440:	05443423          	sd	s4,72(s0)
   12444:	05343823          	sd	s3,80(s0)
   12448:	f800                	sd	s0,48(s0)
   1244a:	7442                	ld	s0,48(sp)
   1244c:	4785                	li	a5,1
   1244e:	04f92823          	sw	a5,80(s2)
   12452:	74a2                	ld	s1,40(sp)
   12454:	7902                	ld	s2,32(sp)
   12456:	69e2                	ld	s3,24(sp)
   12458:	6a42                	ld	s4,16(sp)
   1245a:	6aa2                	ld	s5,8(sp)
   1245c:	6b02                	ld	s6,0(sp)
   1245e:	6121                	addi	sp,sp,64
   12460:	8082                	ret

0000000000012462 <__sfmoreglue>:
   12462:	1101                	addi	sp,sp,-32
   12464:	e426                	sd	s1,8(sp)
   12466:	0b000793          	li	a5,176
   1246a:	fff5849b          	addiw	s1,a1,-1
   1246e:	02f484b3          	mul	s1,s1,a5
   12472:	e04a                	sd	s2,0(sp)
   12474:	892e                	mv	s2,a1
   12476:	e822                	sd	s0,16(sp)
   12478:	ec06                	sd	ra,24(sp)
   1247a:	0c848593          	addi	a1,s1,200
   1247e:	03b020ef          	jal	ra,14cb8 <_malloc_r>
   12482:	842a                	mv	s0,a0
   12484:	cd01                	beqz	a0,1249c <__sfmoreglue+0x3a>
   12486:	0561                	addi	a0,a0,24
   12488:	00043023          	sd	zero,0(s0)
   1248c:	01242423          	sw	s2,8(s0)
   12490:	e808                	sd	a0,16(s0)
   12492:	0b048613          	addi	a2,s1,176
   12496:	4581                	li	a1,0
   12498:	da3fd0ef          	jal	ra,1023a <memset>
   1249c:	60e2                	ld	ra,24(sp)
   1249e:	8522                	mv	a0,s0
   124a0:	6442                	ld	s0,16(sp)
   124a2:	64a2                	ld	s1,8(sp)
   124a4:	6902                	ld	s2,0(sp)
   124a6:	6105                	addi	sp,sp,32
   124a8:	8082                	ret

00000000000124aa <__sfp>:
   124aa:	7179                	addi	sp,sp,-48
   124ac:	ec26                	sd	s1,24(sp)
   124ae:	7481b483          	ld	s1,1864(gp) # 1f6b8 <_global_impure_ptr>
   124b2:	e84a                	sd	s2,16(sp)
   124b4:	f406                	sd	ra,40(sp)
   124b6:	48bc                	lw	a5,80(s1)
   124b8:	f022                	sd	s0,32(sp)
   124ba:	e44e                	sd	s3,8(sp)
   124bc:	892a                	mv	s2,a0
   124be:	cfbd                	beqz	a5,1253c <__sfp+0x92>
   124c0:	52048493          	addi	s1,s1,1312
   124c4:	0b000993          	li	s3,176
   124c8:	4498                	lw	a4,8(s1)
   124ca:	6880                	ld	s0,16(s1)
   124cc:	06e05463          	blez	a4,12534 <__sfp+0x8a>
   124d0:	1702                	slli	a4,a4,0x20
   124d2:	9301                	srli	a4,a4,0x20
   124d4:	03370733          	mul	a4,a4,s3
   124d8:	9722                	add	a4,a4,s0
   124da:	a029                	j	124e4 <__sfp+0x3a>
   124dc:	0b040413          	addi	s0,s0,176
   124e0:	04e40a63          	beq	s0,a4,12534 <__sfp+0x8a>
   124e4:	01041783          	lh	a5,16(s0)
   124e8:	fbf5                	bnez	a5,124dc <__sfp+0x32>
   124ea:	77c1                	lui	a5,0xffff0
   124ec:	0785                	addi	a5,a5,1 # ffffffffffff0001 <__BSS_END__+0xfffffffffffd0891>
   124ee:	c81c                	sw	a5,16(s0)
   124f0:	0a042623          	sw	zero,172(s0)
   124f4:	00043023          	sd	zero,0(s0)
   124f8:	00043423          	sd	zero,8(s0)
   124fc:	00043c23          	sd	zero,24(s0)
   12500:	02042023          	sw	zero,32(s0)
   12504:	02042423          	sw	zero,40(s0)
   12508:	4621                	li	a2,8
   1250a:	4581                	li	a1,0
   1250c:	0a440513          	addi	a0,s0,164
   12510:	d2bfd0ef          	jal	ra,1023a <memset>
   12514:	04043c23          	sd	zero,88(s0)
   12518:	06042023          	sw	zero,96(s0)
   1251c:	06043c23          	sd	zero,120(s0)
   12520:	08042023          	sw	zero,128(s0)
   12524:	70a2                	ld	ra,40(sp)
   12526:	8522                	mv	a0,s0
   12528:	7402                	ld	s0,32(sp)
   1252a:	64e2                	ld	s1,24(sp)
   1252c:	6942                	ld	s2,16(sp)
   1252e:	69a2                	ld	s3,8(sp)
   12530:	6145                	addi	sp,sp,48
   12532:	8082                	ret
   12534:	6080                	ld	s0,0(s1)
   12536:	c419                	beqz	s0,12544 <__sfp+0x9a>
   12538:	84a2                	mv	s1,s0
   1253a:	b779                	j	124c8 <__sfp+0x1e>
   1253c:	8526                	mv	a0,s1
   1253e:	e07ff0ef          	jal	ra,12344 <__sinit.part.0>
   12542:	bfbd                	j	124c0 <__sfp+0x16>
   12544:	2d800593          	li	a1,728
   12548:	854a                	mv	a0,s2
   1254a:	76e020ef          	jal	ra,14cb8 <_malloc_r>
   1254e:	842a                	mv	s0,a0
   12550:	cd19                	beqz	a0,1256e <__sfp+0xc4>
   12552:	0561                	addi	a0,a0,24
   12554:	4791                	li	a5,4
   12556:	00043023          	sd	zero,0(s0)
   1255a:	c41c                	sw	a5,8(s0)
   1255c:	e808                	sd	a0,16(s0)
   1255e:	2c000613          	li	a2,704
   12562:	4581                	li	a1,0
   12564:	cd7fd0ef          	jal	ra,1023a <memset>
   12568:	e080                	sd	s0,0(s1)
   1256a:	84a2                	mv	s1,s0
   1256c:	bfb1                	j	124c8 <__sfp+0x1e>
   1256e:	0004b023          	sd	zero,0(s1)
   12572:	47b1                	li	a5,12
   12574:	00f92023          	sw	a5,0(s2)
   12578:	b775                	j	12524 <__sfp+0x7a>

000000000001257a <_cleanup>:
   1257a:	7481b503          	ld	a0,1864(gp) # 1f6b8 <_global_impure_ptr>
   1257e:	65e5                	lui	a1,0x19
   12580:	e2a58593          	addi	a1,a1,-470 # 18e2a <_fclose_r>
   12584:	aed5                	j	12978 <_fwalk_reent>

0000000000012586 <__sinit>:
   12586:	493c                	lw	a5,80(a0)
   12588:	c391                	beqz	a5,1258c <__sinit+0x6>
   1258a:	8082                	ret
   1258c:	bb65                	j	12344 <__sinit.part.0>

000000000001258e <__sfp_lock_acquire>:
   1258e:	8082                	ret

0000000000012590 <__sfp_lock_release>:
   12590:	8082                	ret

0000000000012592 <__sinit_lock_acquire>:
   12592:	8082                	ret

0000000000012594 <__sinit_lock_release>:
   12594:	8082                	ret

0000000000012596 <__fp_lock_all>:
   12596:	7581b503          	ld	a0,1880(gp) # 1f6c8 <_impure_ptr>
   1259a:	65c9                	lui	a1,0x12
   1259c:	33458593          	addi	a1,a1,820 # 12334 <__fp_lock>
   125a0:	aeb1                	j	128fc <_fwalk>

00000000000125a2 <__fp_unlock_all>:
   125a2:	7581b503          	ld	a0,1880(gp) # 1f6c8 <_impure_ptr>
   125a6:	65c9                	lui	a1,0x12
   125a8:	34058593          	addi	a1,a1,832 # 12340 <__fp_unlock>
   125ac:	ae81                	j	128fc <_fwalk>

00000000000125ae <__libc_fini_array>:
   125ae:	1101                	addi	sp,sp,-32
   125b0:	e822                	sd	s0,16(sp)
   125b2:	67f9                	lui	a5,0x1e
   125b4:	6479                	lui	s0,0x1e
   125b6:	57878793          	addi	a5,a5,1400 # 1e578 <__do_global_dtors_aux_fini_array_entry>
   125ba:	58040413          	addi	s0,s0,1408 # 1e580 <impure_data>
   125be:	8c1d                	sub	s0,s0,a5
   125c0:	e426                	sd	s1,8(sp)
   125c2:	ec06                	sd	ra,24(sp)
   125c4:	40345493          	srai	s1,s0,0x3
   125c8:	c881                	beqz	s1,125d8 <__libc_fini_array+0x2a>
   125ca:	1461                	addi	s0,s0,-8
   125cc:	943e                	add	s0,s0,a5
   125ce:	601c                	ld	a5,0(s0)
   125d0:	14fd                	addi	s1,s1,-1
   125d2:	1461                	addi	s0,s0,-8
   125d4:	9782                	jalr	a5
   125d6:	fce5                	bnez	s1,125ce <__libc_fini_array+0x20>
   125d8:	60e2                	ld	ra,24(sp)
   125da:	6442                	ld	s0,16(sp)
   125dc:	64a2                	ld	s1,8(sp)
   125de:	6105                	addi	sp,sp,32
   125e0:	8082                	ret

00000000000125e2 <_malloc_trim_r>:
   125e2:	7179                	addi	sp,sp,-48
   125e4:	e44e                	sd	s3,8(sp)
   125e6:	69fd                	lui	s3,0x1f
   125e8:	f022                	sd	s0,32(sp)
   125ea:	ec26                	sd	s1,24(sp)
   125ec:	e84a                	sd	s2,16(sp)
   125ee:	e052                	sd	s4,0(sp)
   125f0:	f406                	sd	ra,40(sp)
   125f2:	8a2e                	mv	s4,a1
   125f4:	892a                	mv	s2,a0
   125f6:	cc898993          	addi	s3,s3,-824 # 1ecc8 <__malloc_av_>
   125fa:	539020ef          	jal	ra,15332 <__malloc_lock>
   125fe:	0109b703          	ld	a4,16(s3)
   12602:	6785                	lui	a5,0x1
   12604:	fdf78413          	addi	s0,a5,-33 # fdf <exit-0xf109>
   12608:	6704                	ld	s1,8(a4)
   1260a:	98f1                	andi	s1,s1,-4
   1260c:	9426                	add	s0,s0,s1
   1260e:	41440433          	sub	s0,s0,s4
   12612:	8031                	srli	s0,s0,0xc
   12614:	147d                	addi	s0,s0,-1
   12616:	0432                	slli	s0,s0,0xc
   12618:	00f44b63          	blt	s0,a5,1262e <_malloc_trim_r+0x4c>
   1261c:	4581                	li	a1,0
   1261e:	854a                	mv	a0,s2
   12620:	237030ef          	jal	ra,16056 <_sbrk_r>
   12624:	0109b783          	ld	a5,16(s3)
   12628:	97a6                	add	a5,a5,s1
   1262a:	00f50e63          	beq	a0,a5,12646 <_malloc_trim_r+0x64>
   1262e:	854a                	mv	a0,s2
   12630:	505020ef          	jal	ra,15334 <__malloc_unlock>
   12634:	70a2                	ld	ra,40(sp)
   12636:	7402                	ld	s0,32(sp)
   12638:	64e2                	ld	s1,24(sp)
   1263a:	6942                	ld	s2,16(sp)
   1263c:	69a2                	ld	s3,8(sp)
   1263e:	6a02                	ld	s4,0(sp)
   12640:	4501                	li	a0,0
   12642:	6145                	addi	sp,sp,48
   12644:	8082                	ret
   12646:	408005b3          	neg	a1,s0
   1264a:	854a                	mv	a0,s2
   1264c:	20b030ef          	jal	ra,16056 <_sbrk_r>
   12650:	57fd                	li	a5,-1
   12652:	02f50b63          	beq	a0,a5,12688 <_malloc_trim_r+0xa6>
   12656:	0001f7b7          	lui	a5,0x1f
   1265a:	74878793          	addi	a5,a5,1864 # 1f748 <__malloc_current_mallinfo>
   1265e:	4398                	lw	a4,0(a5)
   12660:	0109b683          	ld	a3,16(s3)
   12664:	8c81                	sub	s1,s1,s0
   12666:	0014e493          	ori	s1,s1,1
   1266a:	9f01                	subw	a4,a4,s0
   1266c:	854a                	mv	a0,s2
   1266e:	e684                	sd	s1,8(a3)
   12670:	c398                	sw	a4,0(a5)
   12672:	4c3020ef          	jal	ra,15334 <__malloc_unlock>
   12676:	70a2                	ld	ra,40(sp)
   12678:	7402                	ld	s0,32(sp)
   1267a:	64e2                	ld	s1,24(sp)
   1267c:	6942                	ld	s2,16(sp)
   1267e:	69a2                	ld	s3,8(sp)
   12680:	6a02                	ld	s4,0(sp)
   12682:	4505                	li	a0,1
   12684:	6145                	addi	sp,sp,48
   12686:	8082                	ret
   12688:	4581                	li	a1,0
   1268a:	854a                	mv	a0,s2
   1268c:	1cb030ef          	jal	ra,16056 <_sbrk_r>
   12690:	0109b703          	ld	a4,16(s3)
   12694:	46fd                	li	a3,31
   12696:	40e507b3          	sub	a5,a0,a4
   1269a:	f8f6dae3          	bge	a3,a5,1262e <_malloc_trim_r+0x4c>
   1269e:	7601b683          	ld	a3,1888(gp) # 1f6d0 <__malloc_sbrk_base>
   126a2:	0017e793          	ori	a5,a5,1
   126a6:	e71c                	sd	a5,8(a4)
   126a8:	8d15                	sub	a0,a0,a3
   126aa:	0001f6b7          	lui	a3,0x1f
   126ae:	74a6a423          	sw	a0,1864(a3) # 1f748 <__malloc_current_mallinfo>
   126b2:	bfb5                	j	1262e <_malloc_trim_r+0x4c>

00000000000126b4 <_free_r>:
   126b4:	12058363          	beqz	a1,127da <_free_r+0x126>
   126b8:	1101                	addi	sp,sp,-32
   126ba:	e822                	sd	s0,16(sp)
   126bc:	e426                	sd	s1,8(sp)
   126be:	842e                	mv	s0,a1
   126c0:	84aa                	mv	s1,a0
   126c2:	ec06                	sd	ra,24(sp)
   126c4:	46f020ef          	jal	ra,15332 <__malloc_lock>
   126c8:	ff843503          	ld	a0,-8(s0)
   126cc:	ff040713          	addi	a4,s0,-16
   126d0:	65fd                	lui	a1,0x1f
   126d2:	ffe57793          	andi	a5,a0,-2
   126d6:	00f70633          	add	a2,a4,a5
   126da:	cc858593          	addi	a1,a1,-824 # 1ecc8 <__malloc_av_>
   126de:	6614                	ld	a3,8(a2)
   126e0:	0105b803          	ld	a6,16(a1)
   126e4:	9af1                	andi	a3,a3,-4
   126e6:	12c80c63          	beq	a6,a2,1281e <_free_r+0x16a>
   126ea:	e614                	sd	a3,8(a2)
   126ec:	8905                	andi	a0,a0,1
   126ee:	00d60833          	add	a6,a2,a3
   126f2:	e141                	bnez	a0,12772 <_free_r+0xbe>
   126f4:	ff043303          	ld	t1,-16(s0)
   126f8:	00883803          	ld	a6,8(a6)
   126fc:	657d                	lui	a0,0x1f
   126fe:	40670733          	sub	a4,a4,t1
   12702:	01073883          	ld	a7,16(a4)
   12706:	cd850513          	addi	a0,a0,-808 # 1ecd8 <__malloc_av_+0x10>
   1270a:	979a                	add	a5,a5,t1
   1270c:	00187813          	andi	a6,a6,1
   12710:	0ea88a63          	beq	a7,a0,12804 <_free_r+0x150>
   12714:	01873303          	ld	t1,24(a4)
   12718:	0068bc23          	sd	t1,24(a7)
   1271c:	01133823          	sd	a7,16(t1)
   12720:	12080863          	beqz	a6,12850 <_free_r+0x19c>
   12724:	0017e693          	ori	a3,a5,1
   12728:	e714                	sd	a3,8(a4)
   1272a:	e21c                	sd	a5,0(a2)
   1272c:	1ff00693          	li	a3,511
   12730:	04f6ee63          	bltu	a3,a5,1278c <_free_r+0xd8>
   12734:	838d                	srli	a5,a5,0x3
   12736:	0017869b          	addiw	a3,a5,1
   1273a:	0016969b          	slliw	a3,a3,0x1
   1273e:	068e                	slli	a3,a3,0x3
   12740:	0085b803          	ld	a6,8(a1)
   12744:	96ae                	add	a3,a3,a1
   12746:	6288                	ld	a0,0(a3)
   12748:	4027d61b          	sraiw	a2,a5,0x2
   1274c:	4785                	li	a5,1
   1274e:	00c797b3          	sll	a5,a5,a2
   12752:	0107e7b3          	or	a5,a5,a6
   12756:	ff068613          	addi	a2,a3,-16
   1275a:	ef10                	sd	a2,24(a4)
   1275c:	eb08                	sd	a0,16(a4)
   1275e:	e59c                	sd	a5,8(a1)
   12760:	e298                	sd	a4,0(a3)
   12762:	ed18                	sd	a4,24(a0)
   12764:	6442                	ld	s0,16(sp)
   12766:	60e2                	ld	ra,24(sp)
   12768:	8526                	mv	a0,s1
   1276a:	64a2                	ld	s1,8(sp)
   1276c:	6105                	addi	sp,sp,32
   1276e:	3c70206f          	j	15334 <__malloc_unlock>
   12772:	00883503          	ld	a0,8(a6)
   12776:	8905                	andi	a0,a0,1
   12778:	c135                	beqz	a0,127dc <_free_r+0x128>
   1277a:	0017e693          	ori	a3,a5,1
   1277e:	fed43c23          	sd	a3,-8(s0)
   12782:	e21c                	sd	a5,0(a2)
   12784:	1ff00693          	li	a3,511
   12788:	faf6f6e3          	bgeu	a3,a5,12734 <_free_r+0x80>
   1278c:	0097d693          	srli	a3,a5,0x9
   12790:	4611                	li	a2,4
   12792:	0cd66163          	bltu	a2,a3,12854 <_free_r+0x1a0>
   12796:	0067d693          	srli	a3,a5,0x6
   1279a:	0396851b          	addiw	a0,a3,57
   1279e:	0015151b          	slliw	a0,a0,0x1
   127a2:	0386861b          	addiw	a2,a3,56
   127a6:	050e                	slli	a0,a0,0x3
   127a8:	952e                	add	a0,a0,a1
   127aa:	6114                	ld	a3,0(a0)
   127ac:	1541                	addi	a0,a0,-16
   127ae:	00d51663          	bne	a0,a3,127ba <_free_r+0x106>
   127b2:	a0e5                	j	1289a <_free_r+0x1e6>
   127b4:	6a94                	ld	a3,16(a3)
   127b6:	00d50663          	beq	a0,a3,127c2 <_free_r+0x10e>
   127ba:	6690                	ld	a2,8(a3)
   127bc:	9a71                	andi	a2,a2,-4
   127be:	fec7ebe3          	bltu	a5,a2,127b4 <_free_r+0x100>
   127c2:	6e88                	ld	a0,24(a3)
   127c4:	ef08                	sd	a0,24(a4)
   127c6:	eb14                	sd	a3,16(a4)
   127c8:	6442                	ld	s0,16(sp)
   127ca:	e918                	sd	a4,16(a0)
   127cc:	60e2                	ld	ra,24(sp)
   127ce:	8526                	mv	a0,s1
   127d0:	64a2                	ld	s1,8(sp)
   127d2:	ee98                	sd	a4,24(a3)
   127d4:	6105                	addi	sp,sp,32
   127d6:	35f0206f          	j	15334 <__malloc_unlock>
   127da:	8082                	ret
   127dc:	657d                	lui	a0,0x1f
   127de:	97b6                	add	a5,a5,a3
   127e0:	cd850513          	addi	a0,a0,-808 # 1ecd8 <__malloc_av_+0x10>
   127e4:	6a14                	ld	a3,16(a2)
   127e6:	0aa68063          	beq	a3,a0,12886 <_free_r+0x1d2>
   127ea:	01863803          	ld	a6,24(a2)
   127ee:	0017e513          	ori	a0,a5,1
   127f2:	00f70633          	add	a2,a4,a5
   127f6:	0106bc23          	sd	a6,24(a3)
   127fa:	00d83823          	sd	a3,16(a6)
   127fe:	e708                	sd	a0,8(a4)
   12800:	e21c                	sd	a5,0(a2)
   12802:	b72d                	j	1272c <_free_r+0x78>
   12804:	0e081763          	bnez	a6,128f2 <_free_r+0x23e>
   12808:	6a0c                	ld	a1,16(a2)
   1280a:	6e10                	ld	a2,24(a2)
   1280c:	96be                	add	a3,a3,a5
   1280e:	0016e793          	ori	a5,a3,1
   12812:	ed90                	sd	a2,24(a1)
   12814:	ea0c                	sd	a1,16(a2)
   12816:	e71c                	sd	a5,8(a4)
   12818:	9736                	add	a4,a4,a3
   1281a:	e314                	sd	a3,0(a4)
   1281c:	b7a1                	j	12764 <_free_r+0xb0>
   1281e:	8905                	andi	a0,a0,1
   12820:	96be                	add	a3,a3,a5
   12822:	e909                	bnez	a0,12834 <_free_r+0x180>
   12824:	ff043503          	ld	a0,-16(s0)
   12828:	8f09                	sub	a4,a4,a0
   1282a:	6f1c                	ld	a5,24(a4)
   1282c:	6b10                	ld	a2,16(a4)
   1282e:	96aa                	add	a3,a3,a0
   12830:	ee1c                	sd	a5,24(a2)
   12832:	eb90                	sd	a2,16(a5)
   12834:	0016e613          	ori	a2,a3,1
   12838:	7681b783          	ld	a5,1896(gp) # 1f6d8 <__malloc_trim_threshold>
   1283c:	e710                	sd	a2,8(a4)
   1283e:	e998                	sd	a4,16(a1)
   12840:	f2f6e2e3          	bltu	a3,a5,12764 <_free_r+0xb0>
   12844:	7801b583          	ld	a1,1920(gp) # 1f6f0 <__malloc_top_pad>
   12848:	8526                	mv	a0,s1
   1284a:	d99ff0ef          	jal	ra,125e2 <_malloc_trim_r>
   1284e:	bf19                	j	12764 <_free_r+0xb0>
   12850:	97b6                	add	a5,a5,a3
   12852:	bf49                	j	127e4 <_free_r+0x130>
   12854:	4651                	li	a2,20
   12856:	02d67063          	bgeu	a2,a3,12876 <_free_r+0x1c2>
   1285a:	05400613          	li	a2,84
   1285e:	04d66963          	bltu	a2,a3,128b0 <_free_r+0x1fc>
   12862:	00c7d693          	srli	a3,a5,0xc
   12866:	06f6851b          	addiw	a0,a3,111
   1286a:	0015151b          	slliw	a0,a0,0x1
   1286e:	06e6861b          	addiw	a2,a3,110
   12872:	050e                	slli	a0,a0,0x3
   12874:	bf15                	j	127a8 <_free_r+0xf4>
   12876:	05c6851b          	addiw	a0,a3,92
   1287a:	0015151b          	slliw	a0,a0,0x1
   1287e:	05b6861b          	addiw	a2,a3,91
   12882:	050e                	slli	a0,a0,0x3
   12884:	b715                	j	127a8 <_free_r+0xf4>
   12886:	f598                	sd	a4,40(a1)
   12888:	f198                	sd	a4,32(a1)
   1288a:	0017e693          	ori	a3,a5,1
   1288e:	ef08                	sd	a0,24(a4)
   12890:	eb08                	sd	a0,16(a4)
   12892:	e714                	sd	a3,8(a4)
   12894:	973e                	add	a4,a4,a5
   12896:	e31c                	sd	a5,0(a4)
   12898:	b5f1                	j	12764 <_free_r+0xb0>
   1289a:	0085b803          	ld	a6,8(a1)
   1289e:	4026561b          	sraiw	a2,a2,0x2
   128a2:	4785                	li	a5,1
   128a4:	00c797b3          	sll	a5,a5,a2
   128a8:	0107e7b3          	or	a5,a5,a6
   128ac:	e59c                	sd	a5,8(a1)
   128ae:	bf19                	j	127c4 <_free_r+0x110>
   128b0:	15400613          	li	a2,340
   128b4:	00d66c63          	bltu	a2,a3,128cc <_free_r+0x218>
   128b8:	00f7d693          	srli	a3,a5,0xf
   128bc:	0786851b          	addiw	a0,a3,120
   128c0:	0015151b          	slliw	a0,a0,0x1
   128c4:	0776861b          	addiw	a2,a3,119
   128c8:	050e                	slli	a0,a0,0x3
   128ca:	bdf9                	j	127a8 <_free_r+0xf4>
   128cc:	55400613          	li	a2,1364
   128d0:	00d66c63          	bltu	a2,a3,128e8 <_free_r+0x234>
   128d4:	0127d693          	srli	a3,a5,0x12
   128d8:	07d6851b          	addiw	a0,a3,125
   128dc:	0015151b          	slliw	a0,a0,0x1
   128e0:	07c6861b          	addiw	a2,a3,124
   128e4:	050e                	slli	a0,a0,0x3
   128e6:	b5c9                	j	127a8 <_free_r+0xf4>
   128e8:	7f000513          	li	a0,2032
   128ec:	07e00613          	li	a2,126
   128f0:	bd65                	j	127a8 <_free_r+0xf4>
   128f2:	0017e693          	ori	a3,a5,1
   128f6:	e714                	sd	a3,8(a4)
   128f8:	e21c                	sd	a5,0(a2)
   128fa:	b5ad                	j	12764 <_free_r+0xb0>

00000000000128fc <_fwalk>:
   128fc:	715d                	addi	sp,sp,-80
   128fe:	f84a                	sd	s2,48(sp)
   12900:	f44e                	sd	s3,40(sp)
   12902:	f052                	sd	s4,32(sp)
   12904:	ec56                	sd	s5,24(sp)
   12906:	e85a                	sd	s6,16(sp)
   12908:	e45e                	sd	s7,8(sp)
   1290a:	e486                	sd	ra,72(sp)
   1290c:	e0a2                	sd	s0,64(sp)
   1290e:	fc26                	sd	s1,56(sp)
   12910:	8aae                	mv	s5,a1
   12912:	52050993          	addi	s3,a0,1312
   12916:	4901                	li	s2,0
   12918:	0b000b13          	li	s6,176
   1291c:	4b85                	li	s7,1
   1291e:	5a7d                	li	s4,-1
   12920:	0089a483          	lw	s1,8(s3)
   12924:	0109b403          	ld	s0,16(s3)
   12928:	02905863          	blez	s1,12958 <_fwalk+0x5c>
   1292c:	1482                	slli	s1,s1,0x20
   1292e:	9081                	srli	s1,s1,0x20
   12930:	036484b3          	mul	s1,s1,s6
   12934:	94a2                	add	s1,s1,s0
   12936:	01045783          	lhu	a5,16(s0)
   1293a:	00fbfb63          	bgeu	s7,a5,12950 <_fwalk+0x54>
   1293e:	01241783          	lh	a5,18(s0)
   12942:	8522                	mv	a0,s0
   12944:	01478663          	beq	a5,s4,12950 <_fwalk+0x54>
   12948:	9a82                	jalr	s5
   1294a:	01256933          	or	s2,a0,s2
   1294e:	2901                	sext.w	s2,s2
   12950:	0b040413          	addi	s0,s0,176
   12954:	fe8491e3          	bne	s1,s0,12936 <_fwalk+0x3a>
   12958:	0009b983          	ld	s3,0(s3)
   1295c:	fc0992e3          	bnez	s3,12920 <_fwalk+0x24>
   12960:	60a6                	ld	ra,72(sp)
   12962:	6406                	ld	s0,64(sp)
   12964:	74e2                	ld	s1,56(sp)
   12966:	79a2                	ld	s3,40(sp)
   12968:	7a02                	ld	s4,32(sp)
   1296a:	6ae2                	ld	s5,24(sp)
   1296c:	6b42                	ld	s6,16(sp)
   1296e:	6ba2                	ld	s7,8(sp)
   12970:	854a                	mv	a0,s2
   12972:	7942                	ld	s2,48(sp)
   12974:	6161                	addi	sp,sp,80
   12976:	8082                	ret

0000000000012978 <_fwalk_reent>:
   12978:	715d                	addi	sp,sp,-80
   1297a:	f84a                	sd	s2,48(sp)
   1297c:	f44e                	sd	s3,40(sp)
   1297e:	f052                	sd	s4,32(sp)
   12980:	ec56                	sd	s5,24(sp)
   12982:	e85a                	sd	s6,16(sp)
   12984:	e45e                	sd	s7,8(sp)
   12986:	e062                	sd	s8,0(sp)
   12988:	e486                	sd	ra,72(sp)
   1298a:	e0a2                	sd	s0,64(sp)
   1298c:	fc26                	sd	s1,56(sp)
   1298e:	89aa                	mv	s3,a0
   12990:	8b2e                	mv	s6,a1
   12992:	52050a13          	addi	s4,a0,1312
   12996:	4901                	li	s2,0
   12998:	0b000b93          	li	s7,176
   1299c:	4c05                	li	s8,1
   1299e:	5afd                	li	s5,-1
   129a0:	008a2483          	lw	s1,8(s4)
   129a4:	010a3403          	ld	s0,16(s4)
   129a8:	02905963          	blez	s1,129da <_fwalk_reent+0x62>
   129ac:	1482                	slli	s1,s1,0x20
   129ae:	9081                	srli	s1,s1,0x20
   129b0:	037484b3          	mul	s1,s1,s7
   129b4:	94a2                	add	s1,s1,s0
   129b6:	01045783          	lhu	a5,16(s0)
   129ba:	00fc7c63          	bgeu	s8,a5,129d2 <_fwalk_reent+0x5a>
   129be:	01241783          	lh	a5,18(s0)
   129c2:	85a2                	mv	a1,s0
   129c4:	854e                	mv	a0,s3
   129c6:	01578663          	beq	a5,s5,129d2 <_fwalk_reent+0x5a>
   129ca:	9b02                	jalr	s6
   129cc:	01256933          	or	s2,a0,s2
   129d0:	2901                	sext.w	s2,s2
   129d2:	0b040413          	addi	s0,s0,176
   129d6:	fe8490e3          	bne	s1,s0,129b6 <_fwalk_reent+0x3e>
   129da:	000a3a03          	ld	s4,0(s4)
   129de:	fc0a11e3          	bnez	s4,129a0 <_fwalk_reent+0x28>
   129e2:	60a6                	ld	ra,72(sp)
   129e4:	6406                	ld	s0,64(sp)
   129e6:	74e2                	ld	s1,56(sp)
   129e8:	79a2                	ld	s3,40(sp)
   129ea:	7a02                	ld	s4,32(sp)
   129ec:	6ae2                	ld	s5,24(sp)
   129ee:	6b42                	ld	s6,16(sp)
   129f0:	6ba2                	ld	s7,8(sp)
   129f2:	6c02                	ld	s8,0(sp)
   129f4:	854a                	mv	a0,s2
   129f6:	7942                	ld	s2,48(sp)
   129f8:	6161                	addi	sp,sp,80
   129fa:	8082                	ret

00000000000129fc <eshdn1>:
   129fc:	00450693          	addi	a3,a0,4
   12a00:	4701                	li	a4,0
   12a02:	0569                	addi	a0,a0,26
   12a04:	7861                	lui	a6,0xffff8
   12a06:	0006d783          	lhu	a5,0(a3)
   12a0a:	0017f613          	andi	a2,a5,1
   12a0e:	c219                	beqz	a2,12a14 <eshdn1+0x18>
   12a10:	00176713          	ori	a4,a4,1
   12a14:	00277613          	andi	a2,a4,2
   12a18:	8385                	srli	a5,a5,0x1
   12a1a:	0017171b          	slliw	a4,a4,0x1
   12a1e:	0107e5b3          	or	a1,a5,a6
   12a22:	c601                	beqz	a2,12a2a <eshdn1+0x2e>
   12a24:	03059793          	slli	a5,a1,0x30
   12a28:	93c1                	srli	a5,a5,0x30
   12a2a:	00f69023          	sh	a5,0(a3)
   12a2e:	1742                	slli	a4,a4,0x30
   12a30:	0689                	addi	a3,a3,2
   12a32:	9341                	srli	a4,a4,0x30
   12a34:	fcd519e3          	bne	a0,a3,12a06 <eshdn1+0xa>
   12a38:	8082                	ret

0000000000012a3a <eshup1>:
   12a3a:	01850693          	addi	a3,a0,24
   12a3e:	4701                	li	a4,0
   12a40:	0509                	addi	a0,a0,2
   12a42:	0006d783          	lhu	a5,0(a3)
   12a46:	00f7d613          	srli	a2,a5,0xf
   12a4a:	0017979b          	slliw	a5,a5,0x1
   12a4e:	c219                	beqz	a2,12a54 <eshup1+0x1a>
   12a50:	00176713          	ori	a4,a4,1
   12a54:	00277613          	andi	a2,a4,2
   12a58:	17c2                	slli	a5,a5,0x30
   12a5a:	0017171b          	slliw	a4,a4,0x1
   12a5e:	93c1                	srli	a5,a5,0x30
   12a60:	c219                	beqz	a2,12a66 <eshup1+0x2c>
   12a62:	0017e793          	ori	a5,a5,1
   12a66:	00f69023          	sh	a5,0(a3)
   12a6a:	1742                	slli	a4,a4,0x30
   12a6c:	16f9                	addi	a3,a3,-2
   12a6e:	9341                	srli	a4,a4,0x30
   12a70:	fcd519e3          	bne	a0,a3,12a42 <eshup1+0x8>
   12a74:	8082                	ret

0000000000012a76 <m16m>:
   12a76:	1101                	addi	sp,sp,-32
   12a78:	6e41                	lui	t3,0x10
   12a7a:	00011b23          	sh	zero,22(sp)
   12a7e:	00011c23          	sh	zero,24(sp)
   12a82:	05e1                	addi	a1,a1,24
   12a84:	083c                	addi	a5,sp,24
   12a86:	00410813          	addi	a6,sp,4
   12a8a:	1e7d                	addi	t3,t3,-1 # ffff <exit-0xe9>
   12a8c:	0005d703          	lhu	a4,0(a1)
   12a90:	17f9                	addi	a5,a5,-2
   12a92:	15f9                	addi	a1,a1,-2
   12a94:	c705                	beqz	a4,12abc <m16m+0x46>
   12a96:	02a70733          	mul	a4,a4,a0
   12a9a:	0027d883          	lhu	a7,2(a5)
   12a9e:	0007d303          	lhu	t1,0(a5)
   12aa2:	01c776b3          	and	a3,a4,t3
   12aa6:	96c6                	add	a3,a3,a7
   12aa8:	8341                	srli	a4,a4,0x10
   12aaa:	0106d893          	srli	a7,a3,0x10
   12aae:	971a                	add	a4,a4,t1
   12ab0:	9746                	add	a4,a4,a7
   12ab2:	00e79023          	sh	a4,0(a5)
   12ab6:	00d79123          	sh	a3,2(a5)
   12aba:	8341                	srli	a4,a4,0x10
   12abc:	fee79f23          	sh	a4,-2(a5)
   12ac0:	fd0796e3          	bne	a5,a6,12a8c <m16m+0x16>
   12ac4:	0611                	addi	a2,a2,4
   12ac6:	01a10693          	addi	a3,sp,26
   12aca:	0007d703          	lhu	a4,0(a5)
   12ace:	0789                	addi	a5,a5,2
   12ad0:	0609                	addi	a2,a2,2
   12ad2:	fee61f23          	sh	a4,-2(a2)
   12ad6:	fef69ae3          	bne	a3,a5,12aca <m16m+0x54>
   12ada:	6105                	addi	sp,sp,32
   12adc:	8082                	ret

0000000000012ade <emovo.constprop.0>:
   12ade:	00055703          	lhu	a4,0(a0)
   12ae2:	00255783          	lhu	a5,2(a0)
   12ae6:	c319                	beqz	a4,12aec <emovo.constprop.0+0xe>
   12ae8:	6721                	lui	a4,0x8
   12aea:	8fd9                	or	a5,a5,a4
   12aec:	00f59923          	sh	a5,18(a1)
   12af0:	00255703          	lhu	a4,2(a0)
   12af4:	67a1                	lui	a5,0x8
   12af6:	17fd                	addi	a5,a5,-1 # 7fff <exit-0x80e9>
   12af8:	00f70f63          	beq	a4,a5,12b16 <emovo.constprop.0+0x38>
   12afc:	00650793          	addi	a5,a0,6
   12b00:	05c1                	addi	a1,a1,16
   12b02:	0561                	addi	a0,a0,24
   12b04:	0007d703          	lhu	a4,0(a5)
   12b08:	0789                	addi	a5,a5,2
   12b0a:	15f9                	addi	a1,a1,-2
   12b0c:	00e59123          	sh	a4,2(a1)
   12b10:	fea79ae3          	bne	a5,a0,12b04 <emovo.constprop.0+0x26>
   12b14:	8082                	ret
   12b16:	00650793          	addi	a5,a0,6
   12b1a:	0569                	addi	a0,a0,26
   12b1c:	0007d703          	lhu	a4,0(a5)
   12b20:	0789                	addi	a5,a5,2
   12b22:	e31d                	bnez	a4,12b48 <emovo.constprop.0+0x6a>
   12b24:	fef51ce3          	bne	a0,a5,12b1c <emovo.constprop.0+0x3e>
   12b28:	01258713          	addi	a4,a1,18
   12b2c:	87ae                	mv	a5,a1
   12b2e:	0789                	addi	a5,a5,2
   12b30:	fe079f23          	sh	zero,-2(a5)
   12b34:	fee79de3          	bne	a5,a4,12b2e <emovo.constprop.0+0x50>
   12b38:	0125d783          	lhu	a5,18(a1)
   12b3c:	6721                	lui	a4,0x8
   12b3e:	177d                	addi	a4,a4,-1 # 7fff <exit-0x80e9>
   12b40:	8fd9                	or	a5,a5,a4
   12b42:	00f59923          	sh	a5,18(a1)
   12b46:	8082                	ret
   12b48:	01058713          	addi	a4,a1,16
   12b4c:	87ae                	mv	a5,a1
   12b4e:	0789                	addi	a5,a5,2
   12b50:	fe079f23          	sh	zero,-2(a5)
   12b54:	fee79de3          	bne	a5,a4,12b4e <emovo.constprop.0+0x70>
   12b58:	77f1                	lui	a5,0xffffc
   12b5a:	00f59823          	sh	a5,16(a1)
   12b5e:	77e1                	lui	a5,0xffff8
   12b60:	fff7c793          	not	a5,a5
   12b64:	00f59923          	sh	a5,18(a1)
   12b68:	8082                	ret

0000000000012b6a <enormlz>:
   12b6a:	00455783          	lhu	a5,4(a0)
   12b6e:	1101                	addi	sp,sp,-32
   12b70:	e426                	sd	s1,8(sp)
   12b72:	ec06                	sd	ra,24(sp)
   12b74:	e822                	sd	s0,16(sp)
   12b76:	e04a                	sd	s2,0(sp)
   12b78:	84aa                	mv	s1,a0
   12b7a:	efd1                	bnez	a5,12c16 <enormlz+0xac>
   12b7c:	00655783          	lhu	a5,6(a0)
   12b80:	4401                	li	s0,0
   12b82:	00f7d713          	srli	a4,a5,0xf
   12b86:	e349                	bnez	a4,12c08 <enormlz+0x9e>
   12b88:	01850693          	addi	a3,a0,24
   12b8c:	0a000613          	li	a2,160
   12b90:	e395                	bnez	a5,12bb4 <enormlz+0x4a>
   12b92:	00448793          	addi	a5,s1,4
   12b96:	0027d703          	lhu	a4,2(a5) # ffffffffffff8002 <__BSS_END__+0xfffffffffffd8892>
   12b9a:	0789                	addi	a5,a5,2
   12b9c:	fee79f23          	sh	a4,-2(a5)
   12ba0:	fed79be3          	bne	a5,a3,12b96 <enormlz+0x2c>
   12ba4:	00049c23          	sh	zero,24(s1)
   12ba8:	2441                	addiw	s0,s0,16
   12baa:	04c40f63          	beq	s0,a2,12c08 <enormlz+0x9e>
   12bae:	0064d783          	lhu	a5,6(s1)
   12bb2:	d3e5                	beqz	a5,12b92 <enormlz+0x28>
   12bb4:	0ff00713          	li	a4,255
   12bb8:	02f76b63          	bltu	a4,a5,12bee <enormlz+0x84>
   12bbc:	01848813          	addi	a6,s1,24
   12bc0:	00248593          	addi	a1,s1,2
   12bc4:	0ff00513          	li	a0,255
   12bc8:	4781                	li	a5,0
   12bca:	8742                	mv	a4,a6
   12bcc:	00075683          	lhu	a3,0(a4)
   12bd0:	1779                	addi	a4,a4,-2
   12bd2:	0086961b          	slliw	a2,a3,0x8
   12bd6:	8fd1                	or	a5,a5,a2
   12bd8:	00f71123          	sh	a5,2(a4)
   12bdc:	0086d793          	srli	a5,a3,0x8
   12be0:	feb716e3          	bne	a4,a1,12bcc <enormlz+0x62>
   12be4:	0064d783          	lhu	a5,6(s1)
   12be8:	2421                	addiw	s0,s0,8
   12bea:	fcf57fe3          	bgeu	a0,a5,12bc8 <enormlz+0x5e>
   12bee:	0a000913          	li	s2,160
   12bf2:	a801                	j	12c02 <enormlz+0x98>
   12bf4:	2405                	addiw	s0,s0,1
   12bf6:	e45ff0ef          	jal	ra,12a3a <eshup1>
   12bfa:	00894763          	blt	s2,s0,12c08 <enormlz+0x9e>
   12bfe:	0064d783          	lhu	a5,6(s1)
   12c02:	83bd                	srli	a5,a5,0xf
   12c04:	8526                	mv	a0,s1
   12c06:	d7fd                	beqz	a5,12bf4 <enormlz+0x8a>
   12c08:	60e2                	ld	ra,24(sp)
   12c0a:	8522                	mv	a0,s0
   12c0c:	6442                	ld	s0,16(sp)
   12c0e:	64a2                	ld	s1,8(sp)
   12c10:	6902                	ld	s2,0(sp)
   12c12:	6105                	addi	sp,sp,32
   12c14:	8082                	ret
   12c16:	0ff00713          	li	a4,255
   12c1a:	4401                	li	s0,0
   12c1c:	02f76563          	bltu	a4,a5,12c46 <enormlz+0xdc>
   12c20:	f6f00913          	li	s2,-145
   12c24:	a801                	j	12c34 <enormlz+0xca>
   12c26:	347d                	addiw	s0,s0,-1
   12c28:	dd5ff0ef          	jal	ra,129fc <eshdn1>
   12c2c:	fd240ee3          	beq	s0,s2,12c08 <enormlz+0x9e>
   12c30:	0044d783          	lhu	a5,4(s1)
   12c34:	8526                	mv	a0,s1
   12c36:	fbe5                	bnez	a5,12c26 <enormlz+0xbc>
   12c38:	60e2                	ld	ra,24(sp)
   12c3a:	8522                	mv	a0,s0
   12c3c:	6442                	ld	s0,16(sp)
   12c3e:	64a2                	ld	s1,8(sp)
   12c40:	6902                	ld	s2,0(sp)
   12c42:	6105                	addi	sp,sp,32
   12c44:	8082                	ret
   12c46:	00450713          	addi	a4,a0,4
   12c4a:	01a50593          	addi	a1,a0,26
   12c4e:	4781                	li	a5,0
   12c50:	00075683          	lhu	a3,0(a4)
   12c54:	0709                	addi	a4,a4,2
   12c56:	0086d61b          	srliw	a2,a3,0x8
   12c5a:	8fd1                	or	a5,a5,a2
   12c5c:	0086969b          	slliw	a3,a3,0x8
   12c60:	fef71f23          	sh	a5,-2(a4)
   12c64:	03069793          	slli	a5,a3,0x30
   12c68:	93c1                	srli	a5,a5,0x30
   12c6a:	feb713e3          	bne	a4,a1,12c50 <enormlz+0xe6>
   12c6e:	0044d783          	lhu	a5,4(s1)
   12c72:	5461                	li	s0,-8
   12c74:	b775                	j	12c20 <enormlz+0xb6>

0000000000012c76 <eshift.part.0>:
   12c76:	7179                	addi	sp,sp,-48
   12c78:	f022                	sd	s0,32(sp)
   12c7a:	ec26                	sd	s1,24(sp)
   12c7c:	f406                	sd	ra,40(sp)
   12c7e:	e84a                	sd	s2,16(sp)
   12c80:	e44e                	sd	s3,8(sp)
   12c82:	84ae                	mv	s1,a1
   12c84:	842a                	mv	s0,a0
   12c86:	0605cb63          	bltz	a1,12cfc <eshift.part.0+0x86>
   12c8a:	47bd                	li	a5,15
   12c8c:	862e                	mv	a2,a1
   12c8e:	0511                	addi	a0,a0,4
   12c90:	01840693          	addi	a3,s0,24
   12c94:	45bd                	li	a1,15
   12c96:	0297d063          	bge	a5,s1,12cb6 <eshift.part.0+0x40>
   12c9a:	87aa                	mv	a5,a0
   12c9c:	0027d703          	lhu	a4,2(a5)
   12ca0:	0789                	addi	a5,a5,2
   12ca2:	fee79f23          	sh	a4,-2(a5)
   12ca6:	fef69be3          	bne	a3,a5,12c9c <eshift.part.0+0x26>
   12caa:	00041c23          	sh	zero,24(s0)
   12cae:	3641                	addiw	a2,a2,-16
   12cb0:	fec5c5e3          	blt	a1,a2,12c9a <eshift.part.0+0x24>
   12cb4:	88bd                	andi	s1,s1,15
   12cb6:	479d                	li	a5,7
   12cb8:	0297d463          	bge	a5,s1,12ce0 <eshift.part.0+0x6a>
   12cbc:	01840713          	addi	a4,s0,24
   12cc0:	00240593          	addi	a1,s0,2
   12cc4:	4781                	li	a5,0
   12cc6:	00075683          	lhu	a3,0(a4)
   12cca:	1779                	addi	a4,a4,-2
   12ccc:	0086961b          	slliw	a2,a3,0x8
   12cd0:	8fd1                	or	a5,a5,a2
   12cd2:	00f71123          	sh	a5,2(a4)
   12cd6:	0086d793          	srli	a5,a3,0x8
   12cda:	feb716e3          	bne	a4,a1,12cc6 <eshift.part.0+0x50>
   12cde:	34e1                	addiw	s1,s1,-8
   12ce0:	c491                	beqz	s1,12cec <eshift.part.0+0x76>
   12ce2:	34fd                	addiw	s1,s1,-1
   12ce4:	8522                	mv	a0,s0
   12ce6:	d55ff0ef          	jal	ra,12a3a <eshup1>
   12cea:	fce5                	bnez	s1,12ce2 <eshift.part.0+0x6c>
   12cec:	4501                	li	a0,0
   12cee:	70a2                	ld	ra,40(sp)
   12cf0:	7402                	ld	s0,32(sp)
   12cf2:	64e2                	ld	s1,24(sp)
   12cf4:	6942                	ld	s2,16(sp)
   12cf6:	69a2                	ld	s3,8(sp)
   12cf8:	6145                	addi	sp,sp,48
   12cfa:	8082                	ret
   12cfc:	57c5                	li	a5,-15
   12cfe:	40b0093b          	negw	s2,a1
   12d02:	4981                	li	s3,0
   12d04:	01850593          	addi	a1,a0,24
   12d08:	00450693          	addi	a3,a0,4
   12d0c:	463d                	li	a2,15
   12d0e:	0af4d463          	bge	s1,a5,12db6 <eshift.part.0+0x140>
   12d12:	01845703          	lhu	a4,24(s0)
   12d16:	87ae                	mv	a5,a1
   12d18:	00e9e9b3          	or	s3,s3,a4
   12d1c:	ffe7d703          	lhu	a4,-2(a5)
   12d20:	17f9                	addi	a5,a5,-2
   12d22:	00e79123          	sh	a4,2(a5)
   12d26:	fed79be3          	bne	a5,a3,12d1c <eshift.part.0+0xa6>
   12d2a:	00041223          	sh	zero,4(s0)
   12d2e:	3941                	addiw	s2,s2,-16
   12d30:	ff2641e3          	blt	a2,s2,12d12 <eshift.part.0+0x9c>
   12d34:	5941                	li	s2,-16
   12d36:	5745                	li	a4,-15
   12d38:	4099093b          	subw	s2,s2,s1
   12d3c:	4781                	li	a5,0
   12d3e:	06e4c763          	blt	s1,a4,12dac <eshift.part.0+0x136>
   12d42:	00f9093b          	addw	s2,s2,a5
   12d46:	479d                	li	a5,7
   12d48:	0327d963          	bge	a5,s2,12d7a <eshift.part.0+0x104>
   12d4c:	01844783          	lbu	a5,24(s0)
   12d50:	01a40593          	addi	a1,s0,26
   12d54:	00f9e9b3          	or	s3,s3,a5
   12d58:	4781                	li	a5,0
   12d5a:	0006d703          	lhu	a4,0(a3)
   12d5e:	0689                	addi	a3,a3,2
   12d60:	0087561b          	srliw	a2,a4,0x8
   12d64:	8fd1                	or	a5,a5,a2
   12d66:	0087171b          	slliw	a4,a4,0x8
   12d6a:	fef69f23          	sh	a5,-2(a3)
   12d6e:	03071793          	slli	a5,a4,0x30
   12d72:	93c1                	srli	a5,a5,0x30
   12d74:	feb693e3          	bne	a3,a1,12d5a <eshift.part.0+0xe4>
   12d78:	3961                	addiw	s2,s2,-8
   12d7a:	01303533          	snez	a0,s3
   12d7e:	f60908e3          	beqz	s2,12cee <eshift.part.0+0x78>
   12d82:	01845783          	lhu	a5,24(s0)
   12d86:	397d                	addiw	s2,s2,-1
   12d88:	8522                	mv	a0,s0
   12d8a:	8b85                	andi	a5,a5,1
   12d8c:	00f9e9b3          	or	s3,s3,a5
   12d90:	c6dff0ef          	jal	ra,129fc <eshdn1>
   12d94:	fe0917e3          	bnez	s2,12d82 <eshift.part.0+0x10c>
   12d98:	70a2                	ld	ra,40(sp)
   12d9a:	7402                	ld	s0,32(sp)
   12d9c:	2981                	sext.w	s3,s3
   12d9e:	64e2                	ld	s1,24(sp)
   12da0:	6942                	ld	s2,16(sp)
   12da2:	01303533          	snez	a0,s3
   12da6:	69a2                	ld	s3,8(sp)
   12da8:	6145                	addi	sp,sp,48
   12daa:	8082                	ret
   12dac:	ff097793          	andi	a5,s2,-16
   12db0:	40f007bb          	negw	a5,a5
   12db4:	b779                	j	12d42 <eshift.part.0+0xcc>
   12db6:	57e5                	li	a5,-7
   12db8:	f8f4cae3          	blt	s1,a5,12d4c <eshift.part.0+0xd6>
   12dbc:	b7d9                	j	12d82 <eshift.part.0+0x10c>

0000000000012dbe <emovi>:
   12dbe:	01255783          	lhu	a5,18(a0)
   12dc2:	66a1                	lui	a3,0x8
   12dc4:	16fd                	addi	a3,a3,-1 # 7fff <exit-0x80e9>
   12dc6:	00f7d79b          	srliw	a5,a5,0xf
   12dca:	40f007bb          	negw	a5,a5
   12dce:	00f59023          	sh	a5,0(a1)
   12dd2:	01255703          	lhu	a4,18(a0)
   12dd6:	01050793          	addi	a5,a0,16
   12dda:	8f75                	and	a4,a4,a3
   12ddc:	00e59123          	sh	a4,2(a1)
   12de0:	0007061b          	sext.w	a2,a4
   12de4:	02d70263          	beq	a4,a3,12e08 <emovi+0x4a>
   12de8:	00658713          	addi	a4,a1,6
   12dec:	00059223          	sh	zero,4(a1)
   12df0:	1579                	addi	a0,a0,-2
   12df2:	0007d683          	lhu	a3,0(a5)
   12df6:	17f9                	addi	a5,a5,-2
   12df8:	0709                	addi	a4,a4,2
   12dfa:	fed71f23          	sh	a3,-2(a4)
   12dfe:	fea79ae3          	bne	a5,a0,12df2 <emovi+0x34>
   12e02:	00059c23          	sh	zero,24(a1)
   12e06:	8082                	ret
   12e08:	01255703          	lhu	a4,18(a0)
   12e0c:	8f71                	and	a4,a4,a2
   12e0e:	00c71b63          	bne	a4,a2,12e24 <emovi+0x66>
   12e12:	01250613          	addi	a2,a0,18
   12e16:	872a                	mv	a4,a0
   12e18:	00075683          	lhu	a3,0(a4)
   12e1c:	0709                	addi	a4,a4,2
   12e1e:	ee81                	bnez	a3,12e36 <emovi+0x78>
   12e20:	fec71ce3          	bne	a4,a2,12e18 <emovi+0x5a>
   12e24:	00458793          	addi	a5,a1,4
   12e28:	05e9                	addi	a1,a1,26
   12e2a:	0789                	addi	a5,a5,2
   12e2c:	fe079f23          	sh	zero,-2(a5)
   12e30:	feb79de3          	bne	a5,a1,12e2a <emovi+0x6c>
   12e34:	8082                	ret
   12e36:	00658713          	addi	a4,a1,6
   12e3a:	00059223          	sh	zero,4(a1)
   12e3e:	1571                	addi	a0,a0,-4
   12e40:	0007d683          	lhu	a3,0(a5)
   12e44:	17f9                	addi	a5,a5,-2
   12e46:	0709                	addi	a4,a4,2
   12e48:	fed71f23          	sh	a3,-2(a4)
   12e4c:	fef51ae3          	bne	a0,a5,12e40 <emovi+0x82>
   12e50:	8082                	ret

0000000000012e52 <ecmp>:
   12e52:	01255783          	lhu	a5,18(a0)
   12e56:	715d                	addi	sp,sp,-80
   12e58:	e0a2                	sd	s0,64(sp)
   12e5a:	fff7c793          	not	a5,a5
   12e5e:	e486                	sd	ra,72(sp)
   12e60:	03179713          	slli	a4,a5,0x31
   12e64:	842e                	mv	s0,a1
   12e66:	eb11                	bnez	a4,12e7a <ecmp+0x28>
   12e68:	01250693          	addi	a3,a0,18
   12e6c:	87aa                	mv	a5,a0
   12e6e:	0007d703          	lhu	a4,0(a5)
   12e72:	0789                	addi	a5,a5,2
   12e74:	eb25                	bnez	a4,12ee4 <ecmp+0x92>
   12e76:	fed79ce3          	bne	a5,a3,12e6e <ecmp+0x1c>
   12e7a:	01245783          	lhu	a5,18(s0)
   12e7e:	fff7c793          	not	a5,a5
   12e82:	03179713          	slli	a4,a5,0x31
   12e86:	c331                	beqz	a4,12eca <ecmp+0x78>
   12e88:	858a                	mv	a1,sp
   12e8a:	f35ff0ef          	jal	ra,12dbe <emovi>
   12e8e:	100c                	addi	a1,sp,32
   12e90:	8522                	mv	a0,s0
   12e92:	f2dff0ef          	jal	ra,12dbe <emovi>
   12e96:	00015583          	lhu	a1,0(sp)
   12e9a:	02015783          	lhu	a5,32(sp)
   12e9e:	04b78863          	beq	a5,a1,12eee <ecmp+0x9c>
   12ea2:	00210793          	addi	a5,sp,2
   12ea6:	02210713          	addi	a4,sp,34
   12eaa:	0830                	addi	a2,sp,24
   12eac:	0007d683          	lhu	a3,0(a5)
   12eb0:	0789                	addi	a5,a5,2
   12eb2:	eab5                	bnez	a3,12f26 <ecmp+0xd4>
   12eb4:	00075683          	lhu	a3,0(a4)
   12eb8:	0709                	addi	a4,a4,2
   12eba:	e6b5                	bnez	a3,12f26 <ecmp+0xd4>
   12ebc:	fef618e3          	bne	a2,a5,12eac <ecmp+0x5a>
   12ec0:	4501                	li	a0,0
   12ec2:	60a6                	ld	ra,72(sp)
   12ec4:	6406                	ld	s0,64(sp)
   12ec6:	6161                	addi	sp,sp,80
   12ec8:	8082                	ret
   12eca:	87a2                	mv	a5,s0
   12ecc:	0007d703          	lhu	a4,0(a5)
   12ed0:	01240693          	addi	a3,s0,18
   12ed4:	0789                	addi	a5,a5,2
   12ed6:	e719                	bnez	a4,12ee4 <ecmp+0x92>
   12ed8:	fad788e3          	beq	a5,a3,12e88 <ecmp+0x36>
   12edc:	0007d703          	lhu	a4,0(a5)
   12ee0:	0789                	addi	a5,a5,2
   12ee2:	db7d                	beqz	a4,12ed8 <ecmp+0x86>
   12ee4:	60a6                	ld	ra,72(sp)
   12ee6:	6406                	ld	s0,64(sp)
   12ee8:	5579                	li	a0,-2
   12eea:	6161                	addi	sp,sp,80
   12eec:	8082                	ret
   12eee:	557d                	li	a0,-1
   12ef0:	c1a9                	beqz	a1,12f32 <ecmp+0xe0>
   12ef2:	878a                	mv	a5,sp
   12ef4:	0007d603          	lhu	a2,0(a5)
   12ef8:	02015683          	lhu	a3,32(sp)
   12efc:	1018                	addi	a4,sp,32
   12efe:	082c                	addi	a1,sp,24
   12f00:	0789                	addi	a5,a5,2
   12f02:	0709                	addi	a4,a4,2
   12f04:	00d61c63          	bne	a2,a3,12f1c <ecmp+0xca>
   12f08:	fab78ce3          	beq	a5,a1,12ec0 <ecmp+0x6e>
   12f0c:	0007d603          	lhu	a2,0(a5)
   12f10:	00075683          	lhu	a3,0(a4)
   12f14:	0789                	addi	a5,a5,2
   12f16:	0709                	addi	a4,a4,2
   12f18:	fed608e3          	beq	a2,a3,12f08 <ecmp+0xb6>
   12f1c:	fac6e3e3          	bltu	a3,a2,12ec2 <ecmp+0x70>
   12f20:	40a0053b          	negw	a0,a0
   12f24:	bf79                	j	12ec2 <ecmp+0x70>
   12f26:	e981                	bnez	a1,12f36 <ecmp+0xe4>
   12f28:	60a6                	ld	ra,72(sp)
   12f2a:	6406                	ld	s0,64(sp)
   12f2c:	4505                	li	a0,1
   12f2e:	6161                	addi	sp,sp,80
   12f30:	8082                	ret
   12f32:	4505                	li	a0,1
   12f34:	bf7d                	j	12ef2 <ecmp+0xa0>
   12f36:	557d                	li	a0,-1
   12f38:	b769                	j	12ec2 <ecmp+0x70>

0000000000012f3a <emdnorm>:
   12f3a:	7139                	addi	sp,sp,-64
   12f3c:	f822                	sd	s0,48(sp)
   12f3e:	f426                	sd	s1,40(sp)
   12f40:	f04a                	sd	s2,32(sp)
   12f42:	ec4e                	sd	s3,24(sp)
   12f44:	e852                	sd	s4,16(sp)
   12f46:	e456                	sd	s5,8(sp)
   12f48:	8936                	mv	s2,a3
   12f4a:	843e                	mv	s0,a5
   12f4c:	fc06                	sd	ra,56(sp)
   12f4e:	84aa                	mv	s1,a0
   12f50:	89ae                	mv	s3,a1
   12f52:	8a32                	mv	s4,a2
   12f54:	8aba                	mv	s5,a4
   12f56:	c15ff0ef          	jal	ra,12b6a <enormlz>
   12f5a:	09000793          	li	a5,144
   12f5e:	40a90933          	sub	s2,s2,a0
   12f62:	12a7d863          	bge	a5,a0,13092 <emdnorm+0x158>
   12f66:	67a1                	lui	a5,0x8
   12f68:	17f9                	addi	a5,a5,-2 # 7ffe <exit-0x80ea>
   12f6a:	2327dd63          	bge	a5,s2,131a4 <emdnorm+0x26a>
   12f6e:	1a0a8c63          	beqz	s5,13126 <emdnorm+0x1ec>
   12f72:	00442a83          	lw	s5,4(s0)
   12f76:	401c                	lw	a5,0(s0)
   12f78:	20fa8363          	beq	s5,a5,1317e <emdnorm+0x244>
   12f7c:	01a40713          	addi	a4,s0,26
   12f80:	03440793          	addi	a5,s0,52
   12f84:	0709                	addi	a4,a4,2
   12f86:	fe071f23          	sh	zero,-2(a4)
   12f8a:	fee79de3          	bne	a5,a4,12f84 <emdnorm+0x4a>
   12f8e:	03800793          	li	a5,56
   12f92:	2afa8f63          	beq	s5,a5,13250 <emdnorm+0x316>
   12f96:	1557d663          	bge	a5,s5,130e2 <emdnorm+0x1a8>
   12f9a:	04000793          	li	a5,64
   12f9e:	20fa8c63          	beq	s5,a5,131b6 <emdnorm+0x27c>
   12fa2:	07100793          	li	a5,113
   12fa6:	2cfa9d63          	bne	s5,a5,13280 <emdnorm+0x346>
   12faa:	400087b7          	lui	a5,0x40008
   12fae:	46a9                	li	a3,10
   12fb0:	7761                	lui	a4,0xffff8
   12fb2:	17fd                	addi	a5,a5,-1 # 40007fff <__BSS_END__+0x3ffe888f>
   12fb4:	c414                	sw	a3,8(s0)
   12fb6:	c85c                	sw	a5,20(s0)
   12fb8:	00e41c23          	sh	a4,24(s0)
   12fbc:	c454                	sw	a3,12(s0)
   12fbe:	02e41723          	sh	a4,46(s0)
   12fc2:	01542023          	sw	s5,0(s0)
   12fc6:	1b205263          	blez	s2,1316a <emdnorm+0x230>
   12fca:	0144d603          	lhu	a2,20(s1)
   12fce:	01448593          	addi	a1,s1,20
   12fd2:	47ad                	li	a5,11
   12fd4:	1646                	slli	a2,a2,0x31
   12fd6:	9245                	srli	a2,a2,0x31
   12fd8:	4731                	li	a4,12
   12fda:	9f1d                	subw	a4,a4,a5
   12fdc:	1702                	slli	a4,a4,0x20
   12fde:	9301                	srli	a4,a4,0x20
   12fe0:	973e                	add	a4,a4,a5
   12fe2:	0706                	slli	a4,a4,0x1
   12fe4:	0786                	slli	a5,a5,0x1
   12fe6:	00248693          	addi	a3,s1,2
   12fea:	97a6                	add	a5,a5,s1
   12fec:	9736                	add	a4,a4,a3
   12fee:	0007d683          	lhu	a3,0(a5)
   12ff2:	c299                	beqz	a3,12ff8 <emdnorm+0xbe>
   12ff4:	00166613          	ori	a2,a2,1
   12ff8:	00079023          	sh	zero,0(a5)
   12ffc:	0789                	addi	a5,a5,2
   12ffe:	fef718e3          	bne	a4,a5,12fee <emdnorm+0xb4>
   13002:	0005d703          	lhu	a4,0(a1)
   13006:	01445683          	lhu	a3,20(s0)
   1300a:	fff6c693          	not	a3,a3
   1300e:	8f75                	and	a4,a4,a3
   13010:	00e59023          	sh	a4,0(a1)
   13014:	01645783          	lhu	a5,22(s0)
   13018:	00c7f733          	and	a4,a5,a2
   1301c:	c721                	beqz	a4,13064 <emdnorm+0x12a>
   1301e:	00c79d63          	bne	a5,a2,13038 <emdnorm+0xfe>
   13022:	22099463          	bnez	s3,1324a <emdnorm+0x310>
   13026:	445c                	lw	a5,12(s0)
   13028:	01845703          	lhu	a4,24(s0)
   1302c:	0786                	slli	a5,a5,0x1
   1302e:	97a6                	add	a5,a5,s1
   13030:	0007d783          	lhu	a5,0(a5)
   13034:	8ff9                	and	a5,a5,a4
   13036:	c79d                	beqz	a5,13064 <emdnorm+0x12a>
   13038:	03240793          	addi	a5,s0,50
   1303c:	01848613          	addi	a2,s1,24
   13040:	00248513          	addi	a0,s1,2
   13044:	4581                	li	a1,0
   13046:	0007d703          	lhu	a4,0(a5)
   1304a:	00065683          	lhu	a3,0(a2)
   1304e:	1679                	addi	a2,a2,-2
   13050:	17f9                	addi	a5,a5,-2
   13052:	9736                	add	a4,a4,a3
   13054:	972e                	add	a4,a4,a1
   13056:	01075593          	srli	a1,a4,0x10
   1305a:	00e61123          	sh	a4,2(a2)
   1305e:	8985                	andi	a1,a1,1
   13060:	fec513e3          	bne	a0,a2,13046 <emdnorm+0x10c>
   13064:	1b205a63          	blez	s2,13218 <emdnorm+0x2de>
   13068:	0044d783          	lhu	a5,4(s1)
   1306c:	18079b63          	bnez	a5,13202 <emdnorm+0x2c8>
   13070:	67a1                	lui	a5,0x8
   13072:	00049c23          	sh	zero,24(s1)
   13076:	17f9                	addi	a5,a5,-2 # 7ffe <exit-0x80ea>
   13078:	0b27c963          	blt	a5,s2,1312a <emdnorm+0x1f0>
   1307c:	01249123          	sh	s2,2(s1)
   13080:	70e2                	ld	ra,56(sp)
   13082:	7442                	ld	s0,48(sp)
   13084:	74a2                	ld	s1,40(sp)
   13086:	7902                	ld	s2,32(sp)
   13088:	69e2                	ld	s3,24(sp)
   1308a:	6a42                	ld	s4,16(sp)
   1308c:	6aa2                	ld	s5,8(sp)
   1308e:	6121                	addi	sp,sp,64
   13090:	8082                	ret
   13092:	02094b63          	bltz	s2,130c8 <emdnorm+0x18e>
   13096:	fc0a8de3          	beqz	s5,13070 <emdnorm+0x136>
   1309a:	00442a83          	lw	s5,4(s0)
   1309e:	401c                	lw	a5,0(s0)
   130a0:	ecfa9ee3          	bne	s5,a5,12f7c <emdnorm+0x42>
   130a4:	23204263          	bgtz	s2,132c8 <emdnorm+0x38e>
   130a8:	09000713          	li	a4,144
   130ac:	22e79063          	bne	a5,a4,132cc <emdnorm+0x392>
   130b0:	440c                	lw	a1,8(s0)
   130b2:	01445683          	lhu	a3,20(s0)
   130b6:	09000a93          	li	s5,144
   130ba:	0586                	slli	a1,a1,0x1
   130bc:	95a6                	add	a1,a1,s1
   130be:	0005d703          	lhu	a4,0(a1)
   130c2:	00d77633          	and	a2,a4,a3
   130c6:	b791                	j	1300a <emdnorm+0xd0>
   130c8:	f7000793          	li	a5,-144
   130cc:	10f95c63          	bge	s2,a5,131e4 <emdnorm+0x2aa>
   130d0:	00248793          	addi	a5,s1,2
   130d4:	04e9                	addi	s1,s1,26
   130d6:	0789                	addi	a5,a5,2
   130d8:	fe079f23          	sh	zero,-2(a5)
   130dc:	fe979de3          	bne	a5,s1,130d6 <emdnorm+0x19c>
   130e0:	b745                	j	13080 <emdnorm+0x146>
   130e2:	47e1                	li	a5,24
   130e4:	06fa8163          	beq	s5,a5,13146 <emdnorm+0x20c>
   130e8:	03500793          	li	a5,53
   130ec:	18fa9a63          	bne	s5,a5,13280 <emdnorm+0x346>
   130f0:	6785                	lui	a5,0x1
   130f2:	04000737          	lui	a4,0x4000
   130f6:	4699                	li	a3,6
   130f8:	80078793          	addi	a5,a5,-2048 # 800 <exit-0xf8e8>
   130fc:	7ff70713          	addi	a4,a4,2047 # 40007ff <__BSS_END__+0x3fe108f>
   13100:	c414                	sw	a3,8(s0)
   13102:	c858                	sw	a4,20(s0)
   13104:	00f41c23          	sh	a5,24(s0)
   13108:	c454                	sw	a3,12(s0)
   1310a:	02f41323          	sh	a5,38(s0)
   1310e:	01542023          	sw	s5,0(s0)
   13112:	05205c63          	blez	s2,1316a <emdnorm+0x230>
   13116:	00c4d603          	lhu	a2,12(s1)
   1311a:	00c48593          	addi	a1,s1,12
   1311e:	479d                	li	a5,7
   13120:	7ff67613          	andi	a2,a2,2047
   13124:	bd55                	j	12fd8 <emdnorm+0x9e>
   13126:	00049c23          	sh	zero,24(s1)
   1312a:	77e1                	lui	a5,0xffff8
   1312c:	fff7c793          	not	a5,a5
   13130:	00f49123          	sh	a5,2(s1)
   13134:	00448793          	addi	a5,s1,4
   13138:	04e1                	addi	s1,s1,24
   1313a:	00079023          	sh	zero,0(a5) # ffffffffffff8000 <__BSS_END__+0xfffffffffffd8890>
   1313e:	0789                	addi	a5,a5,2
   13140:	fe979de3          	bne	a5,s1,1313a <emdnorm+0x200>
   13144:	bf35                	j	13080 <emdnorm+0x146>
   13146:	008007b7          	lui	a5,0x800
   1314a:	4691                	li	a3,4
   1314c:	10000713          	li	a4,256
   13150:	0ff78793          	addi	a5,a5,255 # 8000ff <__BSS_END__+0x7e098f>
   13154:	c414                	sw	a3,8(s0)
   13156:	c85c                	sw	a5,20(s0)
   13158:	00e41c23          	sh	a4,24(s0)
   1315c:	c454                	sw	a3,12(s0)
   1315e:	02e41123          	sh	a4,34(s0)
   13162:	01542023          	sw	s5,0(s0)
   13166:	15204663          	bgtz	s2,132b2 <emdnorm+0x378>
   1316a:	0184d783          	lhu	a5,24(s1)
   1316e:	8526                	mv	a0,s1
   13170:	8b85                	andi	a5,a5,1
   13172:	00f9e7b3          	or	a5,s3,a5
   13176:	0007899b          	sext.w	s3,a5
   1317a:	883ff0ef          	jal	ra,129fc <eshdn1>
   1317e:	441c                	lw	a5,8(s0)
   13180:	01445683          	lhu	a3,20(s0)
   13184:	08f00513          	li	a0,143
   13188:	00179593          	slli	a1,a5,0x1
   1318c:	95a6                	add	a1,a1,s1
   1318e:	0005d703          	lhu	a4,0(a1)
   13192:	00d77633          	and	a2,a4,a3
   13196:	e7554ae3          	blt	a0,s5,1300a <emdnorm+0xd0>
   1319a:	2785                	addiw	a5,a5,1
   1319c:	4531                	li	a0,12
   1319e:	e2f55de3          	bge	a0,a5,12fd8 <emdnorm+0x9e>
   131a2:	b5a5                	j	1300a <emdnorm+0xd0>
   131a4:	00248793          	addi	a5,s1,2
   131a8:	04e9                	addi	s1,s1,26
   131aa:	0789                	addi	a5,a5,2
   131ac:	fe079f23          	sh	zero,-2(a5)
   131b0:	fe979de3          	bne	a5,s1,131aa <emdnorm+0x270>
   131b4:	b5f1                	j	13080 <emdnorm+0x146>
   131b6:	479d                	li	a5,7
   131b8:	c41c                	sw	a5,8(s0)
   131ba:	800107b7          	lui	a5,0x80010
   131be:	17fd                	addi	a5,a5,-1 # ffffffff8000ffff <__BSS_END__+0xffffffff7fff088f>
   131c0:	4705                	li	a4,1
   131c2:	c85c                	sw	a5,20(s0)
   131c4:	4799                	li	a5,6
   131c6:	00e41c23          	sh	a4,24(s0)
   131ca:	c45c                	sw	a5,12(s0)
   131cc:	02e41323          	sh	a4,38(s0)
   131d0:	01542023          	sw	s5,0(s0)
   131d4:	f9205be3          	blez	s2,1316a <emdnorm+0x230>
   131d8:	00e4d603          	lhu	a2,14(s1)
   131dc:	00e48593          	addi	a1,s1,14
   131e0:	47a1                	li	a5,8
   131e2:	bbdd                	j	12fd8 <emdnorm+0x9e>
   131e4:	0009059b          	sext.w	a1,s2
   131e8:	8526                	mv	a0,s1
   131ea:	a8dff0ef          	jal	ra,12c76 <eshift.part.0>
   131ee:	c955                	beqz	a0,132a2 <emdnorm+0x368>
   131f0:	0c0a8763          	beqz	s5,132be <emdnorm+0x384>
   131f4:	00442a83          	lw	s5,4(s0)
   131f8:	401c                	lw	a5,0(s0)
   131fa:	4985                	li	s3,1
   131fc:	d8fa90e3          	bne	s5,a5,12f7c <emdnorm+0x42>
   13200:	b565                	j	130a8 <emdnorm+0x16e>
   13202:	8526                	mv	a0,s1
   13204:	ff8ff0ef          	jal	ra,129fc <eshdn1>
   13208:	67a1                	lui	a5,0x8
   1320a:	0905                	addi	s2,s2,1
   1320c:	00049c23          	sh	zero,24(s1)
   13210:	17f9                	addi	a5,a5,-2 # 7ffe <exit-0x80ea>
   13212:	f127cce3          	blt	a5,s2,1312a <emdnorm+0x1f0>
   13216:	b59d                	j	1307c <emdnorm+0x142>
   13218:	09000793          	li	a5,144
   1321c:	00fa8f63          	beq	s5,a5,1323a <emdnorm+0x300>
   13220:	8526                	mv	a0,s1
   13222:	819ff0ef          	jal	ra,12a3a <eshup1>
   13226:	0044d783          	lhu	a5,4(s1)
   1322a:	eb99                	bnez	a5,13240 <emdnorm+0x306>
   1322c:	00049c23          	sh	zero,24(s1)
   13230:	e40956e3          	bgez	s2,1307c <emdnorm+0x142>
   13234:	00049123          	sh	zero,2(s1)
   13238:	b5a1                	j	13080 <emdnorm+0x146>
   1323a:	0044d783          	lhu	a5,4(s1)
   1323e:	d7fd                	beqz	a5,1322c <emdnorm+0x2f2>
   13240:	8526                	mv	a0,s1
   13242:	fbaff0ef          	jal	ra,129fc <eshdn1>
   13246:	0905                	addi	s2,s2,1
   13248:	b7d5                	j	1322c <emdnorm+0x2f2>
   1324a:	de0a07e3          	beqz	s4,13038 <emdnorm+0xfe>
   1324e:	bd19                	j	13064 <emdnorm+0x12a>
   13250:	008007b7          	lui	a5,0x800
   13254:	4699                	li	a3,6
   13256:	10000713          	li	a4,256
   1325a:	0ff78793          	addi	a5,a5,255 # 8000ff <__BSS_END__+0x7e098f>
   1325e:	c414                	sw	a3,8(s0)
   13260:	c85c                	sw	a5,20(s0)
   13262:	00e41c23          	sh	a4,24(s0)
   13266:	c454                	sw	a3,12(s0)
   13268:	02e41323          	sh	a4,38(s0)
   1326c:	01542023          	sw	s5,0(s0)
   13270:	ef205de3          	blez	s2,1316a <emdnorm+0x230>
   13274:	00c4c603          	lbu	a2,12(s1)
   13278:	00c48593          	addi	a1,s1,12
   1327c:	479d                	li	a5,7
   1327e:	bba9                	j	12fd8 <emdnorm+0x9e>
   13280:	47b1                	li	a5,12
   13282:	c41c                	sw	a5,8(s0)
   13284:	800107b7          	lui	a5,0x80010
   13288:	17fd                	addi	a5,a5,-1 # ffffffff8000ffff <__BSS_END__+0xffffffff7fff088f>
   1328a:	4705                	li	a4,1
   1328c:	c85c                	sw	a5,20(s0)
   1328e:	47ad                	li	a5,11
   13290:	c45c                	sw	a5,12(s0)
   13292:	00e41c23          	sh	a4,24(s0)
   13296:	02e41823          	sh	a4,48(s0)
   1329a:	01542023          	sw	s5,0(s0)
   1329e:	87d6                	mv	a5,s5
   132a0:	b511                	j	130a4 <emdnorm+0x16a>
   132a2:	000a8e63          	beqz	s5,132be <emdnorm+0x384>
   132a6:	00442a83          	lw	s5,4(s0)
   132aa:	401c                	lw	a5,0(s0)
   132ac:	ccfa98e3          	bne	s5,a5,12f7c <emdnorm+0x42>
   132b0:	bbe5                	j	130a8 <emdnorm+0x16e>
   132b2:	0084c603          	lbu	a2,8(s1)
   132b6:	00848593          	addi	a1,s1,8
   132ba:	4795                	li	a5,5
   132bc:	bb31                	j	12fd8 <emdnorm+0x9e>
   132be:	00049c23          	sh	zero,24(s1)
   132c2:	00049123          	sh	zero,2(s1)
   132c6:	bb6d                	j	13080 <emdnorm+0x146>
   132c8:	8abe                	mv	s5,a5
   132ca:	bd55                	j	1317e <emdnorm+0x244>
   132cc:	8abe                	mv	s5,a5
   132ce:	bd71                	j	1316a <emdnorm+0x230>

00000000000132d0 <eiremain>:
   132d0:	711d                	addi	sp,sp,-96
   132d2:	e0ca                	sd	s2,64(sp)
   132d4:	fc4e                	sd	s3,56(sp)
   132d6:	892e                	mv	s2,a1
   132d8:	00255983          	lhu	s3,2(a0)
   132dc:	ec86                	sd	ra,88(sp)
   132de:	e8a2                	sd	s0,80(sp)
   132e0:	e4a6                	sd	s1,72(sp)
   132e2:	f852                	sd	s4,48(sp)
   132e4:	84b2                	mv	s1,a2
   132e6:	ec5e                	sd	s7,24(sp)
   132e8:	f456                	sd	s5,40(sp)
   132ea:	f05a                	sd	s6,32(sp)
   132ec:	e862                	sd	s8,16(sp)
   132ee:	e466                	sd	s9,8(sp)
   132f0:	e06a                	sd	s10,0(sp)
   132f2:	8baa                	mv	s7,a0
   132f4:	877ff0ef          	jal	ra,12b6a <enormlz>
   132f8:	00295403          	lhu	s0,2(s2)
   132fc:	87aa                	mv	a5,a0
   132fe:	854a                	mv	a0,s2
   13300:	40f989b3          	sub	s3,s3,a5
   13304:	03448a13          	addi	s4,s1,52
   13308:	863ff0ef          	jal	ra,12b6a <enormlz>
   1330c:	8c09                	sub	s0,s0,a0
   1330e:	04e48713          	addi	a4,s1,78
   13312:	87d2                	mv	a5,s4
   13314:	0789                	addi	a5,a5,2
   13316:	fe079f23          	sh	zero,-2(a5)
   1331a:	fee79de3          	bne	a5,a4,13314 <eiremain+0x44>
   1331e:	07344a63          	blt	s0,s3,13392 <eiremain+0xc2>
   13322:	004b8b13          	addi	s6,s7,4
   13326:	00490a93          	addi	s5,s2,4
   1332a:	01ab8c13          	addi	s8,s7,26
   1332e:	00290d13          	addi	s10,s2,2
   13332:	8756                	mv	a4,s5
   13334:	87da                	mv	a5,s6
   13336:	0007d603          	lhu	a2,0(a5)
   1333a:	00075683          	lhu	a3,0(a4)
   1333e:	0789                	addi	a5,a5,2
   13340:	0709                	addi	a4,a4,2
   13342:	06d61c63          	bne	a2,a3,133ba <eiremain+0xea>
   13346:	fefc18e3          	bne	s8,a5,13336 <eiremain+0x66>
   1334a:	018b8613          	addi	a2,s7,24
   1334e:	01890713          	addi	a4,s2,24
   13352:	4681                	li	a3,0
   13354:	00075783          	lhu	a5,0(a4)
   13358:	00065583          	lhu	a1,0(a2)
   1335c:	1779                	addi	a4,a4,-2
   1335e:	1679                	addi	a2,a2,-2
   13360:	8f8d                	sub	a5,a5,a1
   13362:	8f95                	sub	a5,a5,a3
   13364:	0107d693          	srli	a3,a5,0x10
   13368:	00f71123          	sh	a5,2(a4)
   1336c:	8a85                	andi	a3,a3,1
   1336e:	ffa713e3          	bne	a4,s10,13354 <eiremain+0x84>
   13372:	4c85                	li	s9,1
   13374:	8552                	mv	a0,s4
   13376:	ec4ff0ef          	jal	ra,12a3a <eshup1>
   1337a:	04c4d783          	lhu	a5,76(s1)
   1337e:	147d                	addi	s0,s0,-1
   13380:	854a                	mv	a0,s2
   13382:	00fce7b3          	or	a5,s9,a5
   13386:	04f49623          	sh	a5,76(s1)
   1338a:	eb0ff0ef          	jal	ra,12a3a <eshup1>
   1338e:	fb3452e3          	bge	s0,s3,13332 <eiremain+0x62>
   13392:	86a2                	mv	a3,s0
   13394:	6446                	ld	s0,80(sp)
   13396:	60e6                	ld	ra,88(sp)
   13398:	79e2                	ld	s3,56(sp)
   1339a:	7a42                	ld	s4,48(sp)
   1339c:	7aa2                	ld	s5,40(sp)
   1339e:	7b02                	ld	s6,32(sp)
   133a0:	6be2                	ld	s7,24(sp)
   133a2:	6c42                	ld	s8,16(sp)
   133a4:	6ca2                	ld	s9,8(sp)
   133a6:	6d02                	ld	s10,0(sp)
   133a8:	87a6                	mv	a5,s1
   133aa:	854a                	mv	a0,s2
   133ac:	64a6                	ld	s1,72(sp)
   133ae:	6906                	ld	s2,64(sp)
   133b0:	4701                	li	a4,0
   133b2:	4601                	li	a2,0
   133b4:	4581                	li	a1,0
   133b6:	6125                	addi	sp,sp,96
   133b8:	b649                	j	12f3a <emdnorm>
   133ba:	4c81                	li	s9,0
   133bc:	fac6ece3          	bltu	a3,a2,13374 <eiremain+0xa4>
   133c0:	b769                	j	1334a <eiremain+0x7a>

00000000000133c2 <e113toe.isra.0>:
   133c2:	7179                	addi	sp,sp,-48
   133c4:	f022                	sd	s0,32(sp)
   133c6:	f406                	sd	ra,40(sp)
   133c8:	842e                	mv	s0,a1
   133ca:	878a                	mv	a5,sp
   133cc:	01a10713          	addi	a4,sp,26
   133d0:	0789                	addi	a5,a5,2
   133d2:	fe079f23          	sh	zero,-2(a5)
   133d6:	fee79de3          	bne	a5,a4,133d0 <e113toe.isra.0+0xe>
   133da:	00e55783          	lhu	a5,14(a0)
   133de:	6721                	lui	a4,0x8
   133e0:	177d                	addi	a4,a4,-1 # 7fff <exit-0x80e9>
   133e2:	03079693          	slli	a3,a5,0x30
   133e6:	96fd                	srai	a3,a3,0x3f
   133e8:	00d11023          	sh	a3,0(sp)
   133ec:	00e7f6b3          	and	a3,a5,a4
   133f0:	8636                	mv	a2,a3
   133f2:	04e68363          	beq	a3,a4,13438 <e113toe.isra.0+0x76>
   133f6:	00e50793          	addi	a5,a0,14
   133fa:	00d11123          	sh	a3,2(sp)
   133fe:	00610713          	addi	a4,sp,6
   13402:	ffe7d683          	lhu	a3,-2(a5)
   13406:	17f9                	addi	a5,a5,-2
   13408:	0709                	addi	a4,a4,2
   1340a:	fed71f23          	sh	a3,-2(a4)
   1340e:	fef51ae3          	bne	a0,a5,13402 <e113toe.isra.0+0x40>
   13412:	ea19                	bnez	a2,13428 <e113toe.isra.0+0x66>
   13414:	00011223          	sh	zero,4(sp)
   13418:	85a2                	mv	a1,s0
   1341a:	850a                	mv	a0,sp
   1341c:	ec2ff0ef          	jal	ra,12ade <emovo.constprop.0>
   13420:	70a2                	ld	ra,40(sp)
   13422:	7402                	ld	s0,32(sp)
   13424:	6145                	addi	sp,sp,48
   13426:	8082                	ret
   13428:	4785                	li	a5,1
   1342a:	55fd                	li	a1,-1
   1342c:	850a                	mv	a0,sp
   1342e:	00f11223          	sh	a5,4(sp)
   13432:	845ff0ef          	jal	ra,12c76 <eshift.part.0>
   13436:	b7cd                	j	13418 <e113toe.isra.0+0x56>
   13438:	87aa                	mv	a5,a0
   1343a:	00e50693          	addi	a3,a0,14
   1343e:	0007d703          	lhu	a4,0(a5)
   13442:	0789                	addi	a5,a5,2
   13444:	ef21                	bnez	a4,1349c <e113toe.isra.0+0xda>
   13446:	fed79ce3          	bne	a5,a3,1343e <e113toe.isra.0+0x7c>
   1344a:	01440713          	addi	a4,s0,20
   1344e:	87a2                	mv	a5,s0
   13450:	0789                	addi	a5,a5,2
   13452:	fe079f23          	sh	zero,-2(a5)
   13456:	fee79de3          	bne	a5,a4,13450 <e113toe.isra.0+0x8e>
   1345a:	01240713          	addi	a4,s0,18
   1345e:	87a2                	mv	a5,s0
   13460:	0789                	addi	a5,a5,2
   13462:	fe079f23          	sh	zero,-2(a5)
   13466:	fee79de3          	bne	a5,a4,13460 <e113toe.isra.0+0x9e>
   1346a:	01245783          	lhu	a5,18(s0)
   1346e:	66a1                	lui	a3,0x8
   13470:	16fd                	addi	a3,a3,-1 # 7fff <exit-0x80e9>
   13472:	8fd5                	or	a5,a5,a3
   13474:	17c2                	slli	a5,a5,0x30
   13476:	93c1                	srli	a5,a5,0x30
   13478:	00f41923          	sh	a5,18(s0)
   1347c:	00e51683          	lh	a3,14(a0)
   13480:	fa06d0e3          	bgez	a3,13420 <e113toe.isra.0+0x5e>
   13484:	86a2                	mv	a3,s0
   13486:	0006d603          	lhu	a2,0(a3)
   1348a:	0689                	addi	a3,a3,2
   1348c:	fa51                	bnez	a2,13420 <e113toe.isra.0+0x5e>
   1348e:	fee69ce3          	bne	a3,a4,13486 <e113toe.isra.0+0xc4>
   13492:	7761                	lui	a4,0xffff8
   13494:	8fb9                	xor	a5,a5,a4
   13496:	00f41923          	sh	a5,18(s0)
   1349a:	b759                	j	13420 <e113toe.isra.0+0x5e>
   1349c:	01040713          	addi	a4,s0,16
   134a0:	87a2                	mv	a5,s0
   134a2:	0789                	addi	a5,a5,2
   134a4:	fe079f23          	sh	zero,-2(a5)
   134a8:	fee79de3          	bne	a5,a4,134a2 <e113toe.isra.0+0xe0>
   134ac:	77f1                	lui	a5,0xffffc
   134ae:	00f41823          	sh	a5,16(s0)
   134b2:	77e1                	lui	a5,0xffff8
   134b4:	fff7c793          	not	a5,a5
   134b8:	00f41923          	sh	a5,18(s0)
   134bc:	b795                	j	13420 <e113toe.isra.0+0x5e>

00000000000134be <ediv>:
   134be:	01255783          	lhu	a5,18(a0)
   134c2:	7151                	addi	sp,sp,-240
   134c4:	f1a2                	sd	s0,224(sp)
   134c6:	fff7c793          	not	a5,a5
   134ca:	eda6                	sd	s1,216(sp)
   134cc:	e9ca                	sd	s2,208(sp)
   134ce:	e5ce                	sd	s3,200(sp)
   134d0:	f586                	sd	ra,232(sp)
   134d2:	e1d2                	sd	s4,192(sp)
   134d4:	fd56                	sd	s5,184(sp)
   134d6:	f95a                	sd	s6,176(sp)
   134d8:	f55e                	sd	s7,168(sp)
   134da:	f162                	sd	s8,160(sp)
   134dc:	ed66                	sd	s9,152(sp)
   134de:	e96a                	sd	s10,144(sp)
   134e0:	e56e                	sd	s11,136(sp)
   134e2:	03179713          	slli	a4,a5,0x31
   134e6:	84aa                	mv	s1,a0
   134e8:	89ae                	mv	s3,a1
   134ea:	8432                	mv	s0,a2
   134ec:	8936                	mv	s2,a3
   134ee:	eb11                	bnez	a4,13502 <ediv+0x44>
   134f0:	01250693          	addi	a3,a0,18
   134f4:	87aa                	mv	a5,a0
   134f6:	0007d703          	lhu	a4,0(a5) # ffffffffffff8000 <__BSS_END__+0xfffffffffffd8890>
   134fa:	0789                	addi	a5,a5,2
   134fc:	ef45                	bnez	a4,135b4 <ediv+0xf6>
   134fe:	fed79ce3          	bne	a5,a3,134f6 <ediv+0x38>
   13502:	0129d783          	lhu	a5,18(s3)
   13506:	fff7c793          	not	a5,a5
   1350a:	03179713          	slli	a4,a5,0x31
   1350e:	eb11                	bnez	a4,13522 <ediv+0x64>
   13510:	01298693          	addi	a3,s3,18
   13514:	87ce                	mv	a5,s3
   13516:	0007d703          	lhu	a4,0(a5)
   1351a:	0789                	addi	a5,a5,2
   1351c:	e75d                	bnez	a4,135ca <ediv+0x10c>
   1351e:	fed79ce3          	bne	a5,a3,13516 <ediv+0x58>
   13522:	6a75                	lui	s4,0x1d
   13524:	c38a0593          	addi	a1,s4,-968 # 1cc38 <ezero>
   13528:	8526                	mv	a0,s1
   1352a:	929ff0ef          	jal	ra,12e52 <ecmp>
   1352e:	12050763          	beqz	a0,1365c <ediv+0x19e>
   13532:	0124d603          	lhu	a2,18(s1)
   13536:	67a1                	lui	a5,0x8
   13538:	17fd                	addi	a5,a5,-1 # 7fff <exit-0x80e9>
   1353a:	00f67533          	and	a0,a2,a5
   1353e:	0af51163          	bne	a0,a5,135e0 <ediv+0x122>
   13542:	01248693          	addi	a3,s1,18
   13546:	87a6                	mv	a5,s1
   13548:	0007d703          	lhu	a4,0(a5)
   1354c:	0789                	addi	a5,a5,2
   1354e:	eb49                	bnez	a4,135e0 <ediv+0x122>
   13550:	fed79ce3          	bne	a5,a3,13548 <ediv+0x8a>
   13554:	0129d703          	lhu	a4,18(s3)
   13558:	fff74793          	not	a5,a4
   1355c:	03179693          	slli	a3,a5,0x31
   13560:	e6f5                	bnez	a3,1364c <ediv+0x18e>
   13562:	01298693          	addi	a3,s3,18
   13566:	87ce                	mv	a5,s3
   13568:	0007d583          	lhu	a1,0(a5)
   1356c:	0789                	addi	a5,a5,2
   1356e:	36059a63          	bnez	a1,138e2 <ediv+0x424>
   13572:	fed79be3          	bne	a5,a3,13568 <ediv+0xaa>
   13576:	01040713          	addi	a4,s0,16
   1357a:	87a2                	mv	a5,s0
   1357c:	0789                	addi	a5,a5,2
   1357e:	fe079f23          	sh	zero,-2(a5)
   13582:	fee79de3          	bne	a5,a4,1357c <ediv+0xbe>
   13586:	77f1                	lui	a5,0xffffc
   13588:	00f41823          	sh	a5,16(s0)
   1358c:	77e1                	lui	a5,0xffff8
   1358e:	fff7c793          	not	a5,a5
   13592:	00f41923          	sh	a5,18(s0)
   13596:	70ae                	ld	ra,232(sp)
   13598:	740e                	ld	s0,224(sp)
   1359a:	64ee                	ld	s1,216(sp)
   1359c:	694e                	ld	s2,208(sp)
   1359e:	69ae                	ld	s3,200(sp)
   135a0:	6a0e                	ld	s4,192(sp)
   135a2:	7aea                	ld	s5,184(sp)
   135a4:	7b4a                	ld	s6,176(sp)
   135a6:	7baa                	ld	s7,168(sp)
   135a8:	7c0a                	ld	s8,160(sp)
   135aa:	6cea                	ld	s9,152(sp)
   135ac:	6d4a                	ld	s10,144(sp)
   135ae:	6daa                	ld	s11,136(sp)
   135b0:	616d                	addi	sp,sp,240
   135b2:	8082                	ret
   135b4:	01448713          	addi	a4,s1,20
   135b8:	0004d783          	lhu	a5,0(s1)
   135bc:	0489                	addi	s1,s1,2
   135be:	0409                	addi	s0,s0,2
   135c0:	fef41f23          	sh	a5,-2(s0)
   135c4:	fee49ae3          	bne	s1,a4,135b8 <ediv+0xfa>
   135c8:	b7f9                	j	13596 <ediv+0xd8>
   135ca:	01440713          	addi	a4,s0,20
   135ce:	0009d783          	lhu	a5,0(s3)
   135d2:	0409                	addi	s0,s0,2
   135d4:	0989                	addi	s3,s3,2
   135d6:	fef41f23          	sh	a5,-2(s0)
   135da:	fee41ae3          	bne	s0,a4,135ce <ediv+0x110>
   135de:	bf65                	j	13596 <ediv+0xd8>
   135e0:	0129d703          	lhu	a4,18(s3)
   135e4:	fff74793          	not	a5,a4
   135e8:	03179693          	slli	a3,a5,0x31
   135ec:	e2c1                	bnez	a3,1366c <ediv+0x1ae>
   135ee:	4801                	li	a6,0
   135f0:	01298693          	addi	a3,s3,18
   135f4:	87ce                	mv	a5,s3
   135f6:	0007d583          	lhu	a1,0(a5) # ffffffffffff8000 <__BSS_END__+0xfffffffffffd8890>
   135fa:	0789                	addi	a5,a5,2
   135fc:	e5b1                	bnez	a1,13648 <ediv+0x18a>
   135fe:	fed79ce3          	bne	a5,a3,135f6 <ediv+0x138>
   13602:	67a1                	lui	a5,0x8
   13604:	17fd                	addi	a5,a5,-1 # 7fff <exit-0x80e9>
   13606:	0af50463          	beq	a0,a5,136ae <ediv+0x1f0>
   1360a:	823d                	srli	a2,a2,0xf
   1360c:	0009d783          	lhu	a5,0(s3)
   13610:	0989                	addi	s3,s3,2
   13612:	2c079463          	bnez	a5,138da <ediv+0x41c>
   13616:	fed99be3          	bne	s3,a3,1360c <ediv+0x14e>
   1361a:	00f75793          	srli	a5,a4,0xf
   1361e:	8fb1                	xor	a5,a5,a2
   13620:	00f7979b          	slliw	a5,a5,0xf
   13624:	00f41923          	sh	a5,18(s0)
   13628:	01240713          	addi	a4,s0,18
   1362c:	87a2                	mv	a5,s0
   1362e:	0789                	addi	a5,a5,2
   13630:	fe079f23          	sh	zero,-2(a5)
   13634:	fee79de3          	bne	a5,a4,1362e <ediv+0x170>
   13638:	01245783          	lhu	a5,18(s0)
   1363c:	6721                	lui	a4,0x8
   1363e:	177d                	addi	a4,a4,-1 # 7fff <exit-0x80e9>
   13640:	8fd9                	or	a5,a5,a4
   13642:	00f41923          	sh	a5,18(s0)
   13646:	bf81                	j	13596 <ediv+0xd8>
   13648:	02080263          	beqz	a6,1366c <ediv+0x1ae>
   1364c:	01440793          	addi	a5,s0,20
   13650:	0409                	addi	s0,s0,2
   13652:	fe041f23          	sh	zero,-2(s0)
   13656:	fef41de3          	bne	s0,a5,13650 <ediv+0x192>
   1365a:	bf35                	j	13596 <ediv+0xd8>
   1365c:	c38a0593          	addi	a1,s4,-968
   13660:	854e                	mv	a0,s3
   13662:	ff0ff0ef          	jal	ra,12e52 <ecmp>
   13666:	ec0516e3          	bnez	a0,13532 <ediv+0x74>
   1366a:	b731                	j	13576 <ediv+0xb8>
   1366c:	100c                	addi	a1,sp,32
   1366e:	8526                	mv	a0,s1
   13670:	f4eff0ef          	jal	ra,12dbe <emovi>
   13674:	008c                	addi	a1,sp,64
   13676:	854e                	mv	a0,s3
   13678:	f46ff0ef          	jal	ra,12dbe <emovi>
   1367c:	04215b03          	lhu	s6,66(sp)
   13680:	02215c03          	lhu	s8,34(sp)
   13684:	020b1f63          	bnez	s6,136c2 <ediv+0x204>
   13688:	04210793          	addi	a5,sp,66
   1368c:	05810c93          	addi	s9,sp,88
   13690:	0007d703          	lhu	a4,0(a5)
   13694:	0789                	addi	a5,a5,2
   13696:	22071463          	bnez	a4,138be <ediv+0x400>
   1369a:	fefc9be3          	bne	s9,a5,13690 <ediv+0x1d2>
   1369e:	01440793          	addi	a5,s0,20
   136a2:	0409                	addi	s0,s0,2
   136a4:	fe041f23          	sh	zero,-2(s0)
   136a8:	fef41de3          	bne	s0,a5,136a2 <ediv+0x1e4>
   136ac:	b5ed                	j	13596 <ediv+0xd8>
   136ae:	01248593          	addi	a1,s1,18
   136b2:	0004d783          	lhu	a5,0(s1)
   136b6:	0489                	addi	s1,s1,2
   136b8:	22079363          	bnez	a5,138de <ediv+0x420>
   136bc:	feb49be3          	bne	s1,a1,136b2 <ediv+0x1f4>
   136c0:	b7a9                	j	1360a <ediv+0x14c>
   136c2:	e45a                	sd	s6,8(sp)
   136c4:	040c1063          	bnez	s8,13704 <ediv+0x246>
   136c8:	02210793          	addi	a5,sp,34
   136cc:	1834                	addi	a3,sp,56
   136ce:	0007d703          	lhu	a4,0(a5)
   136d2:	0789                	addi	a5,a5,2
   136d4:	1e071c63          	bnez	a4,138cc <ediv+0x40e>
   136d8:	fed79be3          	bne	a5,a3,136ce <ediv+0x210>
   136dc:	02015683          	lhu	a3,32(sp)
   136e0:	04015603          	lhu	a2,64(sp)
   136e4:	01240713          	addi	a4,s0,18
   136e8:	87a2                	mv	a5,s0
   136ea:	8e91                	sub	a3,a3,a2
   136ec:	00d036b3          	snez	a3,a3
   136f0:	00f6969b          	slliw	a3,a3,0xf
   136f4:	00d41923          	sh	a3,18(s0)
   136f8:	0789                	addi	a5,a5,2
   136fa:	fe079f23          	sh	zero,-2(a5)
   136fe:	fee79de3          	bne	a5,a4,136f8 <ediv+0x23a>
   13702:	bf1d                	j	13638 <ediv+0x17a>
   13704:	e862                	sd	s8,16(sp)
   13706:	4786                	lw	a5,64(sp)
   13708:	03890493          	addi	s1,s2,56
   1370c:	03490713          	addi	a4,s2,52
   13710:	02f92a23          	sw	a5,52(s2)
   13714:	ec3a                	sd	a4,24(sp)
   13716:	04e90993          	addi	s3,s2,78
   1371a:	87a6                	mv	a5,s1
   1371c:	0789                	addi	a5,a5,2
   1371e:	fe079f23          	sh	zero,-2(a5)
   13722:	ff379de3          	bne	a5,s3,1371c <ediv+0x25e>
   13726:	0088                	addi	a0,sp,64
   13728:	ad4ff0ef          	jal	ra,129fc <eshdn1>
   1372c:	02615b83          	lhu	s7,38(sp)
   13730:	6a41                	lui	s4,0x10
   13732:	04210d13          	addi	s10,sp,66
   13736:	010b9a93          	slli	s5,s7,0x10
   1373a:	417a8ab3          	sub	s5,s5,s7
   1373e:	05810c93          	addi	s9,sp,88
   13742:	1a7d                	addi	s4,s4,-1 # ffff <exit-0xe9>
   13744:	07a10d93          	addi	s11,sp,122
   13748:	06210c13          	addi	s8,sp,98
   1374c:	04415783          	lhu	a5,68(sp)
   13750:	04615703          	lhu	a4,70(sp)
   13754:	8b52                	mv	s6,s4
   13756:	07c2                	slli	a5,a5,0x10
   13758:	97ba                	add	a5,a5,a4
   1375a:	00fae863          	bltu	s5,a5,1376a <ediv+0x2ac>
   1375e:	0377d7b3          	divu	a5,a5,s7
   13762:	03079b13          	slli	s6,a5,0x30
   13766:	030b5b13          	srli	s6,s6,0x30
   1376a:	1090                	addi	a2,sp,96
   1376c:	100c                	addi	a1,sp,32
   1376e:	855a                	mv	a0,s6
   13770:	b06ff0ef          	jal	ra,12a76 <m16m>
   13774:	00d8                	addi	a4,sp,68
   13776:	10dc                	addi	a5,sp,100
   13778:	0007d603          	lhu	a2,0(a5)
   1377c:	00075683          	lhu	a3,0(a4)
   13780:	0789                	addi	a5,a5,2
   13782:	0709                	addi	a4,a4,2
   13784:	0ad61a63          	bne	a2,a3,13838 <ediv+0x37a>
   13788:	ffb798e3          	bne	a5,s11,13778 <ediv+0x2ba>
   1378c:	4681                	li	a3,0
   1378e:	18b0                	addi	a2,sp,120
   13790:	87e6                	mv	a5,s9
   13792:	0007d703          	lhu	a4,0(a5)
   13796:	00065583          	lhu	a1,0(a2)
   1379a:	17f9                	addi	a5,a5,-2
   1379c:	1679                	addi	a2,a2,-2
   1379e:	8f0d                	sub	a4,a4,a1
   137a0:	8f15                	sub	a4,a4,a3
   137a2:	01075693          	srli	a3,a4,0x10
   137a6:	00e79123          	sh	a4,2(a5)
   137aa:	8a85                	andi	a3,a3,1
   137ac:	ffa793e3          	bne	a5,s10,13792 <ediv+0x2d4>
   137b0:	01649023          	sh	s6,0(s1)
   137b4:	00dc                	addi	a5,sp,68
   137b6:	0027d703          	lhu	a4,2(a5)
   137ba:	0789                	addi	a5,a5,2
   137bc:	fee79f23          	sh	a4,-2(a5)
   137c0:	ff979be3          	bne	a5,s9,137b6 <ediv+0x2f8>
   137c4:	04011c23          	sh	zero,88(sp)
   137c8:	0489                	addi	s1,s1,2
   137ca:	f89991e3          	bne	s3,s1,1374c <ediv+0x28e>
   137ce:	4701                	li	a4,0
   137d0:	00dc                	addi	a5,sp,68
   137d2:	05a10693          	addi	a3,sp,90
   137d6:	0007d603          	lhu	a2,0(a5)
   137da:	0789                	addi	a5,a5,2
   137dc:	8f51                	or	a4,a4,a2
   137de:	fed79ce3          	bne	a5,a3,137d6 <ediv+0x318>
   137e2:	64e2                	ld	s1,24(sp)
   137e4:	2701                	sext.w	a4,a4
   137e6:	00e035b3          	snez	a1,a4
   137ea:	009c                	addi	a5,sp,64
   137ec:	0004d703          	lhu	a4,0(s1)
   137f0:	0789                	addi	a5,a5,2
   137f2:	0489                	addi	s1,s1,2
   137f4:	fee79f23          	sh	a4,-2(a5)
   137f8:	fed79ae3          	bne	a5,a3,137ec <ediv+0x32e>
   137fc:	67a2                	ld	a5,8(sp)
   137fe:	6742                	ld	a4,16(sp)
   13800:	6691                	lui	a3,0x4
   13802:	16fd                	addi	a3,a3,-1 # 3fff <exit-0xc0e9>
   13804:	40e78b33          	sub	s6,a5,a4
   13808:	0088                	addi	a0,sp,64
   1380a:	87ca                	mv	a5,s2
   1380c:	04000713          	li	a4,64
   13810:	96da                	add	a3,a3,s6
   13812:	4601                	li	a2,0
   13814:	f26ff0ef          	jal	ra,12f3a <emdnorm>
   13818:	04015703          	lhu	a4,64(sp)
   1381c:	02015783          	lhu	a5,32(sp)
   13820:	85a2                	mv	a1,s0
   13822:	0088                	addi	a0,sp,64
   13824:	8f99                	sub	a5,a5,a4
   13826:	00f037b3          	snez	a5,a5
   1382a:	40f007bb          	negw	a5,a5
   1382e:	04f11023          	sh	a5,64(sp)
   13832:	aacff0ef          	jal	ra,12ade <emovo.constprop.0>
   13836:	b385                	j	13596 <ediv+0xd8>
   13838:	f4c6fae3          	bgeu	a3,a2,1378c <ediv+0x2ce>
   1383c:	fffb079b          	addiw	a5,s6,-1
   13840:	03079313          	slli	t1,a5,0x30
   13844:	03035313          	srli	t1,t1,0x30
   13848:	4681                	li	a3,0
   1384a:	1830                	addi	a2,sp,56
   1384c:	18b8                	addi	a4,sp,120
   1384e:	00075783          	lhu	a5,0(a4)
   13852:	00065583          	lhu	a1,0(a2)
   13856:	1779                	addi	a4,a4,-2
   13858:	1679                	addi	a2,a2,-2
   1385a:	8f8d                	sub	a5,a5,a1
   1385c:	8f95                	sub	a5,a5,a3
   1385e:	0107d693          	srli	a3,a5,0x10
   13862:	00f71123          	sh	a5,2(a4)
   13866:	8a85                	andi	a3,a3,1
   13868:	ff8713e3          	bne	a4,s8,1384e <ediv+0x390>
   1386c:	00d8                	addi	a4,sp,68
   1386e:	10dc                	addi	a5,sp,100
   13870:	0007d603          	lhu	a2,0(a5)
   13874:	00075683          	lhu	a3,0(a4)
   13878:	0789                	addi	a5,a5,2
   1387a:	0709                	addi	a4,a4,2
   1387c:	00d61663          	bne	a2,a3,13888 <ediv+0x3ca>
   13880:	ffb798e3          	bne	a5,s11,13870 <ediv+0x3b2>
   13884:	8b1a                	mv	s6,t1
   13886:	b719                	j	1378c <ediv+0x2ce>
   13888:	fec6fee3          	bgeu	a3,a2,13884 <ediv+0x3c6>
   1388c:	ffeb051b          	addiw	a0,s6,-2
   13890:	03051b13          	slli	s6,a0,0x30
   13894:	030b5b13          	srli	s6,s6,0x30
   13898:	4681                	li	a3,0
   1389a:	1830                	addi	a2,sp,56
   1389c:	18b8                	addi	a4,sp,120
   1389e:	00075783          	lhu	a5,0(a4)
   138a2:	00065583          	lhu	a1,0(a2)
   138a6:	1779                	addi	a4,a4,-2
   138a8:	1679                	addi	a2,a2,-2
   138aa:	8f8d                	sub	a5,a5,a1
   138ac:	8f95                	sub	a5,a5,a3
   138ae:	0107d693          	srli	a3,a5,0x10
   138b2:	00f71123          	sh	a5,2(a4)
   138b6:	8a85                	andi	a3,a3,1
   138b8:	ff8713e3          	bne	a4,s8,1389e <ediv+0x3e0>
   138bc:	bdc1                	j	1378c <ediv+0x2ce>
   138be:	0088                	addi	a0,sp,64
   138c0:	aaaff0ef          	jal	ra,12b6a <enormlz>
   138c4:	40a007b3          	neg	a5,a0
   138c8:	e43e                	sd	a5,8(sp)
   138ca:	bbed                	j	136c4 <ediv+0x206>
   138cc:	1008                	addi	a0,sp,32
   138ce:	a9cff0ef          	jal	ra,12b6a <enormlz>
   138d2:	40a007b3          	neg	a5,a0
   138d6:	e83e                	sd	a5,16(sp)
   138d8:	b53d                	j	13706 <ediv+0x248>
   138da:	4781                	li	a5,0
   138dc:	b389                	j	1361e <ediv+0x160>
   138de:	4601                	li	a2,0
   138e0:	b335                	j	1360c <ediv+0x14e>
   138e2:	4805                	li	a6,1
   138e4:	bb01                	j	135f4 <ediv+0x136>

00000000000138e6 <emul>:
   138e6:	01255803          	lhu	a6,18(a0)
   138ea:	6721                	lui	a4,0x8
   138ec:	7131                	addi	sp,sp,-192
   138ee:	177d                	addi	a4,a4,-1 # 7fff <exit-0x80e9>
   138f0:	f922                	sd	s0,176(sp)
   138f2:	f526                	sd	s1,168(sp)
   138f4:	f14a                	sd	s2,160(sp)
   138f6:	e556                	sd	s5,136(sp)
   138f8:	84aa                	mv	s1,a0
   138fa:	fd06                	sd	ra,184(sp)
   138fc:	ed4e                	sd	s3,152(sp)
   138fe:	e952                	sd	s4,144(sp)
   13900:	e15a                	sd	s6,128(sp)
   13902:	fcde                	sd	s7,120(sp)
   13904:	f8e2                	sd	s8,112(sp)
   13906:	f4e6                	sd	s9,104(sp)
   13908:	f0ea                	sd	s10,96(sp)
   1390a:	00e87533          	and	a0,a6,a4
   1390e:	892e                	mv	s2,a1
   13910:	8432                	mv	s0,a2
   13912:	8ab6                	mv	s5,a3
   13914:	12e51663          	bne	a0,a4,13a40 <emul+0x15a>
   13918:	01248993          	addi	s3,s1,18
   1391c:	8726                	mv	a4,s1
   1391e:	00075603          	lhu	a2,0(a4)
   13922:	0709                	addi	a4,a4,2
   13924:	18061863          	bnez	a2,13ab4 <emul+0x1ce>
   13928:	ff371be3          	bne	a4,s3,1391e <emul+0x38>
   1392c:	01295603          	lhu	a2,18(s2)
   13930:	fff64793          	not	a5,a2
   13934:	03179713          	slli	a4,a5,0x31
   13938:	10070a63          	beqz	a4,13a4c <emul+0x166>
   1393c:	87a6                	mv	a5,s1
   1393e:	0007d703          	lhu	a4,0(a5)
   13942:	0789                	addi	a5,a5,2
   13944:	1e071563          	bnez	a4,13b2e <emul+0x248>
   13948:	ff379be3          	bne	a5,s3,1393e <emul+0x58>
   1394c:	65f5                	lui	a1,0x1d
   1394e:	c3858593          	addi	a1,a1,-968 # 1cc38 <ezero>
   13952:	854a                	mv	a0,s2
   13954:	cfeff0ef          	jal	ra,12e52 <ecmp>
   13958:	1e050e63          	beqz	a0,13b54 <emul+0x26e>
   1395c:	01295603          	lhu	a2,18(s2)
   13960:	65a1                	lui	a1,0x8
   13962:	15fd                	addi	a1,a1,-1 # 7fff <exit-0x80e9>
   13964:	00b67733          	and	a4,a2,a1
   13968:	86ba                	mv	a3,a4
   1396a:	01290793          	addi	a5,s2,18
   1396e:	30b71c63          	bne	a4,a1,13c86 <emul+0x3a0>
   13972:	874a                	mv	a4,s2
   13974:	00075683          	lhu	a3,0(a4)
   13978:	0709                	addi	a4,a4,2
   1397a:	18069563          	bnez	a3,13b04 <emul+0x21e>
   1397e:	fee79be3          	bne	a5,a4,13974 <emul+0x8e>
   13982:	65f5                	lui	a1,0x1d
   13984:	c3858593          	addi	a1,a1,-968 # 1cc38 <ezero>
   13988:	8526                	mv	a0,s1
   1398a:	cc8ff0ef          	jal	ra,12e52 <ecmp>
   1398e:	1c050363          	beqz	a0,13b54 <emul+0x26e>
   13992:	0124d803          	lhu	a6,18(s1)
   13996:	01295603          	lhu	a2,18(s2)
   1399a:	67a1                	lui	a5,0x8
   1399c:	17fd                	addi	a5,a5,-1 # 7fff <exit-0x80e9>
   1399e:	00f87733          	and	a4,a6,a5
   139a2:	00f676b3          	and	a3,a2,a5
   139a6:	85ba                	mv	a1,a4
   139a8:	16f70763          	beq	a4,a5,13b16 <emul+0x230>
   139ac:	8736                	mv	a4,a3
   139ae:	86ae                	mv	a3,a1
   139b0:	67a1                	lui	a5,0x8
   139b2:	2701                	sext.w	a4,a4
   139b4:	17fd                	addi	a5,a5,-1 # 7fff <exit-0x80e9>
   139b6:	0af71e63          	bne	a4,a5,13a72 <emul+0x18c>
   139ba:	01290793          	addi	a5,s2,18
   139be:	874a                	mv	a4,s2
   139c0:	00075583          	lhu	a1,0(a4)
   139c4:	0709                	addi	a4,a4,2
   139c6:	e5d5                	bnez	a1,13a72 <emul+0x18c>
   139c8:	fee79ce3          	bne	a5,a4,139c0 <emul+0xda>
   139cc:	65a1                	lui	a1,0x8
   139ce:	15fd                	addi	a1,a1,-1 # 7fff <exit-0x80e9>
   139d0:	0006871b          	sext.w	a4,a3
   139d4:	01248993          	addi	s3,s1,18
   139d8:	18b69f63          	bne	a3,a1,13b76 <emul+0x290>
   139dc:	0004d783          	lhu	a5,0(s1)
   139e0:	0489                	addi	s1,s1,2
   139e2:	18079d63          	bnez	a5,13b7c <emul+0x296>
   139e6:	fe999be3          	bne	s3,s1,139dc <emul+0xf6>
   139ea:	00f85813          	srli	a6,a6,0xf
   139ee:	67a1                	lui	a5,0x8
   139f0:	17fd                	addi	a5,a5,-1 # 7fff <exit-0x80e9>
   139f2:	14f70863          	beq	a4,a5,13b42 <emul+0x25c>
   139f6:	00f65793          	srli	a5,a2,0xf
   139fa:	0107c7b3          	xor	a5,a5,a6
   139fe:	00f7979b          	slliw	a5,a5,0xf
   13a02:	00f41923          	sh	a5,18(s0)
   13a06:	01240713          	addi	a4,s0,18
   13a0a:	87a2                	mv	a5,s0
   13a0c:	0789                	addi	a5,a5,2
   13a0e:	fe079f23          	sh	zero,-2(a5)
   13a12:	fee79de3          	bne	a5,a4,13a0c <emul+0x126>
   13a16:	01245783          	lhu	a5,18(s0)
   13a1a:	6721                	lui	a4,0x8
   13a1c:	177d                	addi	a4,a4,-1 # 7fff <exit-0x80e9>
   13a1e:	8fd9                	or	a5,a5,a4
   13a20:	00f41923          	sh	a5,18(s0)
   13a24:	70ea                	ld	ra,184(sp)
   13a26:	744a                	ld	s0,176(sp)
   13a28:	74aa                	ld	s1,168(sp)
   13a2a:	790a                	ld	s2,160(sp)
   13a2c:	69ea                	ld	s3,152(sp)
   13a2e:	6a4a                	ld	s4,144(sp)
   13a30:	6aaa                	ld	s5,136(sp)
   13a32:	6b0a                	ld	s6,128(sp)
   13a34:	7be6                	ld	s7,120(sp)
   13a36:	7c46                	ld	s8,112(sp)
   13a38:	7ca6                	ld	s9,104(sp)
   13a3a:	7d06                	ld	s10,96(sp)
   13a3c:	6129                	addi	sp,sp,192
   13a3e:	8082                	ret
   13a40:	0125d603          	lhu	a2,18(a1)
   13a44:	00e677b3          	and	a5,a2,a4
   13a48:	02e79563          	bne	a5,a4,13a72 <emul+0x18c>
   13a4c:	01290793          	addi	a5,s2,18
   13a50:	874a                	mv	a4,s2
   13a52:	00075683          	lhu	a3,0(a4)
   13a56:	0709                	addi	a4,a4,2
   13a58:	eaad                	bnez	a3,13aca <emul+0x1e4>
   13a5a:	fef71ce3          	bne	a4,a5,13a52 <emul+0x16c>
   13a5e:	6721                	lui	a4,0x8
   13a60:	177d                	addi	a4,a4,-1 # 7fff <exit-0x80e9>
   13a62:	01248993          	addi	s3,s1,18
   13a66:	ece50be3          	beq	a0,a4,1393c <emul+0x56>
   13a6a:	00e676b3          	and	a3,a2,a4
   13a6e:	f0e682e3          	beq	a3,a4,13972 <emul+0x8c>
   13a72:	8526                	mv	a0,s1
   13a74:	858a                	mv	a1,sp
   13a76:	b48ff0ef          	jal	ra,12dbe <emovi>
   13a7a:	854a                	mv	a0,s2
   13a7c:	100c                	addi	a1,sp,32
   13a7e:	b40ff0ef          	jal	ra,12dbe <emovi>
   13a82:	00215903          	lhu	s2,2(sp)
   13a86:	02215483          	lhu	s1,34(sp)
   13a8a:	04090b63          	beqz	s2,13ae0 <emul+0x1fa>
   13a8e:	ecfd                	bnez	s1,13b8c <emul+0x2a6>
   13a90:	02210793          	addi	a5,sp,34
   13a94:	1834                	addi	a3,sp,56
   13a96:	0007d703          	lhu	a4,0(a5)
   13a9a:	0789                	addi	a5,a5,2
   13a9c:	1c071d63          	bnez	a4,13c76 <emul+0x390>
   13aa0:	fed79be3          	bne	a5,a3,13a96 <emul+0x1b0>
   13aa4:	01440793          	addi	a5,s0,20
   13aa8:	0409                	addi	s0,s0,2
   13aaa:	fe041f23          	sh	zero,-2(s0)
   13aae:	fe879de3          	bne	a5,s0,13aa8 <emul+0x1c2>
   13ab2:	bf8d                	j	13a24 <emul+0x13e>
   13ab4:	01440713          	addi	a4,s0,20
   13ab8:	0004d783          	lhu	a5,0(s1)
   13abc:	0409                	addi	s0,s0,2
   13abe:	0489                	addi	s1,s1,2
   13ac0:	fef41f23          	sh	a5,-2(s0)
   13ac4:	fee41ae3          	bne	s0,a4,13ab8 <emul+0x1d2>
   13ac8:	bfb1                	j	13a24 <emul+0x13e>
   13aca:	01490713          	addi	a4,s2,20
   13ace:	00095783          	lhu	a5,0(s2)
   13ad2:	0909                	addi	s2,s2,2
   13ad4:	0409                	addi	s0,s0,2
   13ad6:	fef41f23          	sh	a5,-2(s0)
   13ada:	ff271ae3          	bne	a4,s2,13ace <emul+0x1e8>
   13ade:	b799                	j	13a24 <emul+0x13e>
   13ae0:	00210793          	addi	a5,sp,2
   13ae4:	0834                	addi	a3,sp,24
   13ae6:	0007d703          	lhu	a4,0(a5)
   13aea:	0789                	addi	a5,a5,2
   13aec:	16071f63          	bnez	a4,13c6a <emul+0x384>
   13af0:	fef69be3          	bne	a3,a5,13ae6 <emul+0x200>
   13af4:	01440793          	addi	a5,s0,20
   13af8:	0409                	addi	s0,s0,2
   13afa:	fe041f23          	sh	zero,-2(s0)
   13afe:	fef41de3          	bne	s0,a5,13af8 <emul+0x212>
   13b02:	b70d                	j	13a24 <emul+0x13e>
   13b04:	0124d803          	lhu	a6,18(s1)
   13b08:	65a1                	lui	a1,0x8
   13b0a:	15fd                	addi	a1,a1,-1 # 7fff <exit-0x80e9>
   13b0c:	00b87733          	and	a4,a6,a1
   13b10:	86ba                	mv	a3,a4
   13b12:	eab716e3          	bne	a4,a1,139be <emul+0xd8>
   13b16:	01248993          	addi	s3,s1,18
   13b1a:	87a6                	mv	a5,s1
   13b1c:	0007d703          	lhu	a4,0(a5)
   13b20:	0789                	addi	a5,a5,2
   13b22:	e32d                	bnez	a4,13b84 <emul+0x29e>
   13b24:	fef99ce3          	bne	s3,a5,13b1c <emul+0x236>
   13b28:	0006871b          	sext.w	a4,a3
   13b2c:	bd45                	j	139dc <emul+0xf6>
   13b2e:	65a1                	lui	a1,0x8
   13b30:	15fd                	addi	a1,a1,-1 # 7fff <exit-0x80e9>
   13b32:	00b67733          	and	a4,a2,a1
   13b36:	86ba                	mv	a3,a4
   13b38:	01290793          	addi	a5,s2,18
   13b3c:	e2b70be3          	beq	a4,a1,13972 <emul+0x8c>
   13b40:	bfe9                	j	13b1a <emul+0x234>
   13b42:	01290793          	addi	a5,s2,18
   13b46:	00095703          	lhu	a4,0(s2)
   13b4a:	0909                	addi	s2,s2,2
   13b4c:	eb15                	bnez	a4,13b80 <emul+0x29a>
   13b4e:	fef91ce3          	bne	s2,a5,13b46 <emul+0x260>
   13b52:	b555                	j	139f6 <emul+0x110>
   13b54:	01040713          	addi	a4,s0,16
   13b58:	87a2                	mv	a5,s0
   13b5a:	0789                	addi	a5,a5,2
   13b5c:	fe079f23          	sh	zero,-2(a5)
   13b60:	fef71de3          	bne	a4,a5,13b5a <emul+0x274>
   13b64:	77f1                	lui	a5,0xffffc
   13b66:	00f41823          	sh	a5,16(s0)
   13b6a:	77e1                	lui	a5,0xffff8
   13b6c:	fff7c793          	not	a5,a5
   13b70:	00f41923          	sh	a5,18(s0)
   13b74:	bd45                	j	13a24 <emul+0x13e>
   13b76:	00f85813          	srli	a6,a6,0xf
   13b7a:	b7f1                	j	13b46 <emul+0x260>
   13b7c:	4801                	li	a6,0
   13b7e:	bd85                	j	139ee <emul+0x108>
   13b80:	4781                	li	a5,0
   13b82:	bda5                	j	139fa <emul+0x114>
   13b84:	8736                	mv	a4,a3
   13b86:	66a1                	lui	a3,0x8
   13b88:	16fd                	addi	a3,a3,-1 # 7fff <exit-0x80e9>
   13b8a:	b51d                	j	139b0 <emul+0xca>
   13b8c:	89a6                	mv	s3,s1
   13b8e:	02015783          	lhu	a5,32(sp)
   13b92:	0104949b          	slliw	s1,s1,0x10
   13b96:	038a8a13          	addi	s4,s5,56
   13b9a:	8fc5                	or	a5,a5,s1
   13b9c:	02faaa23          	sw	a5,52(s5)
   13ba0:	034a8493          	addi	s1,s5,52
   13ba4:	87d2                	mv	a5,s4
   13ba6:	04ea8713          	addi	a4,s5,78
   13baa:	00079023          	sh	zero,0(a5) # ffffffffffff8000 <__BSS_END__+0xfffffffffffd8890>
   13bae:	0789                	addi	a5,a5,2
   13bb0:	fee79de3          	bne	a5,a4,13baa <emul+0x2c4>
   13bb4:	04ca8c93          	addi	s9,s5,76
   13bb8:	4c01                	li	s8,0
   13bba:	01810b13          	addi	s6,sp,24
   13bbe:	00410d13          	addi	s10,sp,4
   13bc2:	04210b93          	addi	s7,sp,66
   13bc6:	000b5503          	lhu	a0,0(s6)
   13bca:	1b79                	addi	s6,s6,-2
   13bcc:	e925                	bnez	a0,13c3c <emul+0x356>
   13bce:	04cad783          	lhu	a5,76(s5)
   13bd2:	8766                	mv	a4,s9
   13bd4:	00fc6c33          	or	s8,s8,a5
   13bd8:	ffe75603          	lhu	a2,-2(a4)
   13bdc:	1779                	addi	a4,a4,-2
   13bde:	00c71123          	sh	a2,2(a4)
   13be2:	feea1be3          	bne	s4,a4,13bd8 <emul+0x2f2>
   13be6:	020a9c23          	sh	zero,56(s5)
   13bea:	fdab1ee3          	bne	s6,s10,13bc6 <emul+0x2e0>
   13bee:	101c                	addi	a5,sp,32
   13bf0:	03a10693          	addi	a3,sp,58
   13bf4:	0004d703          	lhu	a4,0(s1)
   13bf8:	0789                	addi	a5,a5,2
   13bfa:	0489                	addi	s1,s1,2
   13bfc:	fee79f23          	sh	a4,-2(a5)
   13c00:	fef69ae3          	bne	a3,a5,13bf4 <emul+0x30e>
   13c04:	76f1                	lui	a3,0xffffc
   13c06:	994e                	add	s2,s2,s3
   13c08:	0689                	addi	a3,a3,2 # ffffffffffffc002 <__BSS_END__+0xfffffffffffdc892>
   13c0a:	85e2                	mv	a1,s8
   13c0c:	1008                	addi	a0,sp,32
   13c0e:	87d6                	mv	a5,s5
   13c10:	04000713          	li	a4,64
   13c14:	96ca                	add	a3,a3,s2
   13c16:	4601                	li	a2,0
   13c18:	b22ff0ef          	jal	ra,12f3a <emdnorm>
   13c1c:	02015703          	lhu	a4,32(sp)
   13c20:	00015783          	lhu	a5,0(sp)
   13c24:	85a2                	mv	a1,s0
   13c26:	1008                	addi	a0,sp,32
   13c28:	8f99                	sub	a5,a5,a4
   13c2a:	00f037b3          	snez	a5,a5
   13c2e:	40f007bb          	negw	a5,a5
   13c32:	02f11023          	sh	a5,32(sp)
   13c36:	ea9fe0ef          	jal	ra,12ade <emovo.constprop.0>
   13c3a:	b3ed                	j	13a24 <emul+0x13e>
   13c3c:	0090                	addi	a2,sp,64
   13c3e:	100c                	addi	a1,sp,32
   13c40:	e37fe0ef          	jal	ra,12a76 <m16m>
   13c44:	8566                	mv	a0,s9
   13c46:	4581                	li	a1,0
   13c48:	08b0                	addi	a2,sp,88
   13c4a:	00055783          	lhu	a5,0(a0)
   13c4e:	00065703          	lhu	a4,0(a2)
   13c52:	1579                	addi	a0,a0,-2
   13c54:	1679                	addi	a2,a2,-2
   13c56:	973e                	add	a4,a4,a5
   13c58:	972e                	add	a4,a4,a1
   13c5a:	01075593          	srli	a1,a4,0x10
   13c5e:	00e51123          	sh	a4,2(a0)
   13c62:	8985                	andi	a1,a1,1
   13c64:	ff7613e3          	bne	a2,s7,13c4a <emul+0x364>
   13c68:	b79d                	j	13bce <emul+0x2e8>
   13c6a:	850a                	mv	a0,sp
   13c6c:	efffe0ef          	jal	ra,12b6a <enormlz>
   13c70:	40a00933          	neg	s2,a0
   13c74:	bd29                	j	13a8e <emul+0x1a8>
   13c76:	1008                	addi	a0,sp,32
   13c78:	ef3fe0ef          	jal	ra,12b6a <enormlz>
   13c7c:	40a009b3          	neg	s3,a0
   13c80:	02215483          	lhu	s1,34(sp)
   13c84:	b729                	j	13b8e <emul+0x2a8>
   13c86:	0124d803          	lhu	a6,18(s1)
   13c8a:	00b877b3          	and	a5,a6,a1
   13c8e:	e8b786e3          	beq	a5,a1,13b1a <emul+0x234>
   13c92:	b3c5                	j	13a72 <emul+0x18c>

0000000000013c94 <_ldtoa_r>:
   13c94:	d8010113          	addi	sp,sp,-640
   13c98:	09100313          	li	t1,145
   13c9c:	fcb2                	sd	a2,120(sp)
   13c9e:	06053e03          	ld	t3,96(a0)
   13ca2:	02031613          	slli	a2,t1,0x20
   13ca6:	167d                	addi	a2,a2,-1
   13ca8:	26813823          	sd	s0,624(sp)
   13cac:	25413823          	sd	s4,592(sp)
   13cb0:	26113c23          	sd	ra,632(sp)
   13cb4:	26913423          	sd	s1,616(sp)
   13cb8:	27213023          	sd	s2,608(sp)
   13cbc:	25313c23          	sd	s3,600(sp)
   13cc0:	25513423          	sd	s5,584(sp)
   13cc4:	25613023          	sd	s6,576(sp)
   13cc8:	23713c23          	sd	s7,568(sp)
   13ccc:	23813823          	sd	s8,560(sp)
   13cd0:	23913423          	sd	s9,552(sp)
   13cd4:	23a13023          	sd	s10,544(sp)
   13cd8:	21b13c23          	sd	s11,536(sp)
   13cdc:	f8ae                	sd	a1,112(sp)
   13cde:	e3b2                	sd	a2,448(sp)
   13ce0:	e436                	sd	a3,8(sp)
   13ce2:	ec3a                	sd	a4,24(sp)
   13ce4:	f03e                	sd	a5,32(sp)
   13ce6:	f446                	sd	a7,40(sp)
   13ce8:	8a2a                	mv	s4,a0
   13cea:	8442                	mv	s0,a6
   13cec:	020e0163          	beqz	t3,13d0e <_ldtoa_r+0x7a>
   13cf0:	553c                	lw	a5,104(a0)
   13cf2:	4705                	li	a4,1
   13cf4:	85f2                	mv	a1,t3
   13cf6:	00f7173b          	sllw	a4,a4,a5
   13cfa:	1782                	slli	a5,a5,0x20
   13cfc:	1702                	slli	a4,a4,0x20
   13cfe:	9381                	srli	a5,a5,0x20
   13d00:	8fd9                	or	a5,a5,a4
   13d02:	00fe3423          	sd	a5,8(t3)
   13d06:	694010ef          	jal	ra,1539a <_Bfree>
   13d0a:	060a3023          	sd	zero,96(s4)
   13d0e:	110c                	addi	a1,sp,160
   13d10:	1888                	addi	a0,sp,112
   13d12:	eb0ff0ef          	jal	ra,133c2 <e113toe.isra.0>
   13d16:	0b215683          	lhu	a3,178(sp)
   13d1a:	67a1                	lui	a5,0x8
   13d1c:	17fd                	addi	a5,a5,-1 # 7fff <exit-0x80e9>
   13d1e:	00f6f733          	and	a4,a3,a5
   13d22:	f83a                	sd	a4,48(sp)
   13d24:	34f70a63          	beq	a4,a5,14078 <_ldtoa_r+0x3e4>
   13d28:	0106979b          	slliw	a5,a3,0x10
   13d2c:	4107d79b          	sraiw	a5,a5,0x10
   13d30:	6722                	ld	a4,8(sp)
   13d32:	01f7d79b          	srliw	a5,a5,0x1f
   13d36:	c01c                	sw	a5,0(s0)
   13d38:	478d                	li	a5,3
   13d3a:	70f70663          	beq	a4,a5,14446 <_ldtoa_r+0x7b2>
   13d3e:	47d1                	li	a5,20
   13d40:	e83e                	sd	a5,16(sp)
   13d42:	67a2                	ld	a5,8(sp)
   13d44:	70079d63          	bnez	a5,1445e <_ldtoa_r+0x7ca>
   13d48:	019c                	addi	a5,sp,192
   13d4a:	1118                	addi	a4,sp,160
   13d4c:	09c0                	addi	s0,sp,212
   13d4e:	00075683          	lhu	a3,0(a4)
   13d52:	0789                	addi	a5,a5,2
   13d54:	0709                	addi	a4,a4,2
   13d56:	fed79f23          	sh	a3,-2(a5)
   13d5a:	fe879ae3          	bne	a5,s0,13d4e <_ldtoa_r+0xba>
   13d5e:	0d215b03          	lhu	s6,210(sp)
   13d62:	4481                	li	s1,0
   13d64:	00fb5793          	srli	a5,s6,0xf
   13d68:	cb91                	beqz	a5,13d7c <_ldtoa_r+0xe8>
   13d6a:	031b1893          	slli	a7,s6,0x31
   13d6e:	0318db13          	srli	s6,a7,0x31
   13d72:	67c1                	lui	a5,0x10
   13d74:	0d611923          	sh	s6,210(sp)
   13d78:	fff78493          	addi	s1,a5,-1 # ffff <exit-0xe9>
   13d7c:	6d75                	lui	s10,0x1d
   13d7e:	6975                	lui	s2,0x1d
   13d80:	1198                	addi	a4,sp,224
   13d82:	c20d0793          	addi	a5,s10,-992 # 1cc20 <eone>
   13d86:	c3490913          	addi	s2,s2,-972 # 1cc34 <eone+0x14>
   13d8a:	0007d683          	lhu	a3,0(a5)
   13d8e:	0789                	addi	a5,a5,2
   13d90:	0709                	addi	a4,a4,2
   13d92:	fed71f23          	sh	a3,-2(a4)
   13d96:	ff279ae3          	bne	a5,s2,13d8a <_ldtoa_r+0xf6>
   13d9a:	520b1763          	bnez	s6,142c8 <_ldtoa_r+0x634>
   13d9e:	019c                	addi	a5,sp,192
   13da0:	0d210693          	addi	a3,sp,210
   13da4:	0007d703          	lhu	a4,0(a5)
   13da8:	52071863          	bnez	a4,142d8 <_ldtoa_r+0x644>
   13dac:	0789                	addi	a5,a5,2
   13dae:	fef69be3          	bne	a3,a5,13da4 <_ldtoa_r+0x110>
   13db2:	4401                	li	s0,0
   13db4:	18010b93          	addi	s7,sp,384
   13db8:	1c010c13          	addi	s8,sp,448
   13dbc:	12010993          	addi	s3,sp,288
   13dc0:	13810c93          	addi	s9,sp,312
   13dc4:	85ce                	mv	a1,s3
   13dc6:	1188                	addi	a0,sp,224
   13dc8:	ff7fe0ef          	jal	ra,12dbe <emovi>
   13dcc:	894e                	mv	s2,s3
   13dce:	1198                	addi	a4,sp,224
   13dd0:	87ce                	mv	a5,s3
   13dd2:	6394                	ld	a3,0(a5)
   13dd4:	07a1                	addi	a5,a5,8
   13dd6:	0721                	addi	a4,a4,8
   13dd8:	fed73c23          	sd	a3,-8(a4)
   13ddc:	fefc9be3          	bne	s9,a5,13dd2 <_ldtoa_r+0x13e>
   13de0:	85ce                	mv	a1,s3
   13de2:	0188                	addi	a0,sp,192
   13de4:	0e011c23          	sh	zero,248(sp)
   13de8:	fd7fe0ef          	jal	ra,12dbe <emovi>
   13dec:	0d810d13          	addi	s10,sp,216
   13df0:	019c                	addi	a5,sp,192
   13df2:	00093703          	ld	a4,0(s2)
   13df6:	07a1                	addi	a5,a5,8
   13df8:	0921                	addi	s2,s2,8
   13dfa:	fee7bc23          	sd	a4,-8(a5)
   13dfe:	fefd1ae3          	bne	s10,a5,13df2 <_ldtoa_r+0x15e>
   13e02:	8662                	mv	a2,s8
   13e04:	018c                	addi	a1,sp,192
   13e06:	1188                	addi	a0,sp,224
   13e08:	0c011c23          	sh	zero,216(sp)
   13e0c:	cc4ff0ef          	jal	ra,132d0 <eiremain>
   13e10:	20c15983          	lhu	s3,524(sp)
   13e14:	6975                	lui	s2,0x1d
   13e16:	0c210d93          	addi	s11,sp,194
   13e1a:	10210c93          	addi	s9,sp,258
   13e1e:	10099063          	bnez	s3,13f1e <_ldtoa_r+0x28a>
   13e22:	c3890593          	addi	a1,s2,-968 # 1cc38 <ezero>
   13e26:	0188                	addi	a0,sp,192
   13e28:	82aff0ef          	jal	ra,12e52 <ecmp>
   13e2c:	c96d                	beqz	a0,13f1e <_ldtoa_r+0x28a>
   13e2e:	4701                	li	a4,0
   13e30:	86ea                	mv	a3,s10
   13e32:	0006d783          	lhu	a5,0(a3)
   13e36:	00f7d613          	srli	a2,a5,0xf
   13e3a:	c219                	beqz	a2,13e40 <_ldtoa_r+0x1ac>
   13e3c:	00176713          	ori	a4,a4,1
   13e40:	0017979b          	slliw	a5,a5,0x1
   13e44:	17c2                	slli	a5,a5,0x30
   13e46:	00277613          	andi	a2,a4,2
   13e4a:	93c1                	srli	a5,a5,0x30
   13e4c:	c219                	beqz	a2,13e52 <_ldtoa_r+0x1be>
   13e4e:	0017e793          	ori	a5,a5,1
   13e52:	0017171b          	slliw	a4,a4,0x1
   13e56:	00f69023          	sh	a5,0(a3)
   13e5a:	1742                	slli	a4,a4,0x30
   13e5c:	16f9                	addi	a3,a3,-2
   13e5e:	9341                	srli	a4,a4,0x30
   13e60:	fdb699e3          	bne	a3,s11,13e32 <_ldtoa_r+0x19e>
   13e64:	0218                	addi	a4,sp,256
   13e66:	019c                	addi	a5,sp,192
   13e68:	6394                	ld	a3,0(a5)
   13e6a:	07a1                	addi	a5,a5,8
   13e6c:	0721                	addi	a4,a4,8
   13e6e:	fed73c23          	sd	a3,-8(a4)
   13e72:	fefd1be3          	bne	s10,a5,13e68 <_ldtoa_r+0x1d4>
   13e76:	10011c23          	sh	zero,280(sp)
   13e7a:	4701                	li	a4,0
   13e7c:	0a34                	addi	a3,sp,280
   13e7e:	0006d783          	lhu	a5,0(a3)
   13e82:	00f7d613          	srli	a2,a5,0xf
   13e86:	c219                	beqz	a2,13e8c <_ldtoa_r+0x1f8>
   13e88:	00176713          	ori	a4,a4,1
   13e8c:	0017979b          	slliw	a5,a5,0x1
   13e90:	17c2                	slli	a5,a5,0x30
   13e92:	00277613          	andi	a2,a4,2
   13e96:	93c1                	srli	a5,a5,0x30
   13e98:	c219                	beqz	a2,13e9e <_ldtoa_r+0x20a>
   13e9a:	0017e793          	ori	a5,a5,1
   13e9e:	0017171b          	slliw	a4,a4,0x1
   13ea2:	00f69023          	sh	a5,0(a3)
   13ea6:	1742                	slli	a4,a4,0x30
   13ea8:	16f9                	addi	a3,a3,-2
   13eaa:	9341                	srli	a4,a4,0x30
   13eac:	fd9699e3          	bne	a3,s9,13e7e <_ldtoa_r+0x1ea>
   13eb0:	4701                	li	a4,0
   13eb2:	0a34                	addi	a3,sp,280
   13eb4:	0006d783          	lhu	a5,0(a3)
   13eb8:	00f7d613          	srli	a2,a5,0xf
   13ebc:	c219                	beqz	a2,13ec2 <_ldtoa_r+0x22e>
   13ebe:	00176713          	ori	a4,a4,1
   13ec2:	0017979b          	slliw	a5,a5,0x1
   13ec6:	17c2                	slli	a5,a5,0x30
   13ec8:	00277613          	andi	a2,a4,2
   13ecc:	93c1                	srli	a5,a5,0x30
   13ece:	c219                	beqz	a2,13ed4 <_ldtoa_r+0x240>
   13ed0:	0017e793          	ori	a5,a5,1
   13ed4:	0017171b          	slliw	a4,a4,0x1
   13ed8:	00f69023          	sh	a5,0(a3)
   13edc:	1742                	slli	a4,a4,0x30
   13ede:	16f9                	addi	a3,a3,-2
   13ee0:	9341                	srli	a4,a4,0x30
   13ee2:	fd9699e3          	bne	a3,s9,13eb4 <_ldtoa_r+0x220>
   13ee6:	4601                	li	a2,0
   13ee8:	86ea                	mv	a3,s10
   13eea:	0a38                	addi	a4,sp,280
   13eec:	0006d583          	lhu	a1,0(a3)
   13ef0:	00075783          	lhu	a5,0(a4)
   13ef4:	16f9                	addi	a3,a3,-2
   13ef6:	1779                	addi	a4,a4,-2
   13ef8:	97ae                	add	a5,a5,a1
   13efa:	97b2                	add	a5,a5,a2
   13efc:	0107d613          	srli	a2,a5,0x10
   13f00:	00f69123          	sh	a5,2(a3)
   13f04:	8a05                	andi	a2,a2,1
   13f06:	ff9713e3          	bne	a4,s9,13eec <_ldtoa_r+0x258>
   13f0a:	8662                	mv	a2,s8
   13f0c:	018c                	addi	a1,sp,192
   13f0e:	1188                	addi	a0,sp,224
   13f10:	bc0ff0ef          	jal	ra,132d0 <eiremain>
   13f14:	20c15783          	lhu	a5,524(sp)
   13f18:	347d                	addiw	s0,s0,-1
   13f1a:	d781                	beqz	a5,13e22 <_ldtoa_r+0x18e>
   13f1c:	89be                	mv	s3,a5
   13f1e:	02000793          	li	a5,32
   13f22:	c099                	beqz	s1,13f28 <_ldtoa_r+0x294>
   13f24:	02d00793          	li	a5,45
   13f28:	66a2                	ld	a3,8(sp)
   13f2a:	18f10023          	sb	a5,384(sp)
   13f2e:	470d                	li	a4,3
   13f30:	67c2                	ld	a5,16(sp)
   13f32:	00e69363          	bne	a3,a4,13f38 <_ldtoa_r+0x2a4>
   13f36:	9fa1                	addw	a5,a5,s0
   13f38:	02a00713          	li	a4,42
   13f3c:	0007891b          	sext.w	s2,a5
   13f40:	00f75463          	bge	a4,a5,13f48 <_ldtoa_r+0x2b4>
   13f44:	02a00913          	li	s2,42
   13f48:	4729                	li	a4,10
   13f4a:	4ce98c63          	beq	s3,a4,14422 <_ldtoa_r+0x78e>
   13f4e:	0309899b          	addiw	s3,s3,48
   13f52:	02e00713          	li	a4,46
   13f56:	193100a3          	sb	s3,385(sp)
   13f5a:	18e10123          	sb	a4,386(sp)
   13f5e:	1a07c863          	bltz	a5,1410e <_ldtoa_r+0x47a>
   13f62:	18310493          	addi	s1,sp,387
   13f66:	4a81                	li	s5,0
   13f68:	10010c93          	addi	s9,sp,256
   13f6c:	11810b13          	addi	s6,sp,280
   13f70:	0c210d93          	addi	s11,sp,194
   13f74:	10210993          	addi	s3,sp,258
   13f78:	4601                	li	a2,0
   13f7a:	85ea                	mv	a1,s10
   13f7c:	0005d783          	lhu	a5,0(a1)
   13f80:	00f7d513          	srli	a0,a5,0xf
   13f84:	c119                	beqz	a0,13f8a <_ldtoa_r+0x2f6>
   13f86:	00166613          	ori	a2,a2,1
   13f8a:	0017979b          	slliw	a5,a5,0x1
   13f8e:	17c2                	slli	a5,a5,0x30
   13f90:	00267513          	andi	a0,a2,2
   13f94:	93c1                	srli	a5,a5,0x30
   13f96:	c119                	beqz	a0,13f9c <_ldtoa_r+0x308>
   13f98:	0017e793          	ori	a5,a5,1
   13f9c:	0016161b          	slliw	a2,a2,0x1
   13fa0:	00f59023          	sh	a5,0(a1)
   13fa4:	1642                	slli	a2,a2,0x30
   13fa6:	15f9                	addi	a1,a1,-2
   13fa8:	9241                	srli	a2,a2,0x30
   13faa:	fdb599e3          	bne	a1,s11,13f7c <_ldtoa_r+0x2e8>
   13fae:	87e6                	mv	a5,s9
   13fb0:	0190                	addi	a2,sp,192
   13fb2:	620c                	ld	a1,0(a2)
   13fb4:	07a1                	addi	a5,a5,8
   13fb6:	0621                	addi	a2,a2,8
   13fb8:	feb7bc23          	sd	a1,-8(a5)
   13fbc:	fefb1be3          	bne	s6,a5,13fb2 <_ldtoa_r+0x31e>
   13fc0:	10011c23          	sh	zero,280(sp)
   13fc4:	4601                	li	a2,0
   13fc6:	85da                	mv	a1,s6
   13fc8:	0005d783          	lhu	a5,0(a1)
   13fcc:	00f7d513          	srli	a0,a5,0xf
   13fd0:	c119                	beqz	a0,13fd6 <_ldtoa_r+0x342>
   13fd2:	00166613          	ori	a2,a2,1
   13fd6:	0017979b          	slliw	a5,a5,0x1
   13fda:	17c2                	slli	a5,a5,0x30
   13fdc:	00267513          	andi	a0,a2,2
   13fe0:	93c1                	srli	a5,a5,0x30
   13fe2:	c119                	beqz	a0,13fe8 <_ldtoa_r+0x354>
   13fe4:	0017e793          	ori	a5,a5,1
   13fe8:	0016161b          	slliw	a2,a2,0x1
   13fec:	00f59023          	sh	a5,0(a1)
   13ff0:	1642                	slli	a2,a2,0x30
   13ff2:	15f9                	addi	a1,a1,-2
   13ff4:	9241                	srli	a2,a2,0x30
   13ff6:	fd3599e3          	bne	a1,s3,13fc8 <_ldtoa_r+0x334>
   13ffa:	4601                	li	a2,0
   13ffc:	85da                	mv	a1,s6
   13ffe:	0005d783          	lhu	a5,0(a1)
   14002:	00f7d513          	srli	a0,a5,0xf
   14006:	c119                	beqz	a0,1400c <_ldtoa_r+0x378>
   14008:	00166613          	ori	a2,a2,1
   1400c:	0017979b          	slliw	a5,a5,0x1
   14010:	17c2                	slli	a5,a5,0x30
   14012:	00267513          	andi	a0,a2,2
   14016:	93c1                	srli	a5,a5,0x30
   14018:	c119                	beqz	a0,1401e <_ldtoa_r+0x38a>
   1401a:	0017e793          	ori	a5,a5,1
   1401e:	0016161b          	slliw	a2,a2,0x1
   14022:	00f59023          	sh	a5,0(a1)
   14026:	1642                	slli	a2,a2,0x30
   14028:	15f9                	addi	a1,a1,-2
   1402a:	9241                	srli	a2,a2,0x30
   1402c:	fd3599e3          	bne	a1,s3,13ffe <_ldtoa_r+0x36a>
   14030:	4501                	li	a0,0
   14032:	85ea                	mv	a1,s10
   14034:	865a                	mv	a2,s6
   14036:	0005d883          	lhu	a7,0(a1)
   1403a:	00065783          	lhu	a5,0(a2)
   1403e:	15f9                	addi	a1,a1,-2
   14040:	1679                	addi	a2,a2,-2
   14042:	97c6                	add	a5,a5,a7
   14044:	97aa                	add	a5,a5,a0
   14046:	0107d513          	srli	a0,a5,0x10
   1404a:	00f59123          	sh	a5,2(a1)
   1404e:	8905                	andi	a0,a0,1
   14050:	ff3613e3          	bne	a2,s3,14036 <_ldtoa_r+0x3a2>
   14054:	8662                	mv	a2,s8
   14056:	018c                	addi	a1,sp,192
   14058:	1188                	addi	a0,sp,224
   1405a:	a76ff0ef          	jal	ra,132d0 <eiremain>
   1405e:	20c15603          	lhu	a2,524(sp)
   14062:	00148793          	addi	a5,s1,1
   14066:	2a85                	addiw	s5,s5,1
   14068:	0306059b          	addiw	a1,a2,48
   1406c:	feb78fa3          	sb	a1,-1(a5)
   14070:	0b594563          	blt	s2,s5,1411a <_ldtoa_r+0x486>
   14074:	84be                	mv	s1,a5
   14076:	b709                	j	13f78 <_ldtoa_r+0x2e4>
   14078:	111c                	addi	a5,sp,160
   1407a:	0b210613          	addi	a2,sp,178
   1407e:	0007d703          	lhu	a4,0(a5)
   14082:	0789                	addi	a5,a5,2
   14084:	5e071963          	bnez	a4,14676 <_ldtoa_r+0x9e2>
   14088:	fec79be3          	bne	a5,a2,1407e <_ldtoa_r+0x3ea>
   1408c:	82bd                	srli	a3,a3,0xf
   1408e:	6722                	ld	a4,8(sp)
   14090:	c014                	sw	a3,0(s0)
   14092:	478d                	li	a5,3
   14094:	5cf70563          	beq	a4,a5,1465e <_ldtoa_r+0x9ca>
   14098:	47d1                	li	a5,20
   1409a:	e83e                	sd	a5,16(sp)
   1409c:	cb19                	beqz	a4,140b2 <_ldtoa_r+0x41e>
   1409e:	67e2                	ld	a5,24(sp)
   140a0:	fff78b1b          	addiw	s6,a5,-1
   140a4:	02a00793          	li	a5,42
   140a8:	0167d463          	bge	a5,s6,140b0 <_ldtoa_r+0x41c>
   140ac:	02a00b13          	li	s6,42
   140b0:	e85a                	sd	s6,16(sp)
   140b2:	0a015703          	lhu	a4,160(sp)
   140b6:	111c                	addi	a5,sp,160
   140b8:	0b210693          	addi	a3,sp,178
   140bc:	0789                	addi	a5,a5,2
   140be:	e719                	bnez	a4,140cc <_ldtoa_r+0x438>
   140c0:	c8d784e3          	beq	a5,a3,13d48 <_ldtoa_r+0xb4>
   140c4:	0007d703          	lhu	a4,0(a5)
   140c8:	0789                	addi	a5,a5,2
   140ca:	db7d                	beqz	a4,140c0 <_ldtoa_r+0x42c>
   140cc:	18010b93          	addi	s7,sp,384
   140d0:	65f5                	lui	a1,0x1d
   140d2:	9e058593          	addi	a1,a1,-1568 # 1c9e0 <blanks.1+0xd8>
   140d6:	855e                	mv	a0,s7
   140d8:	7f7010ef          	jal	ra,160ce <sprintf>
   140dc:	6409                	lui	s0,0x2
   140de:	70f40413          	addi	s0,s0,1807 # 270f <exit-0xd9d9>
   140e2:	09000793          	li	a5,144
   140e6:	1cf12223          	sw	a5,452(sp)
   140ea:	1c812823          	sw	s0,464(sp)
   140ee:	111c                	addi	a5,sp,160
   140f0:	0b210693          	addi	a3,sp,178
   140f4:	0007d703          	lhu	a4,0(a5)
   140f8:	0789                	addi	a5,a5,2
   140fa:	70071863          	bnez	a4,1480a <_ldtoa_r+0xb76>
   140fe:	fed79be3          	bne	a5,a3,140f4 <_ldtoa_r+0x460>
   14102:	7702                	ld	a4,32(sp)
   14104:	6789                	lui	a5,0x2
   14106:	70f78793          	addi	a5,a5,1807 # 270f <exit-0xd9d9>
   1410a:	c31c                	sw	a5,0(a4)
   1410c:	a86d                	j	141c6 <_ldtoa_r+0x532>
   1410e:	20c15603          	lhu	a2,524(sp)
   14112:	18210493          	addi	s1,sp,386
   14116:	18310793          	addi	a5,sp,387
   1411a:	4711                	li	a4,4
   1411c:	04c75463          	bge	a4,a2,14164 <_ldtoa_r+0x4d0>
   14120:	4715                	li	a4,5
   14122:	70e60d63          	beq	a2,a4,1483c <_ldtoa_r+0xba8>
   14126:	ffe7c703          	lbu	a4,-2(a5)
   1412a:	ffe78693          	addi	a3,a5,-2
   1412e:	07f77713          	andi	a4,a4,127
   14132:	02094463          	bltz	s2,1415a <_ldtoa_r+0x4c6>
   14136:	02e00793          	li	a5,46
   1413a:	03800613          	li	a2,56
   1413e:	03000593          	li	a1,48
   14142:	6af70863          	beq	a4,a5,147f2 <_ldtoa_r+0xb5e>
   14146:	6ae67263          	bgeu	a2,a4,147ea <_ldtoa_r+0xb56>
   1414a:	fff6c703          	lbu	a4,-1(a3)
   1414e:	00b68023          	sb	a1,0(a3)
   14152:	16fd                	addi	a3,a3,-1
   14154:	07f77713          	andi	a4,a4,127
   14158:	b7ed                	j	14142 <_ldtoa_r+0x4ae>
   1415a:	03100713          	li	a4,49
   1415e:	fee78f23          	sb	a4,-2(a5)
   14162:	2405                	addiw	s0,s0,1
   14164:	65f5                	lui	a1,0x1d
   14166:	8622                	mv	a2,s0
   14168:	97858593          	addi	a1,a1,-1672 # 1c978 <blanks.1+0x70>
   1416c:	8526                	mv	a0,s1
   1416e:	761010ef          	jal	ra,160ce <sprintf>
   14172:	09000793          	li	a5,144
   14176:	7742                	ld	a4,48(sp)
   14178:	1cf12223          	sw	a5,452(sp)
   1417c:	67a1                	lui	a5,0x8
   1417e:	1c812823          	sw	s0,464(sp)
   14182:	17fd                	addi	a5,a5,-1 # 7fff <exit-0x80e9>
   14184:	f6f705e3          	beq	a4,a5,140ee <_ldtoa_r+0x45a>
   14188:	7682                	ld	a3,32(sp)
   1418a:	18014703          	lbu	a4,384(sp)
   1418e:	0014079b          	addiw	a5,s0,1
   14192:	c29c                	sw	a5,0(a3)
   14194:	4c070363          	beqz	a4,1465a <_ldtoa_r+0x9c6>
   14198:	87de                	mv	a5,s7
   1419a:	02e00693          	li	a3,46
   1419e:	26d70063          	beq	a4,a3,143fe <_ldtoa_r+0x76a>
   141a2:	0017c703          	lbu	a4,1(a5)
   141a6:	0785                	addi	a5,a5,1
   141a8:	fb7d                	bnez	a4,1419e <_ldtoa_r+0x50a>
   141aa:	04500693          	li	a3,69
   141ae:	00fbe563          	bltu	s7,a5,141b8 <_ldtoa_r+0x524>
   141b2:	a801                	j	141c2 <_ldtoa_r+0x52e>
   141b4:	4b778363          	beq	a5,s7,1465a <_ldtoa_r+0x9c6>
   141b8:	fff7c703          	lbu	a4,-1(a5)
   141bc:	17fd                	addi	a5,a5,-1
   141be:	fed71be3          	bne	a4,a3,141b4 <_ldtoa_r+0x520>
   141c2:	00078023          	sb	zero,0(a5)
   141c6:	87de                	mv	a5,s7
   141c8:	02000693          	li	a3,32
   141cc:	02d00613          	li	a2,45
   141d0:	0007c703          	lbu	a4,0(a5)
   141d4:	00d70463          	beq	a4,a3,141dc <_ldtoa_r+0x548>
   141d8:	00c71463          	bne	a4,a2,141e0 <_ldtoa_r+0x54c>
   141dc:	0785                	addi	a5,a5,1
   141de:	bfcd                	j	141d0 <_ldtoa_r+0x53c>
   141e0:	86de                	mv	a3,s7
   141e2:	0007c703          	lbu	a4,0(a5)
   141e6:	8936                	mv	s2,a3
   141e8:	0785                	addi	a5,a5,1
   141ea:	00e68023          	sb	a4,0(a3)
   141ee:	0685                	addi	a3,a3,1
   141f0:	fb6d                	bnez	a4,141e2 <_ldtoa_r+0x54e>
   141f2:	6722                	ld	a4,8(sp)
   141f4:	4789                	li	a5,2
   141f6:	fff94683          	lbu	a3,-1(s2)
   141fa:	1ef70863          	beq	a4,a5,143ea <_ldtoa_r+0x756>
   141fe:	6742                	ld	a4,16(sp)
   14200:	87ba                	mv	a5,a4
   14202:	00875363          	bge	a4,s0,14208 <_ldtoa_r+0x574>
   14206:	87a2                	mv	a5,s0
   14208:	03000613          	li	a2,48
   1420c:	0007871b          	sext.w	a4,a5
   14210:	02c69463          	bne	a3,a2,14238 <_ldtoa_r+0x5a4>
   14214:	417907b3          	sub	a5,s2,s7
   14218:	02f75063          	bge	a4,a5,14238 <_ldtoa_r+0x5a4>
   1421c:	03000693          	li	a3,48
   14220:	a029                	j	1422a <_ldtoa_r+0x596>
   14222:	417907b3          	sub	a5,s2,s7
   14226:	00f75963          	bge	a4,a5,14238 <_ldtoa_r+0x5a4>
   1422a:	ffe94783          	lbu	a5,-2(s2)
   1422e:	fe090fa3          	sb	zero,-1(s2)
   14232:	197d                	addi	s2,s2,-1
   14234:	fed787e3          	beq	a5,a3,14222 <_ldtoa_r+0x58e>
   14238:	6722                	ld	a4,8(sp)
   1423a:	478d                	li	a5,3
   1423c:	18f70263          	beq	a4,a5,143c0 <_ldtoa_r+0x72c>
   14240:	67e2                	ld	a5,24(sp)
   14242:	46fd                	li	a3,31
   14244:	4705                	li	a4,1
   14246:	0097849b          	addiw	s1,a5,9
   1424a:	4791                	li	a5,4
   1424c:	1896fb63          	bgeu	a3,s1,143e2 <_ldtoa_r+0x74e>
   14250:	0017979b          	slliw	a5,a5,0x1
   14254:	01c78693          	addi	a3,a5,28
   14258:	0007061b          	sext.w	a2,a4
   1425c:	2705                	addiw	a4,a4,1
   1425e:	fed4f9e3          	bgeu	s1,a3,14250 <_ldtoa_r+0x5bc>
   14262:	0006059b          	sext.w	a1,a2
   14266:	06ba2423          	sw	a1,104(s4)
   1426a:	8552                	mv	a0,s4
   1426c:	0ca010ef          	jal	ra,15336 <_Balloc>
   14270:	842a                	mv	s0,a0
   14272:	74050d63          	beqz	a0,149cc <_ldtoa_r+0xd38>
   14276:	06aa3023          	sd	a0,96(s4)
   1427a:	85de                	mv	a1,s7
   1427c:	787010ef          	jal	ra,16202 <strcpy>
   14280:	7722                	ld	a4,40(sp)
   14282:	c709                	beqz	a4,1428c <_ldtoa_r+0x5f8>
   14284:	417907b3          	sub	a5,s2,s7
   14288:	97a2                	add	a5,a5,s0
   1428a:	e31c                	sd	a5,0(a4)
   1428c:	27813083          	ld	ra,632(sp)
   14290:	8522                	mv	a0,s0
   14292:	27013403          	ld	s0,624(sp)
   14296:	26813483          	ld	s1,616(sp)
   1429a:	26013903          	ld	s2,608(sp)
   1429e:	25813983          	ld	s3,600(sp)
   142a2:	25013a03          	ld	s4,592(sp)
   142a6:	24813a83          	ld	s5,584(sp)
   142aa:	24013b03          	ld	s6,576(sp)
   142ae:	23813b83          	ld	s7,568(sp)
   142b2:	23013c03          	ld	s8,560(sp)
   142b6:	22813c83          	ld	s9,552(sp)
   142ba:	22013d03          	ld	s10,544(sp)
   142be:	21813d83          	ld	s11,536(sp)
   142c2:	28010113          	addi	sp,sp,640
   142c6:	8082                	ret
   142c8:	67a1                	lui	a5,0x8
   142ca:	17fd                	addi	a5,a5,-1 # 7fff <exit-0x80e9>
   142cc:	4efb0e63          	beq	s6,a5,147c8 <_ldtoa_r+0xb34>
   142d0:	0d011783          	lh	a5,208(sp)
   142d4:	5407db63          	bgez	a5,1482a <_ldtoa_r+0xb96>
   142d8:	018c                	addi	a1,sp,192
   142da:	c20d0513          	addi	a0,s10,-992
   142de:	b75fe0ef          	jal	ra,12e52 <ecmp>
   142e2:	ac0508e3          	beqz	a0,13db2 <_ldtoa_r+0x11e>
   142e6:	18054763          	bltz	a0,14474 <_ldtoa_r+0x7e0>
   142ea:	5a0b1763          	bnez	s6,14898 <_ldtoa_r+0xc04>
   142ee:	0d011783          	lh	a5,208(sp)
   142f2:	4401                	li	s0,0
   142f4:	1c010c13          	addi	s8,sp,448
   142f8:	0007cf63          	bltz	a5,14316 <_ldtoa_r+0x682>
   142fc:	6df5                	lui	s11,0x1d
   142fe:	0190                	addi	a2,sp,192
   14300:	86e2                	mv	a3,s8
   14302:	85b2                	mv	a1,a2
   14304:	c08d8513          	addi	a0,s11,-1016 # 1cc08 <etens+0xf0>
   14308:	ddeff0ef          	jal	ra,138e6 <emul>
   1430c:	0d011783          	lh	a5,208(sp)
   14310:	347d                	addiw	s0,s0,-1
   14312:	fe07d6e3          	bgez	a5,142fe <_ldtoa_r+0x66a>
   14316:	12010993          	addi	s3,sp,288
   1431a:	13810c93          	addi	s9,sp,312
   1431e:	87ce                	mv	a5,s3
   14320:	0198                	addi	a4,sp,192
   14322:	1a50                	addi	a2,sp,308
   14324:	00075683          	lhu	a3,0(a4)
   14328:	0789                	addi	a5,a5,2
   1432a:	0709                	addi	a4,a4,2
   1432c:	fed79f23          	sh	a3,-2(a5)
   14330:	fec79ae3          	bne	a5,a2,14324 <_ldtoa_r+0x690>
   14334:	67f5                	lui	a5,0x1d
   14336:	1198                	addi	a4,sp,224
   14338:	c2078793          	addi	a5,a5,-992 # 1cc20 <eone>
   1433c:	0007d683          	lhu	a3,0(a5)
   14340:	0789                	addi	a5,a5,2
   14342:	0709                	addi	a4,a4,2
   14344:	fed71f23          	sh	a3,-2(a4)
   14348:	ff279ae3          	bne	a5,s2,1433c <_ldtoa_r+0x6a8>
   1434c:	67f5                	lui	a5,0x1d
   1434e:	b1878d93          	addi	s11,a5,-1256 # 1cb18 <etens>
   14352:	6975                	lui	s2,0x1d
   14354:	67f5                	lui	a5,0x1d
   14356:	7bfd                	lui	s7,0xfffff
   14358:	a1090913          	addi	s2,s2,-1520 # 1ca10 <emtens>
   1435c:	b0078a93          	addi	s5,a5,-1280 # 1cb00 <emtens+0xf0>
   14360:	a019                	j	14366 <_ldtoa_r+0x6d2>
   14362:	0951                	addi	s2,s2,20
   14364:	0dd1                	addi	s11,s11,20
   14366:	85ce                	mv	a1,s3
   14368:	c20d0513          	addi	a0,s10,-992
   1436c:	ae7fe0ef          	jal	ra,12e52 <ecmp>
   14370:	02a05e63          	blez	a0,143ac <_ldtoa_r+0x718>
   14374:	85ce                	mv	a1,s3
   14376:	854a                	mv	a0,s2
   14378:	adbfe0ef          	jal	ra,12e52 <ecmp>
   1437c:	02054063          	bltz	a0,1439c <_ldtoa_r+0x708>
   14380:	86e2                	mv	a3,s8
   14382:	864e                	mv	a2,s3
   14384:	85ce                	mv	a1,s3
   14386:	856e                	mv	a0,s11
   14388:	d5eff0ef          	jal	ra,138e6 <emul>
   1438c:	1190                	addi	a2,sp,224
   1438e:	86e2                	mv	a3,s8
   14390:	85b2                	mv	a1,a2
   14392:	856e                	mv	a0,s11
   14394:	d52ff0ef          	jal	ra,138e6 <emul>
   14398:	008b843b          	addw	s0,s7,s0
   1439c:	01fbd79b          	srliw	a5,s7,0x1f
   143a0:	017787bb          	addw	a5,a5,s7
   143a4:	4017db9b          	sraiw	s7,a5,0x1
   143a8:	fb591de3          	bne	s2,s5,14362 <_ldtoa_r+0x6ce>
   143ac:	1190                	addi	a2,sp,224
   143ae:	86e2                	mv	a3,s8
   143b0:	c20d0593          	addi	a1,s10,-992
   143b4:	8532                	mv	a0,a2
   143b6:	908ff0ef          	jal	ra,134be <ediv>
   143ba:	18010b93          	addi	s7,sp,384
   143be:	b419                	j	13dc4 <_ldtoa_r+0x130>
   143c0:	67c2                	ld	a5,16(sp)
   143c2:	9c3d                	addw	s0,s0,a5
   143c4:	3e044363          	bltz	s0,147aa <_ldtoa_r+0xb16>
   143c8:	7782                	ld	a5,32(sp)
   143ca:	6762                	ld	a4,24(sp)
   143cc:	439c                	lw	a5,0(a5)
   143ce:	9fb9                	addw	a5,a5,a4
   143d0:	ec3e                	sd	a5,24(sp)
   143d2:	67e2                	ld	a5,24(sp)
   143d4:	46fd                	li	a3,31
   143d6:	4705                	li	a4,1
   143d8:	0037849b          	addiw	s1,a5,3
   143dc:	4791                	li	a5,4
   143de:	e696e9e3          	bltu	a3,s1,14250 <_ldtoa_r+0x5bc>
   143e2:	060a2423          	sw	zero,104(s4)
   143e6:	4581                	li	a1,0
   143e8:	b549                	j	1426a <_ldtoa_r+0x5d6>
   143ea:	03000793          	li	a5,48
   143ee:	e4f699e3          	bne	a3,a5,14240 <_ldtoa_r+0x5ac>
   143f2:	417907b3          	sub	a5,s2,s7
   143f6:	4705                	li	a4,1
   143f8:	e2f742e3          	blt	a4,a5,1421c <_ldtoa_r+0x588>
   143fc:	b591                	j	14240 <_ldtoa_r+0x5ac>
   143fe:	0007c703          	lbu	a4,0(a5)
   14402:	da0704e3          	beqz	a4,141aa <_ldtoa_r+0x516>
   14406:	0017c703          	lbu	a4,1(a5)
   1440a:	0785                	addi	a5,a5,1
   1440c:	fee78fa3          	sb	a4,-1(a5)
   14410:	d8070de3          	beqz	a4,141aa <_ldtoa_r+0x516>
   14414:	0017c703          	lbu	a4,1(a5)
   14418:	0785                	addi	a5,a5,1
   1441a:	fee78fa3          	sb	a4,-1(a5)
   1441e:	f765                	bnez	a4,14406 <_ldtoa_r+0x772>
   14420:	b369                	j	141aa <_ldtoa_r+0x516>
   14422:	03100713          	li	a4,49
   14426:	18e100a3          	sb	a4,385(sp)
   1442a:	02e00713          	li	a4,46
   1442e:	18e10123          	sb	a4,386(sp)
   14432:	2405                	addiw	s0,s0,1
   14434:	20f05d63          	blez	a5,1464e <_ldtoa_r+0x9ba>
   14438:	03000793          	li	a5,48
   1443c:	18f101a3          	sb	a5,387(sp)
   14440:	397d                	addiw	s2,s2,-1
   14442:	0344                	addi	s1,sp,388
   14444:	b60d                	j	13f66 <_ldtoa_r+0x2d2>
   14446:	6762                	ld	a4,24(sp)
   14448:	02a00793          	li	a5,42
   1444c:	8b3a                	mv	s6,a4
   1444e:	00e7d463          	bge	a5,a4,14456 <_ldtoa_r+0x7c2>
   14452:	02a00b13          	li	s6,42
   14456:	000b079b          	sext.w	a5,s6
   1445a:	e83e                	sd	a5,16(sp)
   1445c:	b0f5                	j	13d48 <_ldtoa_r+0xb4>
   1445e:	67e2                	ld	a5,24(sp)
   14460:	fff78b1b          	addiw	s6,a5,-1
   14464:	02a00793          	li	a5,42
   14468:	0167d463          	bge	a5,s6,14470 <_ldtoa_r+0x7dc>
   1446c:	02a00b13          	li	s6,42
   14470:	e85a                	sd	s6,16(sp)
   14472:	b8d9                	j	13d48 <_ldtoa_r+0xb4>
   14474:	10010c93          	addi	s9,sp,256
   14478:	8766                	mv	a4,s9
   1447a:	019c                	addi	a5,sp,192
   1447c:	0007d683          	lhu	a3,0(a5)
   14480:	0789                	addi	a5,a5,2
   14482:	0709                	addi	a4,a4,2
   14484:	fed71f23          	sh	a3,-2(a4)
   14488:	fe879ae3          	bne	a5,s0,1447c <_ldtoa_r+0x7e8>
   1448c:	6791                	lui	a5,0x4
   1448e:	08e78793          	addi	a5,a5,142 # 408e <exit-0xc05a>
   14492:	10f11923          	sh	a5,274(sp)
   14496:	47c1                	li	a5,16
   14498:	fc3e                	sd	a5,56(sp)
   1449a:	67f5                	lui	a5,0x1d
   1449c:	c1c78793          	addi	a5,a5,-996 # 1cc1c <etens+0x104>
   144a0:	ecbe                	sd	a5,88(sp)
   144a2:	67a1                	lui	a5,0x8
   144a4:	17fd                	addi	a5,a5,-1 # 7fff <exit-0x80e9>
   144a6:	e4be                	sd	a5,72(sp)
   144a8:	77f1                	lui	a5,0xffffc
   144aa:	2789                	addiw	a5,a5,2 # ffffffffffffc002 <__BSS_END__+0xfffffffffffdc892>
   144ac:	cabe                	sw	a5,84(sp)
   144ae:	67f5                	lui	a5,0x1d
   144b0:	6ef5                	lui	t4,0x1d
   144b2:	9e878793          	addi	a5,a5,-1560 # 1c9e8 <bmask>
   144b6:	4401                	li	s0,0
   144b8:	bb8e8e93          	addi	t4,t4,-1096 # 1cbb8 <etens+0xa0>
   144bc:	18010b93          	addi	s7,sp,384
   144c0:	1c010c13          	addi	s8,sp,448
   144c4:	12010993          	addi	s3,sp,288
   144c8:	0f210d93          	addi	s11,sp,242
   144cc:	f0be                	sd	a5,96(sp)
   144ce:	0f410a93          	addi	s5,sp,244
   144d2:	8576                	mv	a0,t4
   144d4:	86e2                	mv	a3,s8
   144d6:	1190                	addi	a2,sp,224
   144d8:	85e6                	mv	a1,s9
   144da:	e0f6                	sd	t4,64(sp)
   144dc:	fe3fe0ef          	jal	ra,134be <ediv>
   144e0:	6e86                	ld	t4,64(sp)
   144e2:	013c                	addi	a5,sp,136
   144e4:	1198                	addi	a4,sp,224
   144e6:	09c10813          	addi	a6,sp,156
   144ea:	00075683          	lhu	a3,0(a4)
   144ee:	0789                	addi	a5,a5,2
   144f0:	0709                	addi	a4,a4,2
   144f2:	fed79f23          	sh	a3,-2(a5)
   144f6:	ff079ae3          	bne	a5,a6,144ea <_ldtoa_r+0x856>
   144fa:	67a6                	ld	a5,72(sp)
   144fc:	09a15583          	lhu	a1,154(sp)
   14500:	00f5f533          	and	a0,a1,a5
   14504:	47d6                	lw	a5,84(sp)
   14506:	9fa9                	addw	a5,a5,a0
   14508:	853e                	mv	a0,a5
   1450a:	2af05763          	blez	a5,147b8 <_ldtoa_r+0xb24>
   1450e:	09000793          	li	a5,144
   14512:	40a7863b          	subw	a2,a5,a0
   14516:	874e                	mv	a4,s3
   14518:	013c                	addi	a5,sp,136
   1451a:	0007d683          	lhu	a3,0(a5)
   1451e:	0789                	addi	a5,a5,2
   14520:	0709                	addi	a4,a4,2
   14522:	fed71f23          	sh	a3,-2(a4)
   14526:	ff079ae3          	bne	a5,a6,1451a <_ldtoa_r+0x886>
   1452a:	04c05963          	blez	a2,1457c <_ldtoa_r+0x8e8>
   1452e:	47bd                	li	a5,15
   14530:	874e                	mv	a4,s3
   14532:	02c7d763          	bge	a5,a2,14560 <_ldtoa_r+0x8cc>
   14536:	08000693          	li	a3,128
   1453a:	9e89                	subw	a3,a3,a0
   1453c:	0046d69b          	srliw	a3,a3,0x4
   14540:	0016871b          	addiw	a4,a3,1
   14544:	0706                	slli	a4,a4,0x1
   14546:	974e                	add	a4,a4,s3
   14548:	87ce                	mv	a5,s3
   1454a:	0789                	addi	a5,a5,2
   1454c:	fe079f23          	sh	zero,-2(a5)
   14550:	fee79de3          	bne	a5,a4,1454a <_ldtoa_r+0x8b6>
   14554:	08000613          	li	a2,128
   14558:	9e09                	subw	a2,a2,a0
   1455a:	0046969b          	slliw	a3,a3,0x4
   1455e:	9e15                	subw	a2,a2,a3
   14560:	7686                	ld	a3,96(sp)
   14562:	00161793          	slli	a5,a2,0x1
   14566:	97b6                	add	a5,a5,a3
   14568:	0007d783          	lhu	a5,0(a5)
   1456c:	00075683          	lhu	a3,0(a4)
   14570:	8ff5                	and	a5,a5,a3
   14572:	00f71023          	sh	a5,0(a4)
   14576:	81bd                	srli	a1,a1,0xf
   14578:	10059163          	bnez	a1,1467a <_ldtoa_r+0x9e6>
   1457c:	119c                	addi	a5,sp,224
   1457e:	874e                	mv	a4,s3
   14580:	0007d603          	lhu	a2,0(a5)
   14584:	00075683          	lhu	a3,0(a4)
   14588:	02d61263          	bne	a2,a3,145ac <_ldtoa_r+0x918>
   1458c:	0789                	addi	a5,a5,2
   1458e:	0709                	addi	a4,a4,2
   14590:	ffb798e3          	bne	a5,s11,14580 <_ldtoa_r+0x8ec>
   14594:	8766                	mv	a4,s9
   14596:	119c                	addi	a5,sp,224
   14598:	0007d683          	lhu	a3,0(a5)
   1459c:	0789                	addi	a5,a5,2
   1459e:	0709                	addi	a4,a4,2
   145a0:	fed71f23          	sh	a3,-2(a4)
   145a4:	ff579ae3          	bne	a5,s5,14598 <_ldtoa_r+0x904>
   145a8:	77e2                	ld	a5,56(sp)
   145aa:	9c3d                	addw	s0,s0,a5
   145ac:	77e2                	ld	a5,56(sp)
   145ae:	0ed1                	addi	t4,t4,20
   145b0:	8385                	srli	a5,a5,0x1
   145b2:	fc3e                	sd	a5,56(sp)
   145b4:	67e6                	ld	a5,88(sp)
   145b6:	f0fe9ee3          	bne	t4,a5,144d2 <_ldtoa_r+0x83e>
   145ba:	11215703          	lhu	a4,274(sp)
   145be:	77f1                	lui	a5,0xffffc
   145c0:	f727879b          	addiw	a5,a5,-142 # ffffffffffffbf72 <__BSS_END__+0xfffffffffffdc802>
   145c4:	9fb9                	addw	a5,a5,a4
   145c6:	016787bb          	addw	a5,a5,s6
   145ca:	10f11923          	sh	a5,274(sp)
   145ce:	0198                	addi	a4,sp,192
   145d0:	87e6                	mv	a5,s9
   145d2:	0a50                	addi	a2,sp,276
   145d4:	0007d683          	lhu	a3,0(a5)
   145d8:	0789                	addi	a5,a5,2
   145da:	0709                	addi	a4,a4,2
   145dc:	fed71f23          	sh	a3,-2(a4)
   145e0:	fec79ae3          	bne	a5,a2,145d4 <_ldtoa_r+0x940>
   145e4:	67f5                	lui	a5,0x1d
   145e6:	1198                	addi	a4,sp,224
   145e8:	c2078793          	addi	a5,a5,-992 # 1cc20 <eone>
   145ec:	0007d683          	lhu	a3,0(a5)
   145f0:	0789                	addi	a5,a5,2
   145f2:	0709                	addi	a4,a4,2
   145f4:	fed71f23          	sh	a3,-2(a4)
   145f8:	ff279ae3          	bne	a5,s2,145ec <_ldtoa_r+0x958>
   145fc:	6975                	lui	s2,0x1d
   145fe:	6d05                	lui	s10,0x1
   14600:	b1890913          	addi	s2,s2,-1256 # 1cb18 <etens>
   14604:	6df5                	lui	s11,0x1d
   14606:	a801                	j	14616 <_ldtoa_r+0x982>
   14608:	c08d8793          	addi	a5,s11,-1016 # 1cc08 <etens+0xf0>
   1460c:	001d5d13          	srli	s10,s10,0x1
   14610:	1cf90963          	beq	s2,a5,147e2 <_ldtoa_r+0xb4e>
   14614:	0951                	addi	s2,s2,20
   14616:	85e6                	mv	a1,s9
   14618:	c08d8513          	addi	a0,s11,-1016
   1461c:	837fe0ef          	jal	ra,12e52 <ecmp>
   14620:	1ca04163          	bgtz	a0,147e2 <_ldtoa_r+0xb4e>
   14624:	85e6                	mv	a1,s9
   14626:	854a                	mv	a0,s2
   14628:	82bfe0ef          	jal	ra,12e52 <ecmp>
   1462c:	fca04ee3          	bgtz	a0,14608 <_ldtoa_r+0x974>
   14630:	86e2                	mv	a3,s8
   14632:	8666                	mv	a2,s9
   14634:	85e6                	mv	a1,s9
   14636:	854a                	mv	a0,s2
   14638:	e87fe0ef          	jal	ra,134be <ediv>
   1463c:	1190                	addi	a2,sp,224
   1463e:	86e2                	mv	a3,s8
   14640:	85b2                	mv	a1,a2
   14642:	854a                	mv	a0,s2
   14644:	aa2ff0ef          	jal	ra,138e6 <emul>
   14648:	008d043b          	addw	s0,s10,s0
   1464c:	bf75                	j	14608 <_ldtoa_r+0x974>
   1464e:	18310493          	addi	s1,sp,387
   14652:	4901                	li	s2,0
   14654:	b00798e3          	bnez	a5,14164 <_ldtoa_r+0x4d0>
   14658:	b239                	j	13f66 <_ldtoa_r+0x2d2>
   1465a:	87de                	mv	a5,s7
   1465c:	b69d                	j	141c2 <_ldtoa_r+0x52e>
   1465e:	6762                	ld	a4,24(sp)
   14660:	02a00793          	li	a5,42
   14664:	8b3a                	mv	s6,a4
   14666:	00e7d463          	bge	a5,a4,1466e <_ldtoa_r+0x9da>
   1466a:	02a00b13          	li	s6,42
   1466e:	000b079b          	sext.w	a5,s6
   14672:	e83e                	sd	a5,16(sp)
   14674:	bc3d                	j	140b2 <_ldtoa_r+0x41e>
   14676:	4681                	li	a3,0
   14678:	bc19                	j	1408e <_ldtoa_r+0x3fa>
   1467a:	013c                	addi	a5,sp,136
   1467c:	874e                	mv	a4,s3
   1467e:	a039                	j	1468c <_ldtoa_r+0x9f8>
   14680:	0789                	addi	a5,a5,2
   14682:	09a10693          	addi	a3,sp,154
   14686:	0709                	addi	a4,a4,2
   14688:	eed78ae3          	beq	a5,a3,1457c <_ldtoa_r+0x8e8>
   1468c:	0007d603          	lhu	a2,0(a5)
   14690:	00075683          	lhu	a3,0(a4)
   14694:	fed606e3          	beq	a2,a3,14680 <_ldtoa_r+0x9ec>
   14698:	13215783          	lhu	a5,306(sp)
   1469c:	fff7c793          	not	a5,a5
   146a0:	03179713          	slli	a4,a5,0x31
   146a4:	2c070563          	beqz	a4,1496e <_ldtoa_r+0xcda>
   146a8:	028c                	addi	a1,sp,320
   146aa:	c20d0513          	addi	a0,s10,-992 # c20 <exit-0xf4c8>
   146ae:	e0f6                	sd	t4,64(sp)
   146b0:	f0efe0ef          	jal	ra,12dbe <emovi>
   146b4:	128c                	addi	a1,sp,352
   146b6:	854e                	mv	a0,s3
   146b8:	f06fe0ef          	jal	ra,12dbe <emovi>
   146bc:	14015783          	lhu	a5,320(sp)
   146c0:	16215703          	lhu	a4,354(sp)
   146c4:	14215f03          	lhu	t5,322(sp)
   146c8:	fff7c793          	not	a5,a5
   146cc:	14f11023          	sh	a5,320(sp)
   146d0:	40ef05b3          	sub	a1,t5,a4
   146d4:	6e86                	ld	t4,64(sp)
   146d6:	86ba                	mv	a3,a4
   146d8:	04b05e63          	blez	a1,14734 <_ldtoa_r+0xaa0>
   146dc:	128c                	addi	a1,sp,352
   146de:	86de                	mv	a3,s7
   146e0:	1abc                	addi	a5,sp,376
   146e2:	855e                	mv	a0,s7
   146e4:	862e                	mv	a2,a1
   146e6:	00063f83          	ld	t6,0(a2)
   146ea:	0621                	addi	a2,a2,8
   146ec:	0521                	addi	a0,a0,8
   146ee:	fff53c23          	sd	t6,-8(a0)
   146f2:	fec79ae3          	bne	a5,a2,146e6 <_ldtoa_r+0xa52>
   146f6:	0290                	addi	a2,sp,320
   146f8:	18011c23          	sh	zero,408(sp)
   146fc:	0aa8                	addi	a0,sp,344
   146fe:	87b2                	mv	a5,a2
   14700:	0007bf83          	ld	t6,0(a5)
   14704:	07a1                	addi	a5,a5,8
   14706:	05a1                	addi	a1,a1,8
   14708:	fff5bc23          	sd	t6,-8(a1)
   1470c:	fea79ae3          	bne	a5,a0,14700 <_ldtoa_r+0xa6c>
   14710:	16011c23          	sh	zero,376(sp)
   14714:	018b8793          	addi	a5,s7,24 # fffffffffffff018 <__BSS_END__+0xfffffffffffdf8a8>
   14718:	628c                	ld	a1,0(a3)
   1471a:	06a1                	addi	a3,a3,8
   1471c:	0621                	addi	a2,a2,8
   1471e:	feb63c23          	sd	a1,-8(a2)
   14722:	fef69be3          	bne	a3,a5,14718 <_ldtoa_r+0xa84>
   14726:	16215683          	lhu	a3,354(sp)
   1472a:	41e705b3          	sub	a1,a4,t5
   1472e:	14011c23          	sh	zero,344(sp)
   14732:	8736                	mv	a4,a3
   14734:	26058063          	beqz	a1,14994 <_ldtoa_r+0xd00>
   14738:	f4b6                	sd	a3,104(sp)
   1473a:	f6f00793          	li	a5,-145
   1473e:	04f5cf63          	blt	a1,a5,1479c <_ldtoa_r+0xb08>
   14742:	2581                	sext.w	a1,a1
   14744:	0288                	addi	a0,sp,320
   14746:	e0f6                	sd	t4,64(sp)
   14748:	d2efe0ef          	jal	ra,12c76 <eshift.part.0>
   1474c:	6e86                	ld	t4,64(sp)
   1474e:	76a6                	ld	a3,104(sp)
   14750:	85aa                	mv	a1,a0
   14752:	1abc                	addi	a5,sp,376
   14754:	14015603          	lhu	a2,320(sp)
   14758:	16015703          	lhu	a4,352(sp)
   1475c:	4501                	li	a0,0
   1475e:	34e60163          	beq	a2,a4,14aa0 <_ldtoa_r+0xe0c>
   14762:	15810f13          	addi	t5,sp,344
   14766:	16210613          	addi	a2,sp,354
   1476a:	0007d703          	lhu	a4,0(a5)
   1476e:	000f5f83          	lhu	t6,0(t5)
   14772:	17f9                	addi	a5,a5,-2
   14774:	1f79                	addi	t5,t5,-2
   14776:	41f70733          	sub	a4,a4,t6
   1477a:	8f09                	sub	a4,a4,a0
   1477c:	01075513          	srli	a0,a4,0x10
   14780:	00e79123          	sh	a4,2(a5)
   14784:	8905                	andi	a0,a0,1
   14786:	fec792e3          	bne	a5,a2,1476a <_ldtoa_r+0xad6>
   1478a:	4605                	li	a2,1
   1478c:	87e2                	mv	a5,s8
   1478e:	04000713          	li	a4,64
   14792:	1288                	addi	a0,sp,352
   14794:	e0f6                	sd	t4,64(sp)
   14796:	fa4fe0ef          	jal	ra,12f3a <emdnorm>
   1479a:	6e86                	ld	t4,64(sp)
   1479c:	85ce                	mv	a1,s3
   1479e:	1288                	addi	a0,sp,352
   147a0:	e0f6                	sd	t4,64(sp)
   147a2:	b3cfe0ef          	jal	ra,12ade <emovo.constprop.0>
   147a6:	6e86                	ld	t4,64(sp)
   147a8:	bbd1                	j	1457c <_ldtoa_r+0x8e8>
   147aa:	7782                	ld	a5,32(sp)
   147ac:	18010023          	sb	zero,384(sp)
   147b0:	895e                	mv	s2,s7
   147b2:	0007a023          	sw	zero,0(a5)
   147b6:	b931                	j	143d2 <_ldtoa_r+0x73e>
   147b8:	87ce                	mv	a5,s3
   147ba:	0789                	addi	a5,a5,2
   147bc:	1a58                	addi	a4,sp,308
   147be:	fe079f23          	sh	zero,-2(a5)
   147c2:	fee79ce3          	bne	a5,a4,147ba <_ldtoa_r+0xb26>
   147c6:	bb45                	j	14576 <_ldtoa_r+0x8e2>
   147c8:	18010b93          	addi	s7,sp,384
   147cc:	c8dd                	beqz	s1,14882 <_ldtoa_r+0xbee>
   147ce:	65f5                	lui	a1,0x1d
   147d0:	95058593          	addi	a1,a1,-1712 # 1c950 <blanks.1+0x48>
   147d4:	855e                	mv	a0,s7
   147d6:	0f9010ef          	jal	ra,160ce <sprintf>
   147da:	6409                	lui	s0,0x2
   147dc:	70f40413          	addi	s0,s0,1807 # 270f <exit-0xd9d9>
   147e0:	ba49                	j	14172 <_ldtoa_r+0x4de>
   147e2:	13810c93          	addi	s9,sp,312
   147e6:	ddeff06f          	j	13dc4 <_ldtoa_r+0x130>
   147ea:	2705                	addiw	a4,a4,1
   147ec:	00e68023          	sb	a4,0(a3)
   147f0:	ba95                	j	14164 <_ldtoa_r+0x4d0>
   147f2:	fff6c783          	lbu	a5,-1(a3)
   147f6:	03800713          	li	a4,56
   147fa:	08f77b63          	bgeu	a4,a5,14890 <_ldtoa_r+0xbfc>
   147fe:	03100793          	li	a5,49
   14802:	2405                	addiw	s0,s0,1
   14804:	fef68fa3          	sb	a5,-1(a3)
   14808:	bab1                	j	14164 <_ldtoa_r+0x4d0>
   1480a:	111c                	addi	a5,sp,160
   1480c:	0b210693          	addi	a3,sp,178
   14810:	a019                	j	14816 <_ldtoa_r+0xb82>
   14812:	96d78be3          	beq	a5,a3,14188 <_ldtoa_r+0x4f4>
   14816:	0007d703          	lhu	a4,0(a5)
   1481a:	0789                	addi	a5,a5,2
   1481c:	db7d                	beqz	a4,14812 <_ldtoa_r+0xb7e>
   1481e:	7702                	ld	a4,32(sp)
   14820:	6789                	lui	a5,0x2
   14822:	70f78793          	addi	a5,a5,1807 # 270f <exit-0xd9d9>
   14826:	c31c                	sw	a5,0(a4)
   14828:	ba79                	j	141c6 <_ldtoa_r+0x532>
   1482a:	18010b93          	addi	s7,sp,384
   1482e:	65f5                	lui	a1,0x1d
   14830:	97058593          	addi	a1,a1,-1680 # 1c970 <blanks.1+0x68>
   14834:	855e                	mv	a0,s7
   14836:	099010ef          	jal	ra,160ce <sprintf>
   1483a:	b745                	j	147da <_ldtoa_r+0xb46>
   1483c:	118c                	addi	a1,sp,224
   1483e:	0188                	addi	a0,sp,192
   14840:	fc3e                	sd	a5,56(sp)
   14842:	a9cfe0ef          	jal	ra,12ade <emovo.constprop.0>
   14846:	65f5                	lui	a1,0x1d
   14848:	c3858593          	addi	a1,a1,-968 # 1cc38 <ezero>
   1484c:	1188                	addi	a0,sp,224
   1484e:	e04fe0ef          	jal	ra,12e52 <ecmp>
   14852:	77e2                	ld	a5,56(sp)
   14854:	8c0519e3          	bnez	a0,14126 <_ldtoa_r+0x492>
   14858:	900946e3          	bltz	s2,14164 <_ldtoa_r+0x4d0>
   1485c:	ffe7c703          	lbu	a4,-2(a5)
   14860:	fd270693          	addi	a3,a4,-46
   14864:	0016b693          	seqz	a3,a3
   14868:	fff6c693          	not	a3,a3
   1486c:	96a6                	add	a3,a3,s1
   1486e:	0006c683          	lbu	a3,0(a3)
   14872:	8a85                	andi	a3,a3,1
   14874:	8e0688e3          	beqz	a3,14164 <_ldtoa_r+0x4d0>
   14878:	ffe78693          	addi	a3,a5,-2
   1487c:	07f77713          	andi	a4,a4,127
   14880:	b85d                	j	14136 <_ldtoa_r+0x4a2>
   14882:	65f5                	lui	a1,0x1d
   14884:	96058593          	addi	a1,a1,-1696 # 1c960 <blanks.1+0x58>
   14888:	855e                	mv	a0,s7
   1488a:	045010ef          	jal	ra,160ce <sprintf>
   1488e:	b7b1                	j	147da <_ldtoa_r+0xb46>
   14890:	2785                	addiw	a5,a5,1
   14892:	fef68fa3          	sb	a5,-1(a3)
   14896:	b0f9                	j	14164 <_ldtoa_r+0x4d0>
   14898:	12010993          	addi	s3,sp,288
   1489c:	85ce                	mv	a1,s3
   1489e:	0188                	addi	a0,sp,192
   148a0:	d1efe0ef          	jal	ra,12dbe <emovi>
   148a4:	6791                	lui	a5,0x4
   148a6:	17f9                	addi	a5,a5,-2 # 3ffe <exit-0xc0ea>
   148a8:	4401                	li	s0,0
   148aa:	13810c93          	addi	s9,sp,312
   148ae:	12210c13          	addi	s8,sp,290
   148b2:	fc3e                	sd	a5,56(sp)
   148b4:	11810b13          	addi	s6,sp,280
   148b8:	fd500a93          	li	s5,-43
   148bc:	13815783          	lhu	a5,312(sp)
   148c0:	8b9d                	andi	a5,a5,7
   148c2:	efd9                	bnez	a5,14960 <_ldtoa_r+0xccc>
   148c4:	10010b93          	addi	s7,sp,256
   148c8:	8dce                	mv	s11,s3
   148ca:	875e                	mv	a4,s7
   148cc:	87ce                	mv	a5,s3
   148ce:	6394                	ld	a3,0(a5)
   148d0:	07a1                	addi	a5,a5,8
   148d2:	0721                	addi	a4,a4,8
   148d4:	fed73c23          	sd	a3,-8(a4)
   148d8:	ff979be3          	bne	a5,s9,148ce <_ldtoa_r+0xc3a>
   148dc:	0208                	addi	a0,sp,256
   148de:	10011c23          	sh	zero,280(sp)
   148e2:	91afe0ef          	jal	ra,129fc <eshdn1>
   148e6:	0208                	addi	a0,sp,256
   148e8:	914fe0ef          	jal	ra,129fc <eshdn1>
   148ec:	4601                	li	a2,0
   148ee:	0a34                	addi	a3,sp,280
   148f0:	8766                	mv	a4,s9
   148f2:	0006d583          	lhu	a1,0(a3)
   148f6:	00075783          	lhu	a5,0(a4)
   148fa:	16f9                	addi	a3,a3,-2
   148fc:	1779                	addi	a4,a4,-2
   148fe:	97ae                	add	a5,a5,a1
   14900:	97b2                	add	a5,a5,a2
   14902:	0107d613          	srli	a2,a5,0x10
   14906:	00f69123          	sh	a5,2(a3)
   1490a:	8a05                	andi	a2,a2,1
   1490c:	ff8713e3          	bne	a4,s8,148f2 <_ldtoa_r+0xc5e>
   14910:	10215783          	lhu	a5,258(sp)
   14914:	10415703          	lhu	a4,260(sp)
   14918:	278d                	addiw	a5,a5,3
   1491a:	10f11123          	sh	a5,258(sp)
   1491e:	cf01                	beqz	a4,14936 <_ldtoa_r+0xca2>
   14920:	0208                	addi	a0,sp,256
   14922:	8dafe0ef          	jal	ra,129fc <eshdn1>
   14926:	10215783          	lhu	a5,258(sp)
   1492a:	10415703          	lhu	a4,260(sp)
   1492e:	2785                	addiw	a5,a5,1
   14930:	10f11123          	sh	a5,258(sp)
   14934:	f775                	bnez	a4,14920 <_ldtoa_r+0xc8c>
   14936:	11815783          	lhu	a5,280(sp)
   1493a:	e39d                	bnez	a5,14960 <_ldtoa_r+0xccc>
   1493c:	10215783          	lhu	a5,258(sp)
   14940:	7762                	ld	a4,56(sp)
   14942:	00f76f63          	bltu	a4,a5,14960 <_ldtoa_r+0xccc>
   14946:	000bb783          	ld	a5,0(s7)
   1494a:	0ba1                	addi	s7,s7,8
   1494c:	0da1                	addi	s11,s11,8
   1494e:	fefdbc23          	sd	a5,-8(s11)
   14952:	ff6b9ae3          	bne	s7,s6,14946 <_ldtoa_r+0xcb2>
   14956:	12011c23          	sh	zero,312(sp)
   1495a:	347d                	addiw	s0,s0,-1
   1495c:	f75410e3          	bne	s0,s5,148bc <_ldtoa_r+0xc28>
   14960:	018c                	addi	a1,sp,192
   14962:	854e                	mv	a0,s3
   14964:	97afe0ef          	jal	ra,12ade <emovo.constprop.0>
   14968:	1c010c13          	addi	s8,sp,448
   1496c:	ba4d                	j	1431e <_ldtoa_r+0x68a>
   1496e:	87ce                	mv	a5,s3
   14970:	13210713          	addi	a4,sp,306
   14974:	0007d683          	lhu	a3,0(a5)
   14978:	0789                	addi	a5,a5,2
   1497a:	c00691e3          	bnez	a3,1457c <_ldtoa_r+0x8e8>
   1497e:	fee79be3          	bne	a5,a4,14974 <_ldtoa_r+0xce0>
   14982:	87ce                	mv	a5,s3
   14984:	0007d683          	lhu	a3,0(a5)
   14988:	0789                	addi	a5,a5,2
   1498a:	d0069fe3          	bnez	a3,146a8 <_ldtoa_r+0xa14>
   1498e:	fee79be3          	bne	a5,a4,14984 <_ldtoa_r+0xcf0>
   14992:	b6ed                	j	1457c <_ldtoa_r+0x8e8>
   14994:	12d0                	addi	a2,sp,356
   14996:	02dc                	addi	a5,sp,324
   14998:	15a10f13          	addi	t5,sp,346
   1499c:	0007d503          	lhu	a0,0(a5)
   149a0:	00065583          	lhu	a1,0(a2)
   149a4:	0789                	addi	a5,a5,2
   149a6:	0609                	addi	a2,a2,2
   149a8:	02b51e63          	bne	a0,a1,149e4 <_ldtoa_r+0xd50>
   149ac:	ffe798e3          	bne	a5,t5,1499c <_ldtoa_r+0xd08>
   149b0:	14015603          	lhu	a2,320(sp)
   149b4:	16015783          	lhu	a5,352(sp)
   149b8:	08f60063          	beq	a2,a5,14a38 <_ldtoa_r+0xda4>
   149bc:	87ce                	mv	a5,s3
   149be:	1a50                	addi	a2,sp,308
   149c0:	0789                	addi	a5,a5,2
   149c2:	fe079f23          	sh	zero,-2(a5)
   149c6:	fec79de3          	bne	a5,a2,149c0 <_ldtoa_r+0xd2c>
   149ca:	be4d                	j	1457c <_ldtoa_r+0x8e8>
   149cc:	66f5                	lui	a3,0x1d
   149ce:	6585                	lui	a1,0x1
   149d0:	6575                	lui	a0,0x1d
   149d2:	98068693          	addi	a3,a3,-1664 # 1c980 <blanks.1+0x78>
   149d6:	4601                	li	a2,0
   149d8:	b6e58593          	addi	a1,a1,-1170 # b6e <exit-0xf57a>
   149dc:	99850513          	addi	a0,a0,-1640 # 1c998 <blanks.1+0x90>
   149e0:	31a040ef          	jal	ra,18cfa <__assert_func>
   149e4:	1abc                	addi	a5,sp,376
   149e6:	04a5f763          	bgeu	a1,a0,14a34 <_ldtoa_r+0xda0>
   149ea:	1298                	addi	a4,sp,352
   149ec:	85de                	mv	a1,s7
   149ee:	1abc                	addi	a5,sp,376
   149f0:	855e                	mv	a0,s7
   149f2:	863a                	mv	a2,a4
   149f4:	00063f03          	ld	t5,0(a2)
   149f8:	0621                	addi	a2,a2,8
   149fa:	0521                	addi	a0,a0,8
   149fc:	ffe53c23          	sd	t5,-8(a0)
   14a00:	fec79ae3          	bne	a5,a2,149f4 <_ldtoa_r+0xd60>
   14a04:	0290                	addi	a2,sp,320
   14a06:	18011c23          	sh	zero,408(sp)
   14a0a:	8532                	mv	a0,a2
   14a0c:	00053f03          	ld	t5,0(a0)
   14a10:	0721                	addi	a4,a4,8
   14a12:	0521                	addi	a0,a0,8
   14a14:	ffe73c23          	sd	t5,-8(a4)
   14a18:	fee79ae3          	bne	a5,a4,14a0c <_ldtoa_r+0xd78>
   14a1c:	16011c23          	sh	zero,376(sp)
   14a20:	0ab8                	addi	a4,sp,344
   14a22:	6188                	ld	a0,0(a1)
   14a24:	0621                	addi	a2,a2,8
   14a26:	05a1                	addi	a1,a1,8
   14a28:	fea63c23          	sd	a0,-8(a2)
   14a2c:	fec71be3          	bne	a4,a2,14a22 <_ldtoa_r+0xd8e>
   14a30:	14011c23          	sh	zero,344(sp)
   14a34:	4581                	li	a1,0
   14a36:	bb39                	j	14754 <_ldtoa_r+0xac0>
   14a38:	87b6                	mv	a5,a3
   14a3a:	e689                	bnez	a3,14a44 <_ldtoa_r+0xdb0>
   14a3c:	16611603          	lh	a2,358(sp)
   14a40:	00065e63          	bgez	a2,14a5c <_ldtoa_r+0xdc8>
   14a44:	16210613          	addi	a2,sp,354
   14a48:	1abc                	addi	a5,sp,376
   14a4a:	00065583          	lhu	a1,0(a2)
   14a4e:	e5a1                	bnez	a1,14a96 <_ldtoa_r+0xe02>
   14a50:	0609                	addi	a2,a2,2
   14a52:	fec79ce3          	bne	a5,a2,14a4a <_ldtoa_r+0xdb6>
   14a56:	16e11123          	sh	a4,354(sp)
   14a5a:	b389                	j	1479c <_ldtoa_r+0xb08>
   14a5c:	1ab4                	addi	a3,sp,376
   14a5e:	16210613          	addi	a2,sp,354
   14a62:	0006d703          	lhu	a4,0(a3)
   14a66:	00f75593          	srli	a1,a4,0xf
   14a6a:	c199                	beqz	a1,14a70 <_ldtoa_r+0xddc>
   14a6c:	0017e793          	ori	a5,a5,1
   14a70:	0017171b          	slliw	a4,a4,0x1
   14a74:	1742                	slli	a4,a4,0x30
   14a76:	0027f593          	andi	a1,a5,2
   14a7a:	9341                	srli	a4,a4,0x30
   14a7c:	c199                	beqz	a1,14a82 <_ldtoa_r+0xdee>
   14a7e:	00176713          	ori	a4,a4,1
   14a82:	0017979b          	slliw	a5,a5,0x1
   14a86:	00e69023          	sh	a4,0(a3)
   14a8a:	17c2                	slli	a5,a5,0x30
   14a8c:	16f9                	addi	a3,a3,-2
   14a8e:	93c1                	srli	a5,a5,0x30
   14a90:	fcc699e3          	bne	a3,a2,14a62 <_ldtoa_r+0xdce>
   14a94:	b321                	j	1479c <_ldtoa_r+0xb08>
   14a96:	00168713          	addi	a4,a3,1
   14a9a:	16e11123          	sh	a4,354(sp)
   14a9e:	b9fd                	j	1479c <_ldtoa_r+0xb08>
   14aa0:	0ab0                	addi	a2,sp,344
   14aa2:	14210f13          	addi	t5,sp,322
   14aa6:	0007df83          	lhu	t6,0(a5)
   14aaa:	00065703          	lhu	a4,0(a2)
   14aae:	17f9                	addi	a5,a5,-2
   14ab0:	1679                	addi	a2,a2,-2
   14ab2:	977e                	add	a4,a4,t6
   14ab4:	972a                	add	a4,a4,a0
   14ab6:	01075513          	srli	a0,a4,0x10
   14aba:	00e79123          	sh	a4,2(a5)
   14abe:	8905                	andi	a0,a0,1
   14ac0:	ffe613e3          	bne	a2,t5,14aa6 <_ldtoa_r+0xe12>
   14ac4:	4601                	li	a2,0
   14ac6:	b1d9                	j	1478c <_ldtoa_r+0xaf8>

0000000000014ac8 <_ldcheck>:
   14ac8:	6118                	ld	a4,0(a0)
   14aca:	651c                	ld	a5,8(a0)
   14acc:	7139                	addi	sp,sp,-64
   14ace:	850a                	mv	a0,sp
   14ad0:	080c                	addi	a1,sp,16
   14ad2:	e03a                	sd	a4,0(sp)
   14ad4:	e43e                	sd	a5,8(sp)
   14ad6:	fc06                	sd	ra,56(sp)
   14ad8:	8ebfe0ef          	jal	ra,133c2 <e113toe.isra.0>
   14adc:	02215783          	lhu	a5,34(sp)
   14ae0:	4501                	li	a0,0
   14ae2:	fff7c793          	not	a5,a5
   14ae6:	03179713          	slli	a4,a5,0x31
   14aea:	eb19                	bnez	a4,14b00 <_ldcheck+0x38>
   14aec:	081c                	addi	a5,sp,16
   14aee:	02210693          	addi	a3,sp,34
   14af2:	0007d703          	lhu	a4,0(a5)
   14af6:	0789                	addi	a5,a5,2
   14af8:	e719                	bnez	a4,14b06 <_ldcheck+0x3e>
   14afa:	fed79ce3          	bne	a5,a3,14af2 <_ldcheck+0x2a>
   14afe:	4509                	li	a0,2
   14b00:	70e2                	ld	ra,56(sp)
   14b02:	6121                	addi	sp,sp,64
   14b04:	8082                	ret
   14b06:	4505                	li	a0,1
   14b08:	bfe5                	j	14b00 <_ldcheck+0x38>

0000000000014b0a <__localeconv_l>:
   14b0a:	10050513          	addi	a0,a0,256
   14b0e:	8082                	ret

0000000000014b10 <_localeconv_r>:
   14b10:	66818513          	addi	a0,gp,1640 # 1f5d8 <__global_locale+0x100>
   14b14:	8082                	ret

0000000000014b16 <localeconv>:
   14b16:	66818513          	addi	a0,gp,1640 # 1f5d8 <__global_locale+0x100>
   14b1a:	8082                	ret

0000000000014b1c <__smakebuf_r>:
   14b1c:	01059783          	lh	a5,16(a1)
   14b20:	7135                	addi	sp,sp,-160
   14b22:	e922                	sd	s0,144(sp)
   14b24:	ed06                	sd	ra,152(sp)
   14b26:	e526                	sd	s1,136(sp)
   14b28:	e14a                	sd	s2,128(sp)
   14b2a:	fcce                	sd	s3,120(sp)
   14b2c:	f8d2                	sd	s4,112(sp)
   14b2e:	0027f713          	andi	a4,a5,2
   14b32:	842e                	mv	s0,a1
   14b34:	cf19                	beqz	a4,14b52 <__smakebuf_r+0x36>
   14b36:	07758793          	addi	a5,a1,119
   14b3a:	e19c                	sd	a5,0(a1)
   14b3c:	ed9c                	sd	a5,24(a1)
   14b3e:	4785                	li	a5,1
   14b40:	d19c                	sw	a5,32(a1)
   14b42:	60ea                	ld	ra,152(sp)
   14b44:	644a                	ld	s0,144(sp)
   14b46:	64aa                	ld	s1,136(sp)
   14b48:	690a                	ld	s2,128(sp)
   14b4a:	79e6                	ld	s3,120(sp)
   14b4c:	7a46                	ld	s4,112(sp)
   14b4e:	610d                	addi	sp,sp,160
   14b50:	8082                	ret
   14b52:	01259583          	lh	a1,18(a1)
   14b56:	84aa                	mv	s1,a0
   14b58:	0605c863          	bltz	a1,14bc8 <__smakebuf_r+0xac>
   14b5c:	0030                	addi	a2,sp,8
   14b5e:	4ea040ef          	jal	ra,19048 <_fstat_r>
   14b62:	06054163          	bltz	a0,14bc4 <__smakebuf_r+0xa8>
   14b66:	4932                	lw	s2,12(sp)
   14b68:	67bd                	lui	a5,0xf
   14b6a:	6985                	lui	s3,0x1
   14b6c:	00f97933          	and	s2,s2,a5
   14b70:	6789                	lui	a5,0x2
   14b72:	40f90933          	sub	s2,s2,a5
   14b76:	00193913          	seqz	s2,s2
   14b7a:	40000a13          	li	s4,1024
   14b7e:	80098993          	addi	s3,s3,-2048 # 800 <exit-0xf8e8>
   14b82:	85d2                	mv	a1,s4
   14b84:	8526                	mv	a0,s1
   14b86:	132000ef          	jal	ra,14cb8 <_malloc_r>
   14b8a:	01041783          	lh	a5,16(s0)
   14b8e:	c939                	beqz	a0,14be4 <__smakebuf_r+0xc8>
   14b90:	6749                	lui	a4,0x12
   14b92:	33870713          	addi	a4,a4,824 # 12338 <_cleanup_r>
   14b96:	ecb8                	sd	a4,88(s1)
   14b98:	0807e793          	ori	a5,a5,128
   14b9c:	00f41823          	sh	a5,16(s0)
   14ba0:	e008                	sd	a0,0(s0)
   14ba2:	ec08                	sd	a0,24(s0)
   14ba4:	03442023          	sw	s4,32(s0)
   14ba8:	06091163          	bnez	s2,14c0a <__smakebuf_r+0xee>
   14bac:	0137e7b3          	or	a5,a5,s3
   14bb0:	60ea                	ld	ra,152(sp)
   14bb2:	00f41823          	sh	a5,16(s0)
   14bb6:	644a                	ld	s0,144(sp)
   14bb8:	64aa                	ld	s1,136(sp)
   14bba:	690a                	ld	s2,128(sp)
   14bbc:	79e6                	ld	s3,120(sp)
   14bbe:	7a46                	ld	s4,112(sp)
   14bc0:	610d                	addi	sp,sp,160
   14bc2:	8082                	ret
   14bc4:	01041783          	lh	a5,16(s0)
   14bc8:	0807f793          	andi	a5,a5,128
   14bcc:	4901                	li	s2,0
   14bce:	cb95                	beqz	a5,14c02 <__smakebuf_r+0xe6>
   14bd0:	04000a13          	li	s4,64
   14bd4:	85d2                	mv	a1,s4
   14bd6:	8526                	mv	a0,s1
   14bd8:	0e0000ef          	jal	ra,14cb8 <_malloc_r>
   14bdc:	01041783          	lh	a5,16(s0)
   14be0:	4981                	li	s3,0
   14be2:	f55d                	bnez	a0,14b90 <__smakebuf_r+0x74>
   14be4:	2007f713          	andi	a4,a5,512
   14be8:	ff29                	bnez	a4,14b42 <__smakebuf_r+0x26>
   14bea:	9bf1                	andi	a5,a5,-4
   14bec:	0027e793          	ori	a5,a5,2
   14bf0:	07740713          	addi	a4,s0,119
   14bf4:	00f41823          	sh	a5,16(s0)
   14bf8:	4785                	li	a5,1
   14bfa:	e018                	sd	a4,0(s0)
   14bfc:	ec18                	sd	a4,24(s0)
   14bfe:	d01c                	sw	a5,32(s0)
   14c00:	b789                	j	14b42 <__smakebuf_r+0x26>
   14c02:	40000a13          	li	s4,1024
   14c06:	4981                	li	s3,0
   14c08:	bfad                	j	14b82 <__smakebuf_r+0x66>
   14c0a:	01241583          	lh	a1,18(s0)
   14c0e:	8526                	mv	a0,s1
   14c10:	7a0040ef          	jal	ra,193b0 <_isatty_r>
   14c14:	e501                	bnez	a0,14c1c <__smakebuf_r+0x100>
   14c16:	01041783          	lh	a5,16(s0)
   14c1a:	bf49                	j	14bac <__smakebuf_r+0x90>
   14c1c:	01045783          	lhu	a5,16(s0)
   14c20:	9bf1                	andi	a5,a5,-4
   14c22:	0017e793          	ori	a5,a5,1
   14c26:	0107979b          	slliw	a5,a5,0x10
   14c2a:	4107d79b          	sraiw	a5,a5,0x10
   14c2e:	bfbd                	j	14bac <__smakebuf_r+0x90>

0000000000014c30 <__swhatbuf_r>:
   14c30:	7175                	addi	sp,sp,-144
   14c32:	e122                	sd	s0,128(sp)
   14c34:	842e                	mv	s0,a1
   14c36:	01259583          	lh	a1,18(a1)
   14c3a:	fca6                	sd	s1,120(sp)
   14c3c:	f8ca                	sd	s2,112(sp)
   14c3e:	e506                	sd	ra,136(sp)
   14c40:	84b2                	mv	s1,a2
   14c42:	8936                	mv	s2,a3
   14c44:	0205cc63          	bltz	a1,14c7c <__swhatbuf_r+0x4c>
   14c48:	0030                	addi	a2,sp,8
   14c4a:	3fe040ef          	jal	ra,19048 <_fstat_r>
   14c4e:	02054763          	bltz	a0,14c7c <__swhatbuf_r+0x4c>
   14c52:	47b2                	lw	a5,12(sp)
   14c54:	673d                	lui	a4,0xf
   14c56:	60aa                	ld	ra,136(sp)
   14c58:	8ff9                	and	a5,a5,a4
   14c5a:	6709                	lui	a4,0x2
   14c5c:	8f99                	sub	a5,a5,a4
   14c5e:	640a                	ld	s0,128(sp)
   14c60:	0017b793          	seqz	a5,a5
   14c64:	00f92023          	sw	a5,0(s2)
   14c68:	40000713          	li	a4,1024
   14c6c:	e098                	sd	a4,0(s1)
   14c6e:	6505                	lui	a0,0x1
   14c70:	74e6                	ld	s1,120(sp)
   14c72:	7946                	ld	s2,112(sp)
   14c74:	80050513          	addi	a0,a0,-2048 # 800 <exit-0xf8e8>
   14c78:	6149                	addi	sp,sp,144
   14c7a:	8082                	ret
   14c7c:	01045783          	lhu	a5,16(s0)
   14c80:	0807f793          	andi	a5,a5,128
   14c84:	cf91                	beqz	a5,14ca0 <__swhatbuf_r+0x70>
   14c86:	60aa                	ld	ra,136(sp)
   14c88:	640a                	ld	s0,128(sp)
   14c8a:	4781                	li	a5,0
   14c8c:	00f92023          	sw	a5,0(s2)
   14c90:	04000713          	li	a4,64
   14c94:	e098                	sd	a4,0(s1)
   14c96:	7946                	ld	s2,112(sp)
   14c98:	74e6                	ld	s1,120(sp)
   14c9a:	4501                	li	a0,0
   14c9c:	6149                	addi	sp,sp,144
   14c9e:	8082                	ret
   14ca0:	60aa                	ld	ra,136(sp)
   14ca2:	640a                	ld	s0,128(sp)
   14ca4:	00f92023          	sw	a5,0(s2)
   14ca8:	40000713          	li	a4,1024
   14cac:	e098                	sd	a4,0(s1)
   14cae:	7946                	ld	s2,112(sp)
   14cb0:	74e6                	ld	s1,120(sp)
   14cb2:	4501                	li	a0,0
   14cb4:	6149                	addi	sp,sp,144
   14cb6:	8082                	ret

0000000000014cb8 <_malloc_r>:
   14cb8:	711d                	addi	sp,sp,-96
   14cba:	e4a6                	sd	s1,72(sp)
   14cbc:	e0ca                	sd	s2,64(sp)
   14cbe:	ec86                	sd	ra,88(sp)
   14cc0:	e8a2                	sd	s0,80(sp)
   14cc2:	fc4e                	sd	s3,56(sp)
   14cc4:	f852                	sd	s4,48(sp)
   14cc6:	f456                	sd	s5,40(sp)
   14cc8:	f05a                	sd	s6,32(sp)
   14cca:	ec5e                	sd	s7,24(sp)
   14ccc:	e862                	sd	s8,16(sp)
   14cce:	e466                	sd	s9,8(sp)
   14cd0:	01758493          	addi	s1,a1,23
   14cd4:	02e00793          	li	a5,46
   14cd8:	892a                	mv	s2,a0
   14cda:	0697e363          	bltu	a5,s1,14d40 <_malloc_r+0x88>
   14cde:	02000793          	li	a5,32
   14ce2:	18b7ee63          	bltu	a5,a1,14e7e <_malloc_r+0x1c6>
   14ce6:	64c000ef          	jal	ra,15332 <__malloc_lock>
   14cea:	02000493          	li	s1,32
   14cee:	05000793          	li	a5,80
   14cf2:	4611                	li	a2,4
   14cf4:	69fd                	lui	s3,0x1f
   14cf6:	cc898993          	addi	s3,s3,-824 # 1ecc8 <__malloc_av_>
   14cfa:	97ce                	add	a5,a5,s3
   14cfc:	6780                	ld	s0,8(a5)
   14cfe:	ff078713          	addi	a4,a5,-16 # 1ff0 <exit-0xe0f8>
   14d02:	24e40c63          	beq	s0,a4,14f5a <_malloc_r+0x2a2>
   14d06:	641c                	ld	a5,8(s0)
   14d08:	6c14                	ld	a3,24(s0)
   14d0a:	6810                	ld	a2,16(s0)
   14d0c:	9bf1                	andi	a5,a5,-4
   14d0e:	97a2                	add	a5,a5,s0
   14d10:	6798                	ld	a4,8(a5)
   14d12:	ee14                	sd	a3,24(a2)
   14d14:	ea90                	sd	a2,16(a3)
   14d16:	00176713          	ori	a4,a4,1
   14d1a:	854a                	mv	a0,s2
   14d1c:	e798                	sd	a4,8(a5)
   14d1e:	616000ef          	jal	ra,15334 <__malloc_unlock>
   14d22:	01040513          	addi	a0,s0,16
   14d26:	60e6                	ld	ra,88(sp)
   14d28:	6446                	ld	s0,80(sp)
   14d2a:	64a6                	ld	s1,72(sp)
   14d2c:	6906                	ld	s2,64(sp)
   14d2e:	79e2                	ld	s3,56(sp)
   14d30:	7a42                	ld	s4,48(sp)
   14d32:	7aa2                	ld	s5,40(sp)
   14d34:	7b02                	ld	s6,32(sp)
   14d36:	6be2                	ld	s7,24(sp)
   14d38:	6c42                	ld	s8,16(sp)
   14d3a:	6ca2                	ld	s9,8(sp)
   14d3c:	6125                	addi	sp,sp,96
   14d3e:	8082                	ret
   14d40:	800007b7          	lui	a5,0x80000
   14d44:	98c1                	andi	s1,s1,-16
   14d46:	fff7c793          	not	a5,a5
   14d4a:	1297ea63          	bltu	a5,s1,14e7e <_malloc_r+0x1c6>
   14d4e:	12b4e863          	bltu	s1,a1,14e7e <_malloc_r+0x1c6>
   14d52:	5e0000ef          	jal	ra,15332 <__malloc_lock>
   14d56:	1f700793          	li	a5,503
   14d5a:	2e97fb63          	bgeu	a5,s1,15050 <_malloc_r+0x398>
   14d5e:	0094d793          	srli	a5,s1,0x9
   14d62:	12078363          	beqz	a5,14e88 <_malloc_r+0x1d0>
   14d66:	4711                	li	a4,4
   14d68:	24f76063          	bltu	a4,a5,14fa8 <_malloc_r+0x2f0>
   14d6c:	0064d793          	srli	a5,s1,0x6
   14d70:	0397861b          	addiw	a2,a5,57 # ffffffff80000039 <__BSS_END__+0xffffffff7ffe08c9>
   14d74:	0016169b          	slliw	a3,a2,0x1
   14d78:	0387851b          	addiw	a0,a5,56
   14d7c:	068e                	slli	a3,a3,0x3
   14d7e:	69fd                	lui	s3,0x1f
   14d80:	cc898993          	addi	s3,s3,-824 # 1ecc8 <__malloc_av_>
   14d84:	96ce                	add	a3,a3,s3
   14d86:	6680                	ld	s0,8(a3)
   14d88:	16c1                	addi	a3,a3,-16
   14d8a:	02868063          	beq	a3,s0,14daa <_malloc_r+0xf2>
   14d8e:	45fd                	li	a1,31
   14d90:	a031                	j	14d9c <_malloc_r+0xe4>
   14d92:	1c075163          	bgez	a4,14f54 <_malloc_r+0x29c>
   14d96:	6c00                	ld	s0,24(s0)
   14d98:	00868963          	beq	a3,s0,14daa <_malloc_r+0xf2>
   14d9c:	641c                	ld	a5,8(s0)
   14d9e:	9bf1                	andi	a5,a5,-4
   14da0:	40978733          	sub	a4,a5,s1
   14da4:	fee5d7e3          	bge	a1,a4,14d92 <_malloc_r+0xda>
   14da8:	862a                	mv	a2,a0
   14daa:	0209b403          	ld	s0,32(s3)
   14dae:	687d                	lui	a6,0x1f
   14db0:	cd880813          	addi	a6,a6,-808 # 1ecd8 <__malloc_av_+0x10>
   14db4:	19040d63          	beq	s0,a6,14f4e <_malloc_r+0x296>
   14db8:	641c                	ld	a5,8(s0)
   14dba:	46fd                	li	a3,31
   14dbc:	9bf1                	andi	a5,a5,-4
   14dbe:	40978733          	sub	a4,a5,s1
   14dc2:	26e6c063          	blt	a3,a4,15022 <_malloc_r+0x36a>
   14dc6:	0309b423          	sd	a6,40(s3)
   14dca:	0309b023          	sd	a6,32(s3)
   14dce:	22075f63          	bgez	a4,1500c <_malloc_r+0x354>
   14dd2:	1ff00713          	li	a4,511
   14dd6:	0089b503          	ld	a0,8(s3)
   14dda:	18f76563          	bltu	a4,a5,14f64 <_malloc_r+0x2ac>
   14dde:	838d                	srli	a5,a5,0x3
   14de0:	0017871b          	addiw	a4,a5,1
   14de4:	0017171b          	slliw	a4,a4,0x1
   14de8:	070e                	slli	a4,a4,0x3
   14dea:	974e                	add	a4,a4,s3
   14dec:	630c                	ld	a1,0(a4)
   14dee:	4027d79b          	sraiw	a5,a5,0x2
   14df2:	4685                	li	a3,1
   14df4:	00f697b3          	sll	a5,a3,a5
   14df8:	8d5d                	or	a0,a0,a5
   14dfa:	ff070793          	addi	a5,a4,-16 # 1ff0 <exit-0xe0f8>
   14dfe:	ec1c                	sd	a5,24(s0)
   14e00:	e80c                	sd	a1,16(s0)
   14e02:	00a9b423          	sd	a0,8(s3)
   14e06:	e300                	sd	s0,0(a4)
   14e08:	ed80                	sd	s0,24(a1)
   14e0a:	4026579b          	sraiw	a5,a2,0x2
   14e0e:	4585                	li	a1,1
   14e10:	00f595b3          	sll	a1,a1,a5
   14e14:	08b56163          	bltu	a0,a1,14e96 <_malloc_r+0x1de>
   14e18:	00a5f7b3          	and	a5,a1,a0
   14e1c:	ef81                	bnez	a5,14e34 <_malloc_r+0x17c>
   14e1e:	0586                	slli	a1,a1,0x1
   14e20:	9a71                	andi	a2,a2,-4
   14e22:	00a5f7b3          	and	a5,a1,a0
   14e26:	2611                	addiw	a2,a2,4
   14e28:	e791                	bnez	a5,14e34 <_malloc_r+0x17c>
   14e2a:	0586                	slli	a1,a1,0x1
   14e2c:	00a5f7b3          	and	a5,a1,a0
   14e30:	2611                	addiw	a2,a2,4
   14e32:	dfe5                	beqz	a5,14e2a <_malloc_r+0x172>
   14e34:	48fd                	li	a7,31
   14e36:	0016031b          	addiw	t1,a2,1
   14e3a:	0013131b          	slliw	t1,t1,0x1
   14e3e:	030e                	slli	t1,t1,0x3
   14e40:	1341                	addi	t1,t1,-16
   14e42:	934e                	add	t1,t1,s3
   14e44:	851a                	mv	a0,t1
   14e46:	6d1c                	ld	a5,24(a0)
   14e48:	8e32                	mv	t3,a2
   14e4a:	18f50063          	beq	a0,a5,14fca <_malloc_r+0x312>
   14e4e:	6798                	ld	a4,8(a5)
   14e50:	843e                	mv	s0,a5
   14e52:	6f9c                	ld	a5,24(a5)
   14e54:	9b71                	andi	a4,a4,-4
   14e56:	409706b3          	sub	a3,a4,s1
   14e5a:	16d8cf63          	blt	a7,a3,14fd8 <_malloc_r+0x320>
   14e5e:	fe06c6e3          	bltz	a3,14e4a <_malloc_r+0x192>
   14e62:	9722                	add	a4,a4,s0
   14e64:	6714                	ld	a3,8(a4)
   14e66:	6810                	ld	a2,16(s0)
   14e68:	854a                	mv	a0,s2
   14e6a:	0016e693          	ori	a3,a3,1
   14e6e:	e714                	sd	a3,8(a4)
   14e70:	ee1c                	sd	a5,24(a2)
   14e72:	eb90                	sd	a2,16(a5)
   14e74:	4c0000ef          	jal	ra,15334 <__malloc_unlock>
   14e78:	01040513          	addi	a0,s0,16
   14e7c:	b56d                	j	14d26 <_malloc_r+0x6e>
   14e7e:	47b1                	li	a5,12
   14e80:	00f92023          	sw	a5,0(s2)
   14e84:	4501                	li	a0,0
   14e86:	b545                	j	14d26 <_malloc_r+0x6e>
   14e88:	40000693          	li	a3,1024
   14e8c:	04000613          	li	a2,64
   14e90:	03f00513          	li	a0,63
   14e94:	b5ed                	j	14d7e <_malloc_r+0xc6>
   14e96:	0109b403          	ld	s0,16(s3)
   14e9a:	641c                	ld	a5,8(s0)
   14e9c:	ffc7fa93          	andi	s5,a5,-4
   14ea0:	009ae763          	bltu	s5,s1,14eae <_malloc_r+0x1f6>
   14ea4:	409a8733          	sub	a4,s5,s1
   14ea8:	47fd                	li	a5,31
   14eaa:	08e7c363          	blt	a5,a4,14f30 <_malloc_r+0x278>
   14eae:	7801ba03          	ld	s4,1920(gp) # 1f6f0 <__malloc_top_pad>
   14eb2:	7601b703          	ld	a4,1888(gp) # 1f6d0 <__malloc_sbrk_base>
   14eb6:	57fd                	li	a5,-1
   14eb8:	01540c33          	add	s8,s0,s5
   14ebc:	9a26                	add	s4,s4,s1
   14ebe:	2ef70563          	beq	a4,a5,151a8 <_malloc_r+0x4f0>
   14ec2:	6785                	lui	a5,0x1
   14ec4:	07fd                	addi	a5,a5,31 # 101f <exit-0xf0c9>
   14ec6:	9a3e                	add	s4,s4,a5
   14ec8:	77fd                	lui	a5,0xfffff
   14eca:	00fa7a33          	and	s4,s4,a5
   14ece:	85d2                	mv	a1,s4
   14ed0:	854a                	mv	a0,s2
   14ed2:	184010ef          	jal	ra,16056 <_sbrk_r>
   14ed6:	57fd                	li	a5,-1
   14ed8:	8b2a                	mv	s6,a0
   14eda:	1af50063          	beq	a0,a5,1507a <_malloc_r+0x3c2>
   14ede:	19856c63          	bltu	a0,s8,15076 <_malloc_r+0x3be>
   14ee2:	0001fbb7          	lui	s7,0x1f
   14ee6:	748b8b93          	addi	s7,s7,1864 # 1f748 <__malloc_current_mallinfo>
   14eea:	000ba783          	lw	a5,0(s7)
   14eee:	0147873b          	addw	a4,a5,s4
   14ef2:	00eba023          	sw	a4,0(s7)
   14ef6:	86ba                	mv	a3,a4
   14ef8:	20ac1263          	bne	s8,a0,150fc <_malloc_r+0x444>
   14efc:	03451793          	slli	a5,a0,0x34
   14f00:	1e079e63          	bnez	a5,150fc <_malloc_r+0x444>
   14f04:	0109bb03          	ld	s6,16(s3)
   14f08:	014a87b3          	add	a5,s5,s4
   14f0c:	0017e793          	ori	a5,a5,1
   14f10:	00fb3423          	sd	a5,8(s6)
   14f14:	7781b603          	ld	a2,1912(gp) # 1f6e8 <__malloc_max_sbrked_mem>
   14f18:	00e67463          	bgeu	a2,a4,14f20 <_malloc_r+0x268>
   14f1c:	76e1bc23          	sd	a4,1912(gp) # 1f6e8 <__malloc_max_sbrked_mem>
   14f20:	7701b603          	ld	a2,1904(gp) # 1f6e0 <__malloc_max_total_mem>
   14f24:	00e67463          	bgeu	a2,a4,14f2c <_malloc_r+0x274>
   14f28:	76e1b823          	sd	a4,1904(gp) # 1f6e0 <__malloc_max_total_mem>
   14f2c:	845a                	mv	s0,s6
   14f2e:	aa89                	j	15080 <_malloc_r+0x3c8>
   14f30:	0014e793          	ori	a5,s1,1
   14f34:	e41c                	sd	a5,8(s0)
   14f36:	94a2                	add	s1,s1,s0
   14f38:	0099b823          	sd	s1,16(s3)
   14f3c:	00176713          	ori	a4,a4,1
   14f40:	854a                	mv	a0,s2
   14f42:	e498                	sd	a4,8(s1)
   14f44:	3f0000ef          	jal	ra,15334 <__malloc_unlock>
   14f48:	01040513          	addi	a0,s0,16
   14f4c:	bbe9                	j	14d26 <_malloc_r+0x6e>
   14f4e:	0089b503          	ld	a0,8(s3)
   14f52:	bd65                	j	14e0a <_malloc_r+0x152>
   14f54:	6c14                	ld	a3,24(s0)
   14f56:	6810                	ld	a2,16(s0)
   14f58:	bb5d                	j	14d0e <_malloc_r+0x56>
   14f5a:	6f80                	ld	s0,24(a5)
   14f5c:	2609                	addiw	a2,a2,2
   14f5e:	e48786e3          	beq	a5,s0,14daa <_malloc_r+0xf2>
   14f62:	b355                	j	14d06 <_malloc_r+0x4e>
   14f64:	0097d713          	srli	a4,a5,0x9
   14f68:	4691                	li	a3,4
   14f6a:	0ee6fc63          	bgeu	a3,a4,15062 <_malloc_r+0x3aa>
   14f6e:	46d1                	li	a3,20
   14f70:	26e6e863          	bltu	a3,a4,151e0 <_malloc_r+0x528>
   14f74:	05c7059b          	addiw	a1,a4,92
   14f78:	0015959b          	slliw	a1,a1,0x1
   14f7c:	05b7069b          	addiw	a3,a4,91
   14f80:	058e                	slli	a1,a1,0x3
   14f82:	95ce                	add	a1,a1,s3
   14f84:	6198                	ld	a4,0(a1)
   14f86:	15c1                	addi	a1,a1,-16
   14f88:	00e59663          	bne	a1,a4,14f94 <_malloc_r+0x2dc>
   14f8c:	a40d                	j	151ae <_malloc_r+0x4f6>
   14f8e:	6b18                	ld	a4,16(a4)
   14f90:	00e58663          	beq	a1,a4,14f9c <_malloc_r+0x2e4>
   14f94:	6714                	ld	a3,8(a4)
   14f96:	9af1                	andi	a3,a3,-4
   14f98:	fed7ebe3          	bltu	a5,a3,14f8e <_malloc_r+0x2d6>
   14f9c:	6f0c                	ld	a1,24(a4)
   14f9e:	ec0c                	sd	a1,24(s0)
   14fa0:	e818                	sd	a4,16(s0)
   14fa2:	e980                	sd	s0,16(a1)
   14fa4:	ef00                	sd	s0,24(a4)
   14fa6:	b595                	j	14e0a <_malloc_r+0x152>
   14fa8:	4751                	li	a4,20
   14faa:	0ef77863          	bgeu	a4,a5,1509a <_malloc_r+0x3e2>
   14fae:	05400713          	li	a4,84
   14fb2:	24f76563          	bltu	a4,a5,151fc <_malloc_r+0x544>
   14fb6:	00c4d793          	srli	a5,s1,0xc
   14fba:	06f7861b          	addiw	a2,a5,111 # fffffffffffff06f <__BSS_END__+0xfffffffffffdf8ff>
   14fbe:	0016169b          	slliw	a3,a2,0x1
   14fc2:	06e7851b          	addiw	a0,a5,110
   14fc6:	068e                	slli	a3,a3,0x3
   14fc8:	bb5d                	j	14d7e <_malloc_r+0xc6>
   14fca:	2e05                	addiw	t3,t3,1
   14fcc:	003e7793          	andi	a5,t3,3
   14fd0:	0541                	addi	a0,a0,16
   14fd2:	c3ed                	beqz	a5,150b4 <_malloc_r+0x3fc>
   14fd4:	6d1c                	ld	a5,24(a0)
   14fd6:	bd95                	j	14e4a <_malloc_r+0x192>
   14fd8:	6810                	ld	a2,16(s0)
   14fda:	0014e593          	ori	a1,s1,1
   14fde:	e40c                	sd	a1,8(s0)
   14fe0:	ee1c                	sd	a5,24(a2)
   14fe2:	eb90                	sd	a2,16(a5)
   14fe4:	94a2                	add	s1,s1,s0
   14fe6:	0299b423          	sd	s1,40(s3)
   14fea:	0299b023          	sd	s1,32(s3)
   14fee:	0016e793          	ori	a5,a3,1
   14ff2:	0104bc23          	sd	a6,24(s1)
   14ff6:	0104b823          	sd	a6,16(s1)
   14ffa:	e49c                	sd	a5,8(s1)
   14ffc:	9722                	add	a4,a4,s0
   14ffe:	854a                	mv	a0,s2
   15000:	e314                	sd	a3,0(a4)
   15002:	332000ef          	jal	ra,15334 <__malloc_unlock>
   15006:	01040513          	addi	a0,s0,16
   1500a:	bb31                	j	14d26 <_malloc_r+0x6e>
   1500c:	97a2                	add	a5,a5,s0
   1500e:	6798                	ld	a4,8(a5)
   15010:	854a                	mv	a0,s2
   15012:	00176713          	ori	a4,a4,1
   15016:	e798                	sd	a4,8(a5)
   15018:	31c000ef          	jal	ra,15334 <__malloc_unlock>
   1501c:	01040513          	addi	a0,s0,16
   15020:	b319                	j	14d26 <_malloc_r+0x6e>
   15022:	0014e693          	ori	a3,s1,1
   15026:	e414                	sd	a3,8(s0)
   15028:	94a2                	add	s1,s1,s0
   1502a:	0299b423          	sd	s1,40(s3)
   1502e:	0299b023          	sd	s1,32(s3)
   15032:	00176693          	ori	a3,a4,1
   15036:	0104bc23          	sd	a6,24(s1)
   1503a:	0104b823          	sd	a6,16(s1)
   1503e:	e494                	sd	a3,8(s1)
   15040:	97a2                	add	a5,a5,s0
   15042:	854a                	mv	a0,s2
   15044:	e398                	sd	a4,0(a5)
   15046:	2ee000ef          	jal	ra,15334 <__malloc_unlock>
   1504a:	01040513          	addi	a0,s0,16
   1504e:	b9e1                	j	14d26 <_malloc_r+0x6e>
   15050:	0034d613          	srli	a2,s1,0x3
   15054:	0016079b          	addiw	a5,a2,1
   15058:	0017979b          	slliw	a5,a5,0x1
   1505c:	2601                	sext.w	a2,a2
   1505e:	078e                	slli	a5,a5,0x3
   15060:	b951                	j	14cf4 <_malloc_r+0x3c>
   15062:	0067d713          	srli	a4,a5,0x6
   15066:	0397059b          	addiw	a1,a4,57
   1506a:	0015959b          	slliw	a1,a1,0x1
   1506e:	0387069b          	addiw	a3,a4,56
   15072:	058e                	slli	a1,a1,0x3
   15074:	b739                	j	14f82 <_malloc_r+0x2ca>
   15076:	07340963          	beq	s0,s3,150e8 <_malloc_r+0x430>
   1507a:	0109b403          	ld	s0,16(s3)
   1507e:	641c                	ld	a5,8(s0)
   15080:	9bf1                	andi	a5,a5,-4
   15082:	40978733          	sub	a4,a5,s1
   15086:	0097e563          	bltu	a5,s1,15090 <_malloc_r+0x3d8>
   1508a:	47fd                	li	a5,31
   1508c:	eae7c2e3          	blt	a5,a4,14f30 <_malloc_r+0x278>
   15090:	854a                	mv	a0,s2
   15092:	2a2000ef          	jal	ra,15334 <__malloc_unlock>
   15096:	4501                	li	a0,0
   15098:	b179                	j	14d26 <_malloc_r+0x6e>
   1509a:	05c7861b          	addiw	a2,a5,92
   1509e:	0016169b          	slliw	a3,a2,0x1
   150a2:	05b7851b          	addiw	a0,a5,91
   150a6:	068e                	slli	a3,a3,0x3
   150a8:	b9d9                	j	14d7e <_malloc_r+0xc6>
   150aa:	01033783          	ld	a5,16(t1)
   150ae:	367d                	addiw	a2,a2,-1
   150b0:	1e679763          	bne	a5,t1,1529e <_malloc_r+0x5e6>
   150b4:	00367793          	andi	a5,a2,3
   150b8:	1341                	addi	t1,t1,-16
   150ba:	fbe5                	bnez	a5,150aa <_malloc_r+0x3f2>
   150bc:	0089b703          	ld	a4,8(s3)
   150c0:	fff5c793          	not	a5,a1
   150c4:	8ff9                	and	a5,a5,a4
   150c6:	00f9b423          	sd	a5,8(s3)
   150ca:	0586                	slli	a1,a1,0x1
   150cc:	dcb7e5e3          	bltu	a5,a1,14e96 <_malloc_r+0x1de>
   150d0:	dc0583e3          	beqz	a1,14e96 <_malloc_r+0x1de>
   150d4:	00f5f733          	and	a4,a1,a5
   150d8:	e711                	bnez	a4,150e4 <_malloc_r+0x42c>
   150da:	0586                	slli	a1,a1,0x1
   150dc:	00f5f733          	and	a4,a1,a5
   150e0:	2e11                	addiw	t3,t3,4
   150e2:	df65                	beqz	a4,150da <_malloc_r+0x422>
   150e4:	8672                	mv	a2,t3
   150e6:	bb81                	j	14e36 <_malloc_r+0x17e>
   150e8:	0001fbb7          	lui	s7,0x1f
   150ec:	748b8b93          	addi	s7,s7,1864 # 1f748 <__malloc_current_mallinfo>
   150f0:	000ba783          	lw	a5,0(s7)
   150f4:	014786bb          	addw	a3,a5,s4
   150f8:	00dba023          	sw	a3,0(s7)
   150fc:	7601b703          	ld	a4,1888(gp) # 1f6d0 <__malloc_sbrk_base>
   15100:	57fd                	li	a5,-1
   15102:	10f70b63          	beq	a4,a5,15218 <_malloc_r+0x560>
   15106:	418b07b3          	sub	a5,s6,s8
   1510a:	9fb5                	addw	a5,a5,a3
   1510c:	00fba023          	sw	a5,0(s7)
   15110:	00fb7c93          	andi	s9,s6,15
   15114:	0a0c8663          	beqz	s9,151c0 <_malloc_r+0x508>
   15118:	6705                	lui	a4,0x1
   1511a:	419b0b33          	sub	s6,s6,s9
   1511e:	01070c13          	addi	s8,a4,16 # 1010 <exit-0xf0d8>
   15122:	0b41                	addi	s6,s6,16
   15124:	419c0c33          	sub	s8,s8,s9
   15128:	9a5a                	add	s4,s4,s6
   1512a:	177d                	addi	a4,a4,-1
   1512c:	414c0c33          	sub	s8,s8,s4
   15130:	00ec7c33          	and	s8,s8,a4
   15134:	85e2                	mv	a1,s8
   15136:	854a                	mv	a0,s2
   15138:	71f000ef          	jal	ra,16056 <_sbrk_r>
   1513c:	57fd                	li	a5,-1
   1513e:	12f50063          	beq	a0,a5,1525e <_malloc_r+0x5a6>
   15142:	41650533          	sub	a0,a0,s6
   15146:	000c069b          	sext.w	a3,s8
   1514a:	01850a33          	add	s4,a0,s8
   1514e:	000ba703          	lw	a4,0(s7)
   15152:	0169b823          	sd	s6,16(s3)
   15156:	001a6793          	ori	a5,s4,1
   1515a:	9f35                	addw	a4,a4,a3
   1515c:	00eba023          	sw	a4,0(s7)
   15160:	00fb3423          	sd	a5,8(s6)
   15164:	db3408e3          	beq	s0,s3,14f14 <_malloc_r+0x25c>
   15168:	467d                	li	a2,31
   1516a:	0b567a63          	bgeu	a2,s5,1521e <_malloc_r+0x566>
   1516e:	6414                	ld	a3,8(s0)
   15170:	fe8a8793          	addi	a5,s5,-24
   15174:	9bc1                	andi	a5,a5,-16
   15176:	8a85                	andi	a3,a3,1
   15178:	8edd                	or	a3,a3,a5
   1517a:	e414                	sd	a3,8(s0)
   1517c:	45a5                	li	a1,9
   1517e:	00f406b3          	add	a3,s0,a5
   15182:	e68c                	sd	a1,8(a3)
   15184:	ea8c                	sd	a1,16(a3)
   15186:	00f66563          	bltu	a2,a5,15190 <_malloc_r+0x4d8>
   1518a:	008b3783          	ld	a5,8(s6)
   1518e:	b359                	j	14f14 <_malloc_r+0x25c>
   15190:	01040593          	addi	a1,s0,16
   15194:	854a                	mv	a0,s2
   15196:	d1efd0ef          	jal	ra,126b4 <_free_r>
   1519a:	0109bb03          	ld	s6,16(s3)
   1519e:	000ba703          	lw	a4,0(s7)
   151a2:	008b3783          	ld	a5,8(s6)
   151a6:	b3bd                	j	14f14 <_malloc_r+0x25c>
   151a8:	020a0a13          	addi	s4,s4,32
   151ac:	b30d                	j	14ece <_malloc_r+0x216>
   151ae:	4026d69b          	sraiw	a3,a3,0x2
   151b2:	4785                	li	a5,1
   151b4:	00d797b3          	sll	a5,a5,a3
   151b8:	8d5d                	or	a0,a0,a5
   151ba:	00a9b423          	sd	a0,8(s3)
   151be:	b3c5                	j	14f9e <_malloc_r+0x2e6>
   151c0:	014b0c33          	add	s8,s6,s4
   151c4:	41800c33          	neg	s8,s8
   151c8:	1c52                	slli	s8,s8,0x34
   151ca:	034c5c13          	srli	s8,s8,0x34
   151ce:	85e2                	mv	a1,s8
   151d0:	854a                	mv	a0,s2
   151d2:	685000ef          	jal	ra,16056 <_sbrk_r>
   151d6:	57fd                	li	a5,-1
   151d8:	4681                	li	a3,0
   151da:	f6f514e3          	bne	a0,a5,15142 <_malloc_r+0x48a>
   151de:	bf85                	j	1514e <_malloc_r+0x496>
   151e0:	05400693          	li	a3,84
   151e4:	04e6e163          	bltu	a3,a4,15226 <_malloc_r+0x56e>
   151e8:	00c7d713          	srli	a4,a5,0xc
   151ec:	06f7059b          	addiw	a1,a4,111
   151f0:	0015959b          	slliw	a1,a1,0x1
   151f4:	06e7069b          	addiw	a3,a4,110
   151f8:	058e                	slli	a1,a1,0x3
   151fa:	b361                	j	14f82 <_malloc_r+0x2ca>
   151fc:	15400713          	li	a4,340
   15200:	04f76163          	bltu	a4,a5,15242 <_malloc_r+0x58a>
   15204:	00f4d793          	srli	a5,s1,0xf
   15208:	0787861b          	addiw	a2,a5,120
   1520c:	0016169b          	slliw	a3,a2,0x1
   15210:	0777851b          	addiw	a0,a5,119
   15214:	068e                	slli	a3,a3,0x3
   15216:	b6a5                	j	14d7e <_malloc_r+0xc6>
   15218:	7761b023          	sd	s6,1888(gp) # 1f6d0 <__malloc_sbrk_base>
   1521c:	bdd5                	j	15110 <_malloc_r+0x458>
   1521e:	4785                	li	a5,1
   15220:	00fb3423          	sd	a5,8(s6)
   15224:	b5b5                	j	15090 <_malloc_r+0x3d8>
   15226:	15400693          	li	a3,340
   1522a:	04e6e063          	bltu	a3,a4,1526a <_malloc_r+0x5b2>
   1522e:	00f7d713          	srli	a4,a5,0xf
   15232:	0787059b          	addiw	a1,a4,120
   15236:	0015959b          	slliw	a1,a1,0x1
   1523a:	0777069b          	addiw	a3,a4,119
   1523e:	058e                	slli	a1,a1,0x3
   15240:	b389                	j	14f82 <_malloc_r+0x2ca>
   15242:	55400713          	li	a4,1364
   15246:	04f76063          	bltu	a4,a5,15286 <_malloc_r+0x5ce>
   1524a:	0124d793          	srli	a5,s1,0x12
   1524e:	07d7861b          	addiw	a2,a5,125
   15252:	0016169b          	slliw	a3,a2,0x1
   15256:	07c7851b          	addiw	a0,a5,124
   1525a:	068e                	slli	a3,a3,0x3
   1525c:	b60d                	j	14d7e <_malloc_r+0xc6>
   1525e:	1cc1                	addi	s9,s9,-16
   15260:	9a66                	add	s4,s4,s9
   15262:	416a0a33          	sub	s4,s4,s6
   15266:	4681                	li	a3,0
   15268:	b5dd                	j	1514e <_malloc_r+0x496>
   1526a:	55400693          	li	a3,1364
   1526e:	02e6e363          	bltu	a3,a4,15294 <_malloc_r+0x5dc>
   15272:	0127d713          	srli	a4,a5,0x12
   15276:	07d7059b          	addiw	a1,a4,125
   1527a:	0015959b          	slliw	a1,a1,0x1
   1527e:	07c7069b          	addiw	a3,a4,124
   15282:	058e                	slli	a1,a1,0x3
   15284:	b9fd                	j	14f82 <_malloc_r+0x2ca>
   15286:	7f000693          	li	a3,2032
   1528a:	07f00613          	li	a2,127
   1528e:	07e00513          	li	a0,126
   15292:	b4f5                	j	14d7e <_malloc_r+0xc6>
   15294:	7f000593          	li	a1,2032
   15298:	07e00693          	li	a3,126
   1529c:	b1dd                	j	14f82 <_malloc_r+0x2ca>
   1529e:	0089b783          	ld	a5,8(s3)
   152a2:	b525                	j	150ca <_malloc_r+0x412>

00000000000152a4 <memchr>:
   152a4:	00757793          	andi	a5,a0,7
   152a8:	0ff5f693          	zext.b	a3,a1
   152ac:	c785                	beqz	a5,152d4 <memchr+0x30>
   152ae:	fff60793          	addi	a5,a2,-1
   152b2:	ce19                	beqz	a2,152d0 <memchr+0x2c>
   152b4:	567d                	li	a2,-1
   152b6:	a801                	j	152c6 <memchr+0x22>
   152b8:	0505                	addi	a0,a0,1
   152ba:	00757713          	andi	a4,a0,7
   152be:	cf01                	beqz	a4,152d6 <memchr+0x32>
   152c0:	17fd                	addi	a5,a5,-1
   152c2:	00c78763          	beq	a5,a2,152d0 <memchr+0x2c>
   152c6:	00054703          	lbu	a4,0(a0)
   152ca:	fed717e3          	bne	a4,a3,152b8 <memchr+0x14>
   152ce:	8082                	ret
   152d0:	4501                	li	a0,0
   152d2:	8082                	ret
   152d4:	87b2                	mv	a5,a2
   152d6:	471d                	li	a4,7
   152d8:	04f77163          	bgeu	a4,a5,1531a <memchr+0x76>
   152dc:	0ff5f593          	zext.b	a1,a1
   152e0:	00859713          	slli	a4,a1,0x8
   152e4:	972e                	add	a4,a4,a1
   152e6:	01071593          	slli	a1,a4,0x10
   152ea:	95ba                	add	a1,a1,a4
   152ec:	7101b883          	ld	a7,1808(gp) # 1f680 <__SDATA_BEGIN__>
   152f0:	7181b803          	ld	a6,1816(gp) # 1f688 <__SDATA_BEGIN__+0x8>
   152f4:	02059713          	slli	a4,a1,0x20
   152f8:	95ba                	add	a1,a1,a4
   152fa:	431d                	li	t1,7
   152fc:	a029                	j	15306 <memchr+0x62>
   152fe:	17e1                	addi	a5,a5,-8
   15300:	0521                	addi	a0,a0,8
   15302:	00f37c63          	bgeu	t1,a5,1531a <memchr+0x76>
   15306:	6118                	ld	a4,0(a0)
   15308:	8f2d                	xor	a4,a4,a1
   1530a:	01170633          	add	a2,a4,a7
   1530e:	fff74713          	not	a4,a4
   15312:	8f71                	and	a4,a4,a2
   15314:	01077733          	and	a4,a4,a6
   15318:	d37d                	beqz	a4,152fe <memchr+0x5a>
   1531a:	00f50733          	add	a4,a0,a5
   1531e:	e789                	bnez	a5,15328 <memchr+0x84>
   15320:	bf45                	j	152d0 <memchr+0x2c>
   15322:	0505                	addi	a0,a0,1
   15324:	faa706e3          	beq	a4,a0,152d0 <memchr+0x2c>
   15328:	00054783          	lbu	a5,0(a0)
   1532c:	fed79be3          	bne	a5,a3,15322 <memchr+0x7e>
   15330:	8082                	ret

0000000000015332 <__malloc_lock>:
   15332:	8082                	ret

0000000000015334 <__malloc_unlock>:
   15334:	8082                	ret

0000000000015336 <_Balloc>:
   15336:	7d3c                	ld	a5,120(a0)
   15338:	1101                	addi	sp,sp,-32
   1533a:	e822                	sd	s0,16(sp)
   1533c:	e426                	sd	s1,8(sp)
   1533e:	ec06                	sd	ra,24(sp)
   15340:	84aa                	mv	s1,a0
   15342:	842e                	mv	s0,a1
   15344:	cf99                	beqz	a5,15362 <_Balloc+0x2c>
   15346:	00341713          	slli	a4,s0,0x3
   1534a:	97ba                	add	a5,a5,a4
   1534c:	6388                	ld	a0,0(a5)
   1534e:	c505                	beqz	a0,15376 <_Balloc+0x40>
   15350:	6118                	ld	a4,0(a0)
   15352:	e398                	sd	a4,0(a5)
   15354:	00053823          	sd	zero,16(a0)
   15358:	60e2                	ld	ra,24(sp)
   1535a:	6442                	ld	s0,16(sp)
   1535c:	64a2                	ld	s1,8(sp)
   1535e:	6105                	addi	sp,sp,32
   15360:	8082                	ret
   15362:	04100613          	li	a2,65
   15366:	45a1                	li	a1,8
   15368:	1db030ef          	jal	ra,18d42 <_calloc_r>
   1536c:	fca8                	sd	a0,120(s1)
   1536e:	87aa                	mv	a5,a0
   15370:	f979                	bnez	a0,15346 <_Balloc+0x10>
   15372:	4501                	li	a0,0
   15374:	b7d5                	j	15358 <_Balloc+0x22>
   15376:	4785                	li	a5,1
   15378:	008797bb          	sllw	a5,a5,s0
   1537c:	0007861b          	sext.w	a2,a5
   15380:	061d                	addi	a2,a2,7
   15382:	1402                	slli	s0,s0,0x20
   15384:	1782                	slli	a5,a5,0x20
   15386:	9001                	srli	s0,s0,0x20
   15388:	060a                	slli	a2,a2,0x2
   1538a:	4585                	li	a1,1
   1538c:	8526                	mv	a0,s1
   1538e:	8c5d                	or	s0,s0,a5
   15390:	1b3030ef          	jal	ra,18d42 <_calloc_r>
   15394:	dd79                	beqz	a0,15372 <_Balloc+0x3c>
   15396:	e500                	sd	s0,8(a0)
   15398:	bf75                	j	15354 <_Balloc+0x1e>

000000000001539a <_Bfree>:
   1539a:	c981                	beqz	a1,153aa <_Bfree+0x10>
   1539c:	4598                	lw	a4,8(a1)
   1539e:	7d3c                	ld	a5,120(a0)
   153a0:	070e                	slli	a4,a4,0x3
   153a2:	97ba                	add	a5,a5,a4
   153a4:	6398                	ld	a4,0(a5)
   153a6:	e198                	sd	a4,0(a1)
   153a8:	e38c                	sd	a1,0(a5)
   153aa:	8082                	ret

00000000000153ac <__multadd>:
   153ac:	7179                	addi	sp,sp,-48
   153ae:	f022                	sd	s0,32(sp)
   153b0:	49c0                	lw	s0,20(a1)
   153b2:	6341                	lui	t1,0x10
   153b4:	e84a                	sd	s2,16(sp)
   153b6:	e44e                	sd	s3,8(sp)
   153b8:	f406                	sd	ra,40(sp)
   153ba:	ec26                	sd	s1,24(sp)
   153bc:	e052                	sd	s4,0(sp)
   153be:	892e                	mv	s2,a1
   153c0:	89aa                	mv	s3,a0
   153c2:	01858813          	addi	a6,a1,24
   153c6:	4881                	li	a7,0
   153c8:	137d                	addi	t1,t1,-1 # ffff <exit-0xe9>
   153ca:	00082783          	lw	a5,0(a6)
   153ce:	0811                	addi	a6,a6,4
   153d0:	2885                	addiw	a7,a7,1
   153d2:	0067f733          	and	a4,a5,t1
   153d6:	02c7073b          	mulw	a4,a4,a2
   153da:	0107d79b          	srliw	a5,a5,0x10
   153de:	02c787bb          	mulw	a5,a5,a2
   153e2:	9f35                	addw	a4,a4,a3
   153e4:	0107569b          	srliw	a3,a4,0x10
   153e8:	00e37733          	and	a4,t1,a4
   153ec:	9fb5                	addw	a5,a5,a3
   153ee:	0107969b          	slliw	a3,a5,0x10
   153f2:	9f35                	addw	a4,a4,a3
   153f4:	fee82e23          	sw	a4,-4(a6)
   153f8:	0107d49b          	srliw	s1,a5,0x10
   153fc:	0107d69b          	srliw	a3,a5,0x10
   15400:	fc88c5e3          	blt	a7,s0,153ca <__multadd+0x1e>
   15404:	ce89                	beqz	a3,1541e <__multadd+0x72>
   15406:	00c92783          	lw	a5,12(s2)
   1540a:	02f45363          	bge	s0,a5,15430 <__multadd+0x84>
   1540e:	00440793          	addi	a5,s0,4
   15412:	078a                	slli	a5,a5,0x2
   15414:	97ca                	add	a5,a5,s2
   15416:	c784                	sw	s1,8(a5)
   15418:	2405                	addiw	s0,s0,1
   1541a:	00892a23          	sw	s0,20(s2)
   1541e:	70a2                	ld	ra,40(sp)
   15420:	7402                	ld	s0,32(sp)
   15422:	64e2                	ld	s1,24(sp)
   15424:	69a2                	ld	s3,8(sp)
   15426:	6a02                	ld	s4,0(sp)
   15428:	854a                	mv	a0,s2
   1542a:	6942                	ld	s2,16(sp)
   1542c:	6145                	addi	sp,sp,48
   1542e:	8082                	ret
   15430:	00892583          	lw	a1,8(s2)
   15434:	854e                	mv	a0,s3
   15436:	2585                	addiw	a1,a1,1
   15438:	effff0ef          	jal	ra,15336 <_Balloc>
   1543c:	8a2a                	mv	s4,a0
   1543e:	cd1d                	beqz	a0,1547c <__multadd+0xd0>
   15440:	01492603          	lw	a2,20(s2)
   15444:	01090593          	addi	a1,s2,16
   15448:	0541                	addi	a0,a0,16
   1544a:	0609                	addi	a2,a2,2
   1544c:	060a                	slli	a2,a2,0x2
   1544e:	0b8040ef          	jal	ra,19506 <memcpy>
   15452:	00892703          	lw	a4,8(s2)
   15456:	0789b783          	ld	a5,120(s3)
   1545a:	070e                	slli	a4,a4,0x3
   1545c:	97ba                	add	a5,a5,a4
   1545e:	6398                	ld	a4,0(a5)
   15460:	00e93023          	sd	a4,0(s2)
   15464:	0127b023          	sd	s2,0(a5)
   15468:	00440793          	addi	a5,s0,4
   1546c:	8952                	mv	s2,s4
   1546e:	078a                	slli	a5,a5,0x2
   15470:	97ca                	add	a5,a5,s2
   15472:	c784                	sw	s1,8(a5)
   15474:	2405                	addiw	s0,s0,1
   15476:	00892a23          	sw	s0,20(s2)
   1547a:	b755                	j	1541e <__multadd+0x72>
   1547c:	66f5                	lui	a3,0x1d
   1547e:	6575                	lui	a0,0x1d
   15480:	98068693          	addi	a3,a3,-1664 # 1c980 <blanks.1+0x78>
   15484:	4601                	li	a2,0
   15486:	0b500593          	li	a1,181
   1548a:	c5050513          	addi	a0,a0,-944 # 1cc50 <ezero+0x18>
   1548e:	06d030ef          	jal	ra,18cfa <__assert_func>

0000000000015492 <__s2b>:
   15492:	7139                	addi	sp,sp,-64
   15494:	f822                	sd	s0,48(sp)
   15496:	f426                	sd	s1,40(sp)
   15498:	f04a                	sd	s2,32(sp)
   1549a:	ec4e                	sd	s3,24(sp)
   1549c:	e852                	sd	s4,16(sp)
   1549e:	84b6                	mv	s1,a3
   154a0:	842e                	mv	s0,a1
   154a2:	26a1                	addiw	a3,a3,8
   154a4:	45a5                	li	a1,9
   154a6:	fc06                	sd	ra,56(sp)
   154a8:	e456                	sd	s5,8(sp)
   154aa:	e05a                	sd	s6,0(sp)
   154ac:	47a5                	li	a5,9
   154ae:	02b6c6bb          	divw	a3,a3,a1
   154b2:	892a                	mv	s2,a0
   154b4:	8a32                	mv	s4,a2
   154b6:	89ba                	mv	s3,a4
   154b8:	0a97d163          	bge	a5,s1,1555a <__s2b+0xc8>
   154bc:	4785                	li	a5,1
   154be:	4581                	li	a1,0
   154c0:	0017979b          	slliw	a5,a5,0x1
   154c4:	2585                	addiw	a1,a1,1
   154c6:	fed7cde3          	blt	a5,a3,154c0 <__s2b+0x2e>
   154ca:	854a                	mv	a0,s2
   154cc:	e6bff0ef          	jal	ra,15336 <_Balloc>
   154d0:	85aa                	mv	a1,a0
   154d2:	c551                	beqz	a0,1555e <__s2b+0xcc>
   154d4:	4785                	li	a5,1
   154d6:	c95c                	sw	a5,20(a0)
   154d8:	01352c23          	sw	s3,24(a0)
   154dc:	47a5                	li	a5,9
   154de:	0747db63          	bge	a5,s4,15554 <__s2b+0xc2>
   154e2:	020a1793          	slli	a5,s4,0x20
   154e6:	00940b13          	addi	s6,s0,9
   154ea:	9381                	srli	a5,a5,0x20
   154ec:	000a0a9b          	sext.w	s5,s4
   154f0:	943e                	add	s0,s0,a5
   154f2:	89da                	mv	s3,s6
   154f4:	0009c683          	lbu	a3,0(s3)
   154f8:	4629                	li	a2,10
   154fa:	854a                	mv	a0,s2
   154fc:	fd06869b          	addiw	a3,a3,-48
   15500:	eadff0ef          	jal	ra,153ac <__multadd>
   15504:	0985                	addi	s3,s3,1
   15506:	85aa                	mv	a1,a0
   15508:	fe8996e3          	bne	s3,s0,154f4 <__s2b+0x62>
   1550c:	3ae1                	addiw	s5,s5,-8
   1550e:	1a82                	slli	s5,s5,0x20
   15510:	020ada93          	srli	s5,s5,0x20
   15514:	015b0433          	add	s0,s6,s5
   15518:	029a5363          	bge	s4,s1,1553e <__s2b+0xac>
   1551c:	414484bb          	subw	s1,s1,s4
   15520:	1482                	slli	s1,s1,0x20
   15522:	9081                	srli	s1,s1,0x20
   15524:	94a2                	add	s1,s1,s0
   15526:	00044683          	lbu	a3,0(s0)
   1552a:	4629                	li	a2,10
   1552c:	854a                	mv	a0,s2
   1552e:	fd06869b          	addiw	a3,a3,-48
   15532:	e7bff0ef          	jal	ra,153ac <__multadd>
   15536:	0405                	addi	s0,s0,1
   15538:	85aa                	mv	a1,a0
   1553a:	fe9416e3          	bne	s0,s1,15526 <__s2b+0x94>
   1553e:	70e2                	ld	ra,56(sp)
   15540:	7442                	ld	s0,48(sp)
   15542:	74a2                	ld	s1,40(sp)
   15544:	7902                	ld	s2,32(sp)
   15546:	69e2                	ld	s3,24(sp)
   15548:	6a42                	ld	s4,16(sp)
   1554a:	6aa2                	ld	s5,8(sp)
   1554c:	6b02                	ld	s6,0(sp)
   1554e:	852e                	mv	a0,a1
   15550:	6121                	addi	sp,sp,64
   15552:	8082                	ret
   15554:	0429                	addi	s0,s0,10
   15556:	4a25                	li	s4,9
   15558:	b7c1                	j	15518 <__s2b+0x86>
   1555a:	4581                	li	a1,0
   1555c:	b7bd                	j	154ca <__s2b+0x38>
   1555e:	66f5                	lui	a3,0x1d
   15560:	6575                	lui	a0,0x1d
   15562:	98068693          	addi	a3,a3,-1664 # 1c980 <blanks.1+0x78>
   15566:	4601                	li	a2,0
   15568:	0ce00593          	li	a1,206
   1556c:	c5050513          	addi	a0,a0,-944 # 1cc50 <ezero+0x18>
   15570:	78a030ef          	jal	ra,18cfa <__assert_func>

0000000000015574 <__hi0bits>:
   15574:	87aa                	mv	a5,a0
   15576:	6741                	lui	a4,0x10
   15578:	4501                	li	a0,0
   1557a:	00e7f563          	bgeu	a5,a4,15584 <__hi0bits+0x10>
   1557e:	0107979b          	slliw	a5,a5,0x10
   15582:	4541                	li	a0,16
   15584:	01000737          	lui	a4,0x1000
   15588:	00e7f563          	bgeu	a5,a4,15592 <__hi0bits+0x1e>
   1558c:	0087979b          	slliw	a5,a5,0x8
   15590:	2521                	addiw	a0,a0,8
   15592:	10000737          	lui	a4,0x10000
   15596:	00e7f563          	bgeu	a5,a4,155a0 <__hi0bits+0x2c>
   1559a:	0047979b          	slliw	a5,a5,0x4
   1559e:	2511                	addiw	a0,a0,4
   155a0:	40000737          	lui	a4,0x40000
   155a4:	00e7e663          	bltu	a5,a4,155b0 <__hi0bits+0x3c>
   155a8:	0207c063          	bltz	a5,155c8 <__hi0bits+0x54>
   155ac:	2505                	addiw	a0,a0,1
   155ae:	8082                	ret
   155b0:	0027979b          	slliw	a5,a5,0x2
   155b4:	0007871b          	sext.w	a4,a5
   155b8:	00074963          	bltz	a4,155ca <__hi0bits+0x56>
   155bc:	40000737          	lui	a4,0x40000
   155c0:	8ff9                	and	a5,a5,a4
   155c2:	e791                	bnez	a5,155ce <__hi0bits+0x5a>
   155c4:	02000513          	li	a0,32
   155c8:	8082                	ret
   155ca:	2509                	addiw	a0,a0,2
   155cc:	8082                	ret
   155ce:	250d                	addiw	a0,a0,3
   155d0:	8082                	ret

00000000000155d2 <__lo0bits>:
   155d2:	411c                	lw	a5,0(a0)
   155d4:	872a                	mv	a4,a0
   155d6:	0077f693          	andi	a3,a5,7
   155da:	863e                	mv	a2,a5
   155dc:	ce81                	beqz	a3,155f4 <__lo0bits+0x22>
   155de:	0017f693          	andi	a3,a5,1
   155e2:	4501                	li	a0,0
   155e4:	ee9d                	bnez	a3,15622 <__lo0bits+0x50>
   155e6:	8a09                	andi	a2,a2,2
   155e8:	ce25                	beqz	a2,15660 <__lo0bits+0x8e>
   155ea:	0017d79b          	srliw	a5,a5,0x1
   155ee:	c31c                	sw	a5,0(a4)
   155f0:	4505                	li	a0,1
   155f2:	8082                	ret
   155f4:	03079693          	slli	a3,a5,0x30
   155f8:	92c1                	srli	a3,a3,0x30
   155fa:	4501                	li	a0,0
   155fc:	cab9                	beqz	a3,15652 <__lo0bits+0x80>
   155fe:	0ff7f693          	zext.b	a3,a5
   15602:	c2a9                	beqz	a3,15644 <__lo0bits+0x72>
   15604:	00f7f693          	andi	a3,a5,15
   15608:	c69d                	beqz	a3,15636 <__lo0bits+0x64>
   1560a:	0037f693          	andi	a3,a5,3
   1560e:	ce89                	beqz	a3,15628 <__lo0bits+0x56>
   15610:	0017f693          	andi	a3,a5,1
   15614:	ea81                	bnez	a3,15624 <__lo0bits+0x52>
   15616:	0017d79b          	srliw	a5,a5,0x1
   1561a:	2505                	addiw	a0,a0,1
   1561c:	e781                	bnez	a5,15624 <__lo0bits+0x52>
   1561e:	02000513          	li	a0,32
   15622:	8082                	ret
   15624:	c31c                	sw	a5,0(a4)
   15626:	8082                	ret
   15628:	0027d79b          	srliw	a5,a5,0x2
   1562c:	0017f693          	andi	a3,a5,1
   15630:	2509                	addiw	a0,a0,2
   15632:	faed                	bnez	a3,15624 <__lo0bits+0x52>
   15634:	b7cd                	j	15616 <__lo0bits+0x44>
   15636:	0047d79b          	srliw	a5,a5,0x4
   1563a:	0037f693          	andi	a3,a5,3
   1563e:	2511                	addiw	a0,a0,4
   15640:	fae1                	bnez	a3,15610 <__lo0bits+0x3e>
   15642:	b7dd                	j	15628 <__lo0bits+0x56>
   15644:	0087d79b          	srliw	a5,a5,0x8
   15648:	00f7f693          	andi	a3,a5,15
   1564c:	2521                	addiw	a0,a0,8
   1564e:	fed5                	bnez	a3,1560a <__lo0bits+0x38>
   15650:	b7dd                	j	15636 <__lo0bits+0x64>
   15652:	0107d79b          	srliw	a5,a5,0x10
   15656:	0ff7f693          	zext.b	a3,a5
   1565a:	4541                	li	a0,16
   1565c:	f6c5                	bnez	a3,15604 <__lo0bits+0x32>
   1565e:	b7dd                	j	15644 <__lo0bits+0x72>
   15660:	0027d79b          	srliw	a5,a5,0x2
   15664:	c31c                	sw	a5,0(a4)
   15666:	4509                	li	a0,2
   15668:	8082                	ret

000000000001566a <__i2b>:
   1566a:	7d3c                	ld	a5,120(a0)
   1566c:	1101                	addi	sp,sp,-32
   1566e:	e822                	sd	s0,16(sp)
   15670:	e426                	sd	s1,8(sp)
   15672:	ec06                	sd	ra,24(sp)
   15674:	842a                	mv	s0,a0
   15676:	84ae                	mv	s1,a1
   15678:	cf91                	beqz	a5,15694 <__i2b+0x2a>
   1567a:	6788                	ld	a0,8(a5)
   1567c:	cd1d                	beqz	a0,156ba <__i2b+0x50>
   1567e:	6118                	ld	a4,0(a0)
   15680:	e798                	sd	a4,8(a5)
   15682:	60e2                	ld	ra,24(sp)
   15684:	6442                	ld	s0,16(sp)
   15686:	4785                	li	a5,1
   15688:	1782                	slli	a5,a5,0x20
   1568a:	cd04                	sw	s1,24(a0)
   1568c:	e91c                	sd	a5,16(a0)
   1568e:	64a2                	ld	s1,8(sp)
   15690:	6105                	addi	sp,sp,32
   15692:	8082                	ret
   15694:	04100613          	li	a2,65
   15698:	45a1                	li	a1,8
   1569a:	6a8030ef          	jal	ra,18d42 <_calloc_r>
   1569e:	fc28                	sd	a0,120(s0)
   156a0:	87aa                	mv	a5,a0
   156a2:	fd61                	bnez	a0,1567a <__i2b+0x10>
   156a4:	66f5                	lui	a3,0x1d
   156a6:	6575                	lui	a0,0x1d
   156a8:	98068693          	addi	a3,a3,-1664 # 1c980 <blanks.1+0x78>
   156ac:	4601                	li	a2,0
   156ae:	14000593          	li	a1,320
   156b2:	c5050513          	addi	a0,a0,-944 # 1cc50 <ezero+0x18>
   156b6:	644030ef          	jal	ra,18cfa <__assert_func>
   156ba:	02400613          	li	a2,36
   156be:	4585                	li	a1,1
   156c0:	8522                	mv	a0,s0
   156c2:	680030ef          	jal	ra,18d42 <_calloc_r>
   156c6:	dd79                	beqz	a0,156a4 <__i2b+0x3a>
   156c8:	4785                	li	a5,1
   156ca:	1786                	slli	a5,a5,0x21
   156cc:	0785                	addi	a5,a5,1
   156ce:	e51c                	sd	a5,8(a0)
   156d0:	bf4d                	j	15682 <__i2b+0x18>

00000000000156d2 <__multiply>:
   156d2:	7179                	addi	sp,sp,-48
   156d4:	e84a                	sd	s2,16(sp)
   156d6:	e44e                	sd	s3,8(sp)
   156d8:	01462903          	lw	s2,20(a2)
   156dc:	0145a983          	lw	s3,20(a1)
   156e0:	ec26                	sd	s1,24(sp)
   156e2:	e052                	sd	s4,0(sp)
   156e4:	f406                	sd	ra,40(sp)
   156e6:	f022                	sd	s0,32(sp)
   156e8:	8a2e                	mv	s4,a1
   156ea:	84b2                	mv	s1,a2
   156ec:	0129c763          	blt	s3,s2,156fa <__multiply+0x28>
   156f0:	87ca                	mv	a5,s2
   156f2:	84ae                	mv	s1,a1
   156f4:	894e                	mv	s2,s3
   156f6:	8a32                	mv	s4,a2
   156f8:	89be                	mv	s3,a5
   156fa:	44dc                	lw	a5,12(s1)
   156fc:	0139043b          	addw	s0,s2,s3
   15700:	448c                	lw	a1,8(s1)
   15702:	0087d363          	bge	a5,s0,15708 <__multiply+0x36>
   15706:	2585                	addiw	a1,a1,1
   15708:	c2fff0ef          	jal	ra,15336 <_Balloc>
   1570c:	14050c63          	beqz	a0,15864 <__multiply+0x192>
   15710:	01850313          	addi	t1,a0,24
   15714:	00241893          	slli	a7,s0,0x2
   15718:	989a                	add	a7,a7,t1
   1571a:	879a                	mv	a5,t1
   1571c:	01137763          	bgeu	t1,a7,1572a <__multiply+0x58>
   15720:	0007a023          	sw	zero,0(a5)
   15724:	0791                	addi	a5,a5,4
   15726:	ff17ede3          	bltu	a5,a7,15720 <__multiply+0x4e>
   1572a:	018a0813          	addi	a6,s4,24
   1572e:	00299e13          	slli	t3,s3,0x2
   15732:	01848e93          	addi	t4,s1,24
   15736:	00291593          	slli	a1,s2,0x2
   1573a:	9e42                	add	t3,t3,a6
   1573c:	95f6                	add	a1,a1,t4
   1573e:	0fc87a63          	bgeu	a6,t3,15832 <__multiply+0x160>
   15742:	01948793          	addi	a5,s1,25
   15746:	4f11                	li	t5,4
   15748:	10f5f763          	bgeu	a1,a5,15856 <__multiply+0x184>
   1574c:	66c1                	lui	a3,0x10
   1574e:	16fd                	addi	a3,a3,-1 # ffff <exit-0xe9>
   15750:	a809                	j	15762 <__multiply+0x90>
   15752:	010fdf9b          	srliw	t6,t6,0x10
   15756:	060f9d63          	bnez	t6,157d0 <__multiply+0xfe>
   1575a:	0811                	addi	a6,a6,4
   1575c:	0311                	addi	t1,t1,4
   1575e:	0dc87a63          	bgeu	a6,t3,15832 <__multiply+0x160>
   15762:	00082f83          	lw	t6,0(a6)
   15766:	00dff3b3          	and	t2,t6,a3
   1576a:	fe0384e3          	beqz	t2,15752 <__multiply+0x80>
   1576e:	829a                	mv	t0,t1
   15770:	8ff6                	mv	t6,t4
   15772:	4481                	li	s1,0
   15774:	000fa783          	lw	a5,0(t6)
   15778:	0002a603          	lw	a2,0(t0) # 102ca <memset+0x90>
   1577c:	0291                	addi	t0,t0,4
   1577e:	00d7f733          	and	a4,a5,a3
   15782:	0277073b          	mulw	a4,a4,t2
   15786:	0107d79b          	srliw	a5,a5,0x10
   1578a:	00d67933          	and	s2,a2,a3
   1578e:	0106561b          	srliw	a2,a2,0x10
   15792:	0f91                	addi	t6,t6,4
   15794:	027787bb          	mulw	a5,a5,t2
   15798:	0127073b          	addw	a4,a4,s2
   1579c:	9f25                	addw	a4,a4,s1
   1579e:	0107549b          	srliw	s1,a4,0x10
   157a2:	8f75                	and	a4,a4,a3
   157a4:	9fb1                	addw	a5,a5,a2
   157a6:	9fa5                	addw	a5,a5,s1
   157a8:	0107961b          	slliw	a2,a5,0x10
   157ac:	8f51                	or	a4,a4,a2
   157ae:	fee2ae23          	sw	a4,-4(t0)
   157b2:	0107d49b          	srliw	s1,a5,0x10
   157b6:	0107d71b          	srliw	a4,a5,0x10
   157ba:	fabfede3          	bltu	t6,a1,15774 <__multiply+0xa2>
   157be:	01e307b3          	add	a5,t1,t5
   157c2:	c398                	sw	a4,0(a5)
   157c4:	00082f83          	lw	t6,0(a6)
   157c8:	010fdf9b          	srliw	t6,t6,0x10
   157cc:	f80f87e3          	beqz	t6,1575a <__multiply+0x88>
   157d0:	00032703          	lw	a4,0(t1)
   157d4:	829a                	mv	t0,t1
   157d6:	8676                	mv	a2,t4
   157d8:	83ba                	mv	t2,a4
   157da:	4481                	li	s1,0
   157dc:	421c                	lw	a5,0(a2)
   157de:	0103d99b          	srliw	s3,t2,0x10
   157e2:	8f75                	and	a4,a4,a3
   157e4:	8ff5                	and	a5,a5,a3
   157e6:	03f787bb          	mulw	a5,a5,t6
   157ea:	0042a383          	lw	t2,4(t0)
   157ee:	0291                	addi	t0,t0,4
   157f0:	0611                	addi	a2,a2,4
   157f2:	00d3f933          	and	s2,t2,a3
   157f6:	9fa5                	addw	a5,a5,s1
   157f8:	013787bb          	addw	a5,a5,s3
   157fc:	0107949b          	slliw	s1,a5,0x10
   15800:	8f45                	or	a4,a4,s1
   15802:	fee2ae23          	sw	a4,-4(t0)
   15806:	ffe65703          	lhu	a4,-2(a2)
   1580a:	0107d79b          	srliw	a5,a5,0x10
   1580e:	03f7073b          	mulw	a4,a4,t6
   15812:	0127073b          	addw	a4,a4,s2
   15816:	9fb9                	addw	a5,a5,a4
   15818:	0007871b          	sext.w	a4,a5
   1581c:	0107d49b          	srliw	s1,a5,0x10
   15820:	fab66ee3          	bltu	a2,a1,157dc <__multiply+0x10a>
   15824:	01e30733          	add	a4,t1,t5
   15828:	c31c                	sw	a5,0(a4)
   1582a:	0811                	addi	a6,a6,4
   1582c:	0311                	addi	t1,t1,4
   1582e:	f3c86ae3          	bltu	a6,t3,15762 <__multiply+0x90>
   15832:	00804563          	bgtz	s0,1583c <__multiply+0x16a>
   15836:	a039                	j	15844 <__multiply+0x172>
   15838:	347d                	addiw	s0,s0,-1
   1583a:	c409                	beqz	s0,15844 <__multiply+0x172>
   1583c:	ffc8a783          	lw	a5,-4(a7)
   15840:	18f1                	addi	a7,a7,-4
   15842:	dbfd                	beqz	a5,15838 <__multiply+0x166>
   15844:	70a2                	ld	ra,40(sp)
   15846:	c940                	sw	s0,20(a0)
   15848:	7402                	ld	s0,32(sp)
   1584a:	64e2                	ld	s1,24(sp)
   1584c:	6942                	ld	s2,16(sp)
   1584e:	69a2                	ld	s3,8(sp)
   15850:	6a02                	ld	s4,0(sp)
   15852:	6145                	addi	sp,sp,48
   15854:	8082                	ret
   15856:	409587b3          	sub	a5,a1,s1
   1585a:	179d                	addi	a5,a5,-25
   1585c:	9bf1                	andi	a5,a5,-4
   1585e:	00478f13          	addi	t5,a5,4
   15862:	b5ed                	j	1574c <__multiply+0x7a>
   15864:	66f5                	lui	a3,0x1d
   15866:	6575                	lui	a0,0x1d
   15868:	98068693          	addi	a3,a3,-1664 # 1c980 <blanks.1+0x78>
   1586c:	4601                	li	a2,0
   1586e:	15d00593          	li	a1,349
   15872:	c5050513          	addi	a0,a0,-944 # 1cc50 <ezero+0x18>
   15876:	484030ef          	jal	ra,18cfa <__assert_func>

000000000001587a <__pow5mult>:
   1587a:	7179                	addi	sp,sp,-48
   1587c:	f022                	sd	s0,32(sp)
   1587e:	e84a                	sd	s2,16(sp)
   15880:	e44e                	sd	s3,8(sp)
   15882:	f406                	sd	ra,40(sp)
   15884:	ec26                	sd	s1,24(sp)
   15886:	00367793          	andi	a5,a2,3
   1588a:	8432                	mv	s0,a2
   1588c:	89aa                	mv	s3,a0
   1588e:	892e                	mv	s2,a1
   15890:	eba5                	bnez	a5,15900 <__pow5mult+0x86>
   15892:	8409                	srai	s0,s0,0x2
   15894:	c421                	beqz	s0,158dc <__pow5mult+0x62>
   15896:	0709b483          	ld	s1,112(s3)
   1589a:	ccbd                	beqz	s1,15918 <__pow5mult+0x9e>
   1589c:	00147793          	andi	a5,s0,1
   158a0:	eb89                	bnez	a5,158b2 <__pow5mult+0x38>
   158a2:	8405                	srai	s0,s0,0x1
   158a4:	cc05                	beqz	s0,158dc <__pow5mult+0x62>
   158a6:	6088                	ld	a0,0(s1)
   158a8:	c131                	beqz	a0,158ec <__pow5mult+0x72>
   158aa:	84aa                	mv	s1,a0
   158ac:	00147793          	andi	a5,s0,1
   158b0:	dbed                	beqz	a5,158a2 <__pow5mult+0x28>
   158b2:	8626                	mv	a2,s1
   158b4:	85ca                	mv	a1,s2
   158b6:	854e                	mv	a0,s3
   158b8:	e1bff0ef          	jal	ra,156d2 <__multiply>
   158bc:	00090d63          	beqz	s2,158d6 <__pow5mult+0x5c>
   158c0:	00892703          	lw	a4,8(s2)
   158c4:	0789b783          	ld	a5,120(s3)
   158c8:	070e                	slli	a4,a4,0x3
   158ca:	97ba                	add	a5,a5,a4
   158cc:	6398                	ld	a4,0(a5)
   158ce:	00e93023          	sd	a4,0(s2)
   158d2:	0127b023          	sd	s2,0(a5)
   158d6:	8405                	srai	s0,s0,0x1
   158d8:	892a                	mv	s2,a0
   158da:	f471                	bnez	s0,158a6 <__pow5mult+0x2c>
   158dc:	70a2                	ld	ra,40(sp)
   158de:	7402                	ld	s0,32(sp)
   158e0:	64e2                	ld	s1,24(sp)
   158e2:	69a2                	ld	s3,8(sp)
   158e4:	854a                	mv	a0,s2
   158e6:	6942                	ld	s2,16(sp)
   158e8:	6145                	addi	sp,sp,48
   158ea:	8082                	ret
   158ec:	8626                	mv	a2,s1
   158ee:	85a6                	mv	a1,s1
   158f0:	854e                	mv	a0,s3
   158f2:	de1ff0ef          	jal	ra,156d2 <__multiply>
   158f6:	e088                	sd	a0,0(s1)
   158f8:	00053023          	sd	zero,0(a0)
   158fc:	84aa                	mv	s1,a0
   158fe:	b77d                	j	158ac <__pow5mult+0x32>
   15900:	37fd                	addiw	a5,a5,-1
   15902:	6775                	lui	a4,0x1d
   15904:	c9870713          	addi	a4,a4,-872 # 1cc98 <p05.0>
   15908:	078a                	slli	a5,a5,0x2
   1590a:	97ba                	add	a5,a5,a4
   1590c:	4390                	lw	a2,0(a5)
   1590e:	4681                	li	a3,0
   15910:	a9dff0ef          	jal	ra,153ac <__multadd>
   15914:	892a                	mv	s2,a0
   15916:	bfb5                	j	15892 <__pow5mult+0x18>
   15918:	4585                	li	a1,1
   1591a:	854e                	mv	a0,s3
   1591c:	a1bff0ef          	jal	ra,15336 <_Balloc>
   15920:	84aa                	mv	s1,a0
   15922:	c919                	beqz	a0,15938 <__pow5mult+0xbe>
   15924:	27100793          	li	a5,625
   15928:	cd1c                	sw	a5,24(a0)
   1592a:	4785                	li	a5,1
   1592c:	c95c                	sw	a5,20(a0)
   1592e:	06a9b823          	sd	a0,112(s3)
   15932:	00053023          	sd	zero,0(a0)
   15936:	b79d                	j	1589c <__pow5mult+0x22>
   15938:	66f5                	lui	a3,0x1d
   1593a:	6575                	lui	a0,0x1d
   1593c:	98068693          	addi	a3,a3,-1664 # 1c980 <blanks.1+0x78>
   15940:	4601                	li	a2,0
   15942:	14000593          	li	a1,320
   15946:	c5050513          	addi	a0,a0,-944 # 1cc50 <ezero+0x18>
   1594a:	3b0030ef          	jal	ra,18cfa <__assert_func>

000000000001594e <__lshift>:
   1594e:	7139                	addi	sp,sp,-64
   15950:	f822                	sd	s0,48(sp)
   15952:	49c0                	lw	s0,20(a1)
   15954:	45dc                	lw	a5,12(a1)
   15956:	e456                	sd	s5,8(sp)
   15958:	40565a9b          	sraiw	s5,a2,0x5
   1595c:	008a843b          	addw	s0,s5,s0
   15960:	f426                	sd	s1,40(sp)
   15962:	f04a                	sd	s2,32(sp)
   15964:	ec4e                	sd	s3,24(sp)
   15966:	e852                	sd	s4,16(sp)
   15968:	e05a                	sd	s6,0(sp)
   1596a:	fc06                	sd	ra,56(sp)
   1596c:	0014091b          	addiw	s2,s0,1
   15970:	84ae                	mv	s1,a1
   15972:	8a32                	mv	s4,a2
   15974:	458c                	lw	a1,8(a1)
   15976:	89aa                	mv	s3,a0
   15978:	40565b13          	srai	s6,a2,0x5
   1597c:	0127d763          	bge	a5,s2,1598a <__lshift+0x3c>
   15980:	0017979b          	slliw	a5,a5,0x1
   15984:	2585                	addiw	a1,a1,1
   15986:	ff27cde3          	blt	a5,s2,15980 <__lshift+0x32>
   1598a:	854e                	mv	a0,s3
   1598c:	9abff0ef          	jal	ra,15336 <_Balloc>
   15990:	c571                	beqz	a0,15a5c <__lshift+0x10e>
   15992:	01850713          	addi	a4,a0,24
   15996:	03605163          	blez	s6,159b8 <__lshift+0x6a>
   1599a:	006a869b          	addiw	a3,s5,6
   1599e:	068a                	slli	a3,a3,0x2
   159a0:	96aa                	add	a3,a3,a0
   159a2:	87ba                	mv	a5,a4
   159a4:	0791                	addi	a5,a5,4
   159a6:	fe07ae23          	sw	zero,-4(a5)
   159aa:	fef69de3          	bne	a3,a5,159a4 <__lshift+0x56>
   159ae:	020a9793          	slli	a5,s5,0x20
   159b2:	01e7da93          	srli	s5,a5,0x1e
   159b6:	9756                	add	a4,a4,s5
   159b8:	0144a883          	lw	a7,20(s1)
   159bc:	01848793          	addi	a5,s1,24
   159c0:	01fa7613          	andi	a2,s4,31
   159c4:	088a                	slli	a7,a7,0x2
   159c6:	98be                	add	a7,a7,a5
   159c8:	ca3d                	beqz	a2,15a3e <__lshift+0xf0>
   159ca:	02000593          	li	a1,32
   159ce:	9d91                	subw	a1,a1,a2
   159d0:	833a                	mv	t1,a4
   159d2:	4681                	li	a3,0
   159d4:	0007a803          	lw	a6,0(a5)
   159d8:	0311                	addi	t1,t1,4
   159da:	0791                	addi	a5,a5,4
   159dc:	00c8183b          	sllw	a6,a6,a2
   159e0:	0106e6b3          	or	a3,a3,a6
   159e4:	fed32e23          	sw	a3,-4(t1)
   159e8:	ffc7a803          	lw	a6,-4(a5)
   159ec:	00b856bb          	srlw	a3,a6,a1
   159f0:	8836                	mv	a6,a3
   159f2:	ff17e1e3          	bltu	a5,a7,159d4 <__lshift+0x86>
   159f6:	01948793          	addi	a5,s1,25
   159fa:	4611                	li	a2,4
   159fc:	00f8e863          	bltu	a7,a5,15a0c <__lshift+0xbe>
   15a00:	409887b3          	sub	a5,a7,s1
   15a04:	179d                	addi	a5,a5,-25
   15a06:	9bf1                	andi	a5,a5,-4
   15a08:	00478613          	addi	a2,a5,4
   15a0c:	9732                	add	a4,a4,a2
   15a0e:	01072023          	sw	a6,0(a4)
   15a12:	e291                	bnez	a3,15a16 <__lshift+0xc8>
   15a14:	8922                	mv	s2,s0
   15a16:	4498                	lw	a4,8(s1)
   15a18:	0789b783          	ld	a5,120(s3)
   15a1c:	70e2                	ld	ra,56(sp)
   15a1e:	070e                	slli	a4,a4,0x3
   15a20:	97ba                	add	a5,a5,a4
   15a22:	6398                	ld	a4,0(a5)
   15a24:	01252a23          	sw	s2,20(a0)
   15a28:	7442                	ld	s0,48(sp)
   15a2a:	e098                	sd	a4,0(s1)
   15a2c:	e384                	sd	s1,0(a5)
   15a2e:	7902                	ld	s2,32(sp)
   15a30:	74a2                	ld	s1,40(sp)
   15a32:	69e2                	ld	s3,24(sp)
   15a34:	6a42                	ld	s4,16(sp)
   15a36:	6aa2                	ld	s5,8(sp)
   15a38:	6b02                	ld	s6,0(sp)
   15a3a:	6121                	addi	sp,sp,64
   15a3c:	8082                	ret
   15a3e:	4394                	lw	a3,0(a5)
   15a40:	0791                	addi	a5,a5,4
   15a42:	0711                	addi	a4,a4,4
   15a44:	fed72e23          	sw	a3,-4(a4)
   15a48:	fd17f6e3          	bgeu	a5,a7,15a14 <__lshift+0xc6>
   15a4c:	4394                	lw	a3,0(a5)
   15a4e:	0791                	addi	a5,a5,4
   15a50:	0711                	addi	a4,a4,4
   15a52:	fed72e23          	sw	a3,-4(a4)
   15a56:	ff17e4e3          	bltu	a5,a7,15a3e <__lshift+0xf0>
   15a5a:	bf6d                	j	15a14 <__lshift+0xc6>
   15a5c:	66f5                	lui	a3,0x1d
   15a5e:	6575                	lui	a0,0x1d
   15a60:	98068693          	addi	a3,a3,-1664 # 1c980 <blanks.1+0x78>
   15a64:	4601                	li	a2,0
   15a66:	1d900593          	li	a1,473
   15a6a:	c5050513          	addi	a0,a0,-944 # 1cc50 <ezero+0x18>
   15a6e:	28c030ef          	jal	ra,18cfa <__assert_func>

0000000000015a72 <__mcmp>:
   15a72:	49dc                	lw	a5,20(a1)
   15a74:	882a                	mv	a6,a0
   15a76:	4948                	lw	a0,20(a0)
   15a78:	9d1d                	subw	a0,a0,a5
   15a7a:	e51d                	bnez	a0,15aa8 <__mcmp+0x36>
   15a7c:	078a                	slli	a5,a5,0x2
   15a7e:	0861                	addi	a6,a6,24
   15a80:	05e1                	addi	a1,a1,24
   15a82:	00f80733          	add	a4,a6,a5
   15a86:	97ae                	add	a5,a5,a1
   15a88:	a019                	j	15a8e <__mcmp+0x1c>
   15a8a:	00e87f63          	bgeu	a6,a4,15aa8 <__mcmp+0x36>
   15a8e:	ffc72603          	lw	a2,-4(a4)
   15a92:	ffc7a683          	lw	a3,-4(a5)
   15a96:	1771                	addi	a4,a4,-4
   15a98:	17f1                	addi	a5,a5,-4
   15a9a:	fed608e3          	beq	a2,a3,15a8a <__mcmp+0x18>
   15a9e:	4505                	li	a0,1
   15aa0:	00d67463          	bgeu	a2,a3,15aa8 <__mcmp+0x36>
   15aa4:	557d                	li	a0,-1
   15aa6:	8082                	ret
   15aa8:	8082                	ret

0000000000015aaa <__mdiff>:
   15aaa:	1101                	addi	sp,sp,-32
   15aac:	4a5c                	lw	a5,20(a2)
   15aae:	e04a                	sd	s2,0(sp)
   15ab0:	0145a903          	lw	s2,20(a1)
   15ab4:	e822                	sd	s0,16(sp)
   15ab6:	e426                	sd	s1,8(sp)
   15ab8:	ec06                	sd	ra,24(sp)
   15aba:	40f9093b          	subw	s2,s2,a5
   15abe:	84ae                	mv	s1,a1
   15ac0:	8432                	mv	s0,a2
   15ac2:	02091c63          	bnez	s2,15afa <__mdiff+0x50>
   15ac6:	00279693          	slli	a3,a5,0x2
   15aca:	05e1                	addi	a1,a1,24
   15acc:	01860713          	addi	a4,a2,24
   15ad0:	00d587b3          	add	a5,a1,a3
   15ad4:	9736                	add	a4,a4,a3
   15ad6:	a019                	j	15adc <__mdiff+0x32>
   15ad8:	12f5f663          	bgeu	a1,a5,15c04 <__mdiff+0x15a>
   15adc:	ffc7a603          	lw	a2,-4(a5)
   15ae0:	ffc72683          	lw	a3,-4(a4)
   15ae4:	17f1                	addi	a5,a5,-4
   15ae6:	1771                	addi	a4,a4,-4
   15ae8:	fed608e3          	beq	a2,a3,15ad8 <__mdiff+0x2e>
   15aec:	00d67a63          	bgeu	a2,a3,15b00 <__mdiff+0x56>
   15af0:	87a6                	mv	a5,s1
   15af2:	4905                	li	s2,1
   15af4:	84a2                	mv	s1,s0
   15af6:	843e                	mv	s0,a5
   15af8:	a021                	j	15b00 <__mdiff+0x56>
   15afa:	fe094be3          	bltz	s2,15af0 <__mdiff+0x46>
   15afe:	4901                	li	s2,0
   15b00:	448c                	lw	a1,8(s1)
   15b02:	835ff0ef          	jal	ra,15336 <_Balloc>
   15b06:	14050163          	beqz	a0,15c48 <__mdiff+0x19e>
   15b0a:	0144a303          	lw	t1,20(s1)
   15b0e:	01442f03          	lw	t5,20(s0)
   15b12:	01848293          	addi	t0,s1,24
   15b16:	00231e13          	slli	t3,t1,0x2
   15b1a:	01840813          	addi	a6,s0,24
   15b1e:	0f0a                	slli	t5,t5,0x2
   15b20:	01850f93          	addi	t6,a0,24
   15b24:	68c1                	lui	a7,0x10
   15b26:	01252823          	sw	s2,16(a0)
   15b2a:	9e16                	add	t3,t3,t0
   15b2c:	9f42                	add	t5,t5,a6
   15b2e:	867e                	mv	a2,t6
   15b30:	8e96                	mv	t4,t0
   15b32:	4581                	li	a1,0
   15b34:	18fd                	addi	a7,a7,-1 # ffff <exit-0xe9>
   15b36:	000ea703          	lw	a4,0(t4)
   15b3a:	00082683          	lw	a3,0(a6)
   15b3e:	0611                	addi	a2,a2,4
   15b40:	011777b3          	and	a5,a4,a7
   15b44:	0116f3b3          	and	t2,a3,a7
   15b48:	407787bb          	subw	a5,a5,t2
   15b4c:	9fad                	addw	a5,a5,a1
   15b4e:	0106d69b          	srliw	a3,a3,0x10
   15b52:	0107571b          	srliw	a4,a4,0x10
   15b56:	9f15                	subw	a4,a4,a3
   15b58:	4107d69b          	sraiw	a3,a5,0x10
   15b5c:	9f35                	addw	a4,a4,a3
   15b5e:	00f8f7b3          	and	a5,a7,a5
   15b62:	0107169b          	slliw	a3,a4,0x10
   15b66:	8fd5                	or	a5,a5,a3
   15b68:	2781                	sext.w	a5,a5
   15b6a:	0811                	addi	a6,a6,4
   15b6c:	fef62e23          	sw	a5,-4(a2)
   15b70:	0e91                	addi	t4,t4,4
   15b72:	4107559b          	sraiw	a1,a4,0x10
   15b76:	fde860e3          	bltu	a6,t5,15b36 <__mdiff+0x8c>
   15b7a:	408f0733          	sub	a4,t5,s0
   15b7e:	171d                	addi	a4,a4,-25
   15b80:	0465                	addi	s0,s0,25
   15b82:	00275e93          	srli	t4,a4,0x2
   15b86:	4711                	li	a4,4
   15b88:	008f6563          	bltu	t5,s0,15b92 <__mdiff+0xe8>
   15b8c:	001e8713          	addi	a4,t4,1
   15b90:	070a                	slli	a4,a4,0x2
   15b92:	92ba                	add	t0,t0,a4
   15b94:	00ef8833          	add	a6,t6,a4
   15b98:	68c1                	lui	a7,0x10
   15b9a:	8642                	mv	a2,a6
   15b9c:	8696                	mv	a3,t0
   15b9e:	18fd                	addi	a7,a7,-1 # ffff <exit-0xe9>
   15ba0:	09c2f063          	bgeu	t0,t3,15c20 <__mdiff+0x176>
   15ba4:	429c                	lw	a5,0(a3)
   15ba6:	00058e9b          	sext.w	t4,a1
   15baa:	0611                	addi	a2,a2,4
   15bac:	0117f733          	and	a4,a5,a7
   15bb0:	9f2d                	addw	a4,a4,a1
   15bb2:	4107571b          	sraiw	a4,a4,0x10
   15bb6:	0107d59b          	srliw	a1,a5,0x10
   15bba:	9f2d                	addw	a4,a4,a1
   15bbc:	01d787bb          	addw	a5,a5,t4
   15bc0:	0107159b          	slliw	a1,a4,0x10
   15bc4:	0117f7b3          	and	a5,a5,a7
   15bc8:	8fcd                	or	a5,a5,a1
   15bca:	2781                	sext.w	a5,a5
   15bcc:	0691                	addi	a3,a3,4
   15bce:	fef62e23          	sw	a5,-4(a2)
   15bd2:	4107559b          	sraiw	a1,a4,0x10
   15bd6:	fdc6e7e3          	bltu	a3,t3,15ba4 <__mdiff+0xfa>
   15bda:	1e7d                	addi	t3,t3,-1
   15bdc:	405e0e33          	sub	t3,t3,t0
   15be0:	ffce7e13          	andi	t3,t3,-4
   15be4:	01c80733          	add	a4,a6,t3
   15be8:	e791                	bnez	a5,15bf4 <__mdiff+0x14a>
   15bea:	ffc72783          	lw	a5,-4(a4)
   15bee:	337d                	addiw	t1,t1,-1
   15bf0:	1771                	addi	a4,a4,-4
   15bf2:	dfe5                	beqz	a5,15bea <__mdiff+0x140>
   15bf4:	60e2                	ld	ra,24(sp)
   15bf6:	6442                	ld	s0,16(sp)
   15bf8:	00652a23          	sw	t1,20(a0)
   15bfc:	64a2                	ld	s1,8(sp)
   15bfe:	6902                	ld	s2,0(sp)
   15c00:	6105                	addi	sp,sp,32
   15c02:	8082                	ret
   15c04:	4581                	li	a1,0
   15c06:	f30ff0ef          	jal	ra,15336 <_Balloc>
   15c0a:	c505                	beqz	a0,15c32 <__mdiff+0x188>
   15c0c:	60e2                	ld	ra,24(sp)
   15c0e:	6442                	ld	s0,16(sp)
   15c10:	4785                	li	a5,1
   15c12:	c95c                	sw	a5,20(a0)
   15c14:	00052c23          	sw	zero,24(a0)
   15c18:	64a2                	ld	s1,8(sp)
   15c1a:	6902                	ld	s2,0(sp)
   15c1c:	6105                	addi	sp,sp,32
   15c1e:	8082                	ret
   15c20:	4701                	li	a4,0
   15c22:	008f7463          	bgeu	t5,s0,15c2a <__mdiff+0x180>
   15c26:	977e                	add	a4,a4,t6
   15c28:	b7c1                	j	15be8 <__mdiff+0x13e>
   15c2a:	002e9713          	slli	a4,t4,0x2
   15c2e:	977e                	add	a4,a4,t6
   15c30:	bf65                	j	15be8 <__mdiff+0x13e>
   15c32:	66f5                	lui	a3,0x1d
   15c34:	6575                	lui	a0,0x1d
   15c36:	98068693          	addi	a3,a3,-1664 # 1c980 <blanks.1+0x78>
   15c3a:	4601                	li	a2,0
   15c3c:	23200593          	li	a1,562
   15c40:	c5050513          	addi	a0,a0,-944 # 1cc50 <ezero+0x18>
   15c44:	0b6030ef          	jal	ra,18cfa <__assert_func>
   15c48:	66f5                	lui	a3,0x1d
   15c4a:	6575                	lui	a0,0x1d
   15c4c:	98068693          	addi	a3,a3,-1664 # 1c980 <blanks.1+0x78>
   15c50:	4601                	li	a2,0
   15c52:	24000593          	li	a1,576
   15c56:	c5050513          	addi	a0,a0,-944 # 1cc50 <ezero+0x18>
   15c5a:	0a0030ef          	jal	ra,18cfa <__assert_func>

0000000000015c5e <__ulp>:
   15c5e:	e2050753          	fmv.x.d	a4,fa0
   15c62:	7ff007b7          	lui	a5,0x7ff00
   15c66:	9301                	srli	a4,a4,0x20
   15c68:	8f7d                	and	a4,a4,a5
   15c6a:	fcc007b7          	lui	a5,0xfcc00
   15c6e:	00e786bb          	addw	a3,a5,a4
   15c72:	4701                	li	a4,0
   15c74:	00d05963          	blez	a3,15c86 <__ulp+0x28>
   15c78:	1702                	slli	a4,a4,0x20
   15c7a:	1682                	slli	a3,a3,0x20
   15c7c:	9301                	srli	a4,a4,0x20
   15c7e:	8f55                	or	a4,a4,a3
   15c80:	f2070553          	fmv.d.x	fa0,a4
   15c84:	8082                	ret
   15c86:	40d007bb          	negw	a5,a3
   15c8a:	4147d71b          	sraiw	a4,a5,0x14
   15c8e:	46cd                	li	a3,19
   15c90:	00e6ce63          	blt	a3,a4,15cac <__ulp+0x4e>
   15c94:	000806b7          	lui	a3,0x80
   15c98:	40e6d6bb          	sraw	a3,a3,a4
   15c9c:	4701                	li	a4,0
   15c9e:	1702                	slli	a4,a4,0x20
   15ca0:	1682                	slli	a3,a3,0x20
   15ca2:	9301                	srli	a4,a4,0x20
   15ca4:	8f55                	or	a4,a4,a3
   15ca6:	f2070553          	fmv.d.x	fa0,a4
   15caa:	8082                	ret
   15cac:	fec7079b          	addiw	a5,a4,-20
   15cb0:	46f9                	li	a3,30
   15cb2:	4705                	li	a4,1
   15cb4:	00f6c663          	blt	a3,a5,15cc0 <__ulp+0x62>
   15cb8:	80000737          	lui	a4,0x80000
   15cbc:	00f7573b          	srlw	a4,a4,a5
   15cc0:	4681                	li	a3,0
   15cc2:	1702                	slli	a4,a4,0x20
   15cc4:	1682                	slli	a3,a3,0x20
   15cc6:	9301                	srli	a4,a4,0x20
   15cc8:	8f55                	or	a4,a4,a3
   15cca:	f2070553          	fmv.d.x	fa0,a4
   15cce:	8082                	ret

0000000000015cd0 <__b2d>:
   15cd0:	7179                	addi	sp,sp,-48
   15cd2:	ec26                	sd	s1,24(sp)
   15cd4:	4944                	lw	s1,20(a0)
   15cd6:	f022                	sd	s0,32(sp)
   15cd8:	01850413          	addi	s0,a0,24
   15cdc:	048a                	slli	s1,s1,0x2
   15cde:	94a2                	add	s1,s1,s0
   15ce0:	e84a                	sd	s2,16(sp)
   15ce2:	ffc4a903          	lw	s2,-4(s1)
   15ce6:	e44e                	sd	s3,8(sp)
   15ce8:	e052                	sd	s4,0(sp)
   15cea:	854a                	mv	a0,s2
   15cec:	89ae                	mv	s3,a1
   15cee:	f406                	sd	ra,40(sp)
   15cf0:	885ff0ef          	jal	ra,15574 <__hi0bits>
   15cf4:	02000693          	li	a3,32
   15cf8:	40a687bb          	subw	a5,a3,a0
   15cfc:	00f9a023          	sw	a5,0(s3)
   15d00:	47a9                	li	a5,10
   15d02:	ffc48a13          	addi	s4,s1,-4
   15d06:	08a7d563          	bge	a5,a0,15d90 <__b2d+0xc0>
   15d0a:	ff55079b          	addiw	a5,a0,-11
   15d0e:	05447163          	bgeu	s0,s4,15d50 <__b2d+0x80>
   15d12:	ff84a703          	lw	a4,-8(s1)
   15d16:	cba9                	beqz	a5,15d68 <__b2d+0x98>
   15d18:	9e9d                	subw	a3,a3,a5
   15d1a:	00d7563b          	srlw	a2,a4,a3
   15d1e:	00f9193b          	sllw	s2,s2,a5
   15d22:	00c96933          	or	s2,s2,a2
   15d26:	3ff00637          	lui	a2,0x3ff00
   15d2a:	00c96933          	or	s2,s2,a2
   15d2e:	00f715bb          	sllw	a1,a4,a5
   15d32:	ff848613          	addi	a2,s1,-8
   15d36:	02091793          	slli	a5,s2,0x20
   15d3a:	0005871b          	sext.w	a4,a1
   15d3e:	02c47a63          	bgeu	s0,a2,15d72 <__b2d+0xa2>
   15d42:	ff44a703          	lw	a4,-12(s1)
   15d46:	00d7573b          	srlw	a4,a4,a3
   15d4a:	8f4d                	or	a4,a4,a1
   15d4c:	2701                	sext.w	a4,a4
   15d4e:	a015                	j	15d72 <__b2d+0xa2>
   15d50:	472d                	li	a4,11
   15d52:	00e50a63          	beq	a0,a4,15d66 <__b2d+0x96>
   15d56:	3ff00737          	lui	a4,0x3ff00
   15d5a:	00f917bb          	sllw	a5,s2,a5
   15d5e:	8fd9                	or	a5,a5,a4
   15d60:	1782                	slli	a5,a5,0x20
   15d62:	4701                	li	a4,0
   15d64:	a039                	j	15d72 <__b2d+0xa2>
   15d66:	4701                	li	a4,0
   15d68:	3ff007b7          	lui	a5,0x3ff00
   15d6c:	00f967b3          	or	a5,s2,a5
   15d70:	1782                	slli	a5,a5,0x20
   15d72:	70a2                	ld	ra,40(sp)
   15d74:	7402                	ld	s0,32(sp)
   15d76:	9381                	srli	a5,a5,0x20
   15d78:	1702                	slli	a4,a4,0x20
   15d7a:	9301                	srli	a4,a4,0x20
   15d7c:	1782                	slli	a5,a5,0x20
   15d7e:	8fd9                	or	a5,a5,a4
   15d80:	64e2                	ld	s1,24(sp)
   15d82:	6942                	ld	s2,16(sp)
   15d84:	69a2                	ld	s3,8(sp)
   15d86:	6a02                	ld	s4,0(sp)
   15d88:	f2078553          	fmv.d.x	fa0,a5
   15d8c:	6145                	addi	sp,sp,48
   15d8e:	8082                	ret
   15d90:	46ad                	li	a3,11
   15d92:	9e89                	subw	a3,a3,a0
   15d94:	3ff00737          	lui	a4,0x3ff00
   15d98:	00d957bb          	srlw	a5,s2,a3
   15d9c:	8fd9                	or	a5,a5,a4
   15d9e:	1782                	slli	a5,a5,0x20
   15da0:	4701                	li	a4,0
   15da2:	01447663          	bgeu	s0,s4,15dae <__b2d+0xde>
   15da6:	ff84a703          	lw	a4,-8(s1)
   15daa:	00d7573b          	srlw	a4,a4,a3
   15dae:	2555                	addiw	a0,a0,21
   15db0:	00a9153b          	sllw	a0,s2,a0
   15db4:	8f49                	or	a4,a4,a0
   15db6:	2701                	sext.w	a4,a4
   15db8:	bf6d                	j	15d72 <__b2d+0xa2>

0000000000015dba <__d2b>:
   15dba:	7139                	addi	sp,sp,-64
   15dbc:	e852                	sd	s4,16(sp)
   15dbe:	8a2e                	mv	s4,a1
   15dc0:	4585                	li	a1,1
   15dc2:	f822                	sd	s0,48(sp)
   15dc4:	f04a                	sd	s2,32(sp)
   15dc6:	fc06                	sd	ra,56(sp)
   15dc8:	f426                	sd	s1,40(sp)
   15dca:	ec4e                	sd	s3,24(sp)
   15dcc:	e2050453          	fmv.x.d	s0,fa0
   15dd0:	8932                	mv	s2,a2
   15dd2:	d64ff0ef          	jal	ra,15336 <_Balloc>
   15dd6:	c955                	beqz	a0,15e8a <__d2b+0xd0>
   15dd8:	42045793          	srai	a5,s0,0x20
   15ddc:	0147d99b          	srliw	s3,a5,0x14
   15de0:	7ff9f993          	andi	s3,s3,2047
   15de4:	17b2                	slli	a5,a5,0x2c
   15de6:	84aa                	mv	s1,a0
   15de8:	93b1                	srli	a5,a5,0x2c
   15dea:	00098563          	beqz	s3,15df4 <__d2b+0x3a>
   15dee:	00100737          	lui	a4,0x100
   15df2:	8fd9                	or	a5,a5,a4
   15df4:	c63e                	sw	a5,12(sp)
   15df6:	2401                	sext.w	s0,s0
   15df8:	e029                	bnez	s0,15e3a <__d2b+0x80>
   15dfa:	0068                	addi	a0,sp,12
   15dfc:	fd6ff0ef          	jal	ra,155d2 <__lo0bits>
   15e00:	47b2                	lw	a5,12(sp)
   15e02:	4405                	li	s0,1
   15e04:	c8c0                	sw	s0,20(s1)
   15e06:	cc9c                	sw	a5,24(s1)
   15e08:	0205051b          	addiw	a0,a0,32
   15e0c:	06098063          	beqz	s3,15e6c <__d2b+0xb2>
   15e10:	bcd9899b          	addiw	s3,s3,-1075
   15e14:	00a989bb          	addw	s3,s3,a0
   15e18:	03500413          	li	s0,53
   15e1c:	013a2023          	sw	s3,0(s4)
   15e20:	40a4053b          	subw	a0,s0,a0
   15e24:	70e2                	ld	ra,56(sp)
   15e26:	7442                	ld	s0,48(sp)
   15e28:	00a92023          	sw	a0,0(s2)
   15e2c:	69e2                	ld	s3,24(sp)
   15e2e:	7902                	ld	s2,32(sp)
   15e30:	6a42                	ld	s4,16(sp)
   15e32:	8526                	mv	a0,s1
   15e34:	74a2                	ld	s1,40(sp)
   15e36:	6121                	addi	sp,sp,64
   15e38:	8082                	ret
   15e3a:	0028                	addi	a0,sp,8
   15e3c:	c422                	sw	s0,8(sp)
   15e3e:	f94ff0ef          	jal	ra,155d2 <__lo0bits>
   15e42:	47b2                	lw	a5,12(sp)
   15e44:	4722                	lw	a4,8(sp)
   15e46:	c919                	beqz	a0,15e5c <__d2b+0xa2>
   15e48:	02000693          	li	a3,32
   15e4c:	9e89                	subw	a3,a3,a0
   15e4e:	00d796bb          	sllw	a3,a5,a3
   15e52:	8f55                	or	a4,a4,a3
   15e54:	00a7d7bb          	srlw	a5,a5,a0
   15e58:	2701                	sext.w	a4,a4
   15e5a:	c63e                	sw	a5,12(sp)
   15e5c:	00f03433          	snez	s0,a5
   15e60:	0405                	addi	s0,s0,1
   15e62:	cc98                	sw	a4,24(s1)
   15e64:	ccdc                	sw	a5,28(s1)
   15e66:	c8c0                	sw	s0,20(s1)
   15e68:	fa0994e3          	bnez	s3,15e10 <__d2b+0x56>
   15e6c:	bce5051b          	addiw	a0,a0,-1074
   15e70:	00241793          	slli	a5,s0,0x2
   15e74:	00aa2023          	sw	a0,0(s4)
   15e78:	97a6                	add	a5,a5,s1
   15e7a:	4bc8                	lw	a0,20(a5)
   15e7c:	0054141b          	slliw	s0,s0,0x5
   15e80:	ef4ff0ef          	jal	ra,15574 <__hi0bits>
   15e84:	40a4053b          	subw	a0,s0,a0
   15e88:	bf71                	j	15e24 <__d2b+0x6a>
   15e8a:	66f5                	lui	a3,0x1d
   15e8c:	6575                	lui	a0,0x1d
   15e8e:	98068693          	addi	a3,a3,-1664 # 1c980 <blanks.1+0x78>
   15e92:	4601                	li	a2,0
   15e94:	30a00593          	li	a1,778
   15e98:	c5050513          	addi	a0,a0,-944 # 1cc50 <ezero+0x18>
   15e9c:	65f020ef          	jal	ra,18cfa <__assert_func>

0000000000015ea0 <__ratio>:
   15ea0:	7179                	addi	sp,sp,-48
   15ea2:	ec26                	sd	s1,24(sp)
   15ea4:	84ae                	mv	s1,a1
   15ea6:	002c                	addi	a1,sp,8
   15ea8:	f406                	sd	ra,40(sp)
   15eaa:	f022                	sd	s0,32(sp)
   15eac:	e84a                	sd	s2,16(sp)
   15eae:	892a                	mv	s2,a0
   15eb0:	e21ff0ef          	jal	ra,15cd0 <__b2d>
   15eb4:	006c                	addi	a1,sp,12
   15eb6:	8526                	mv	a0,s1
   15eb8:	e2050453          	fmv.x.d	s0,fa0
   15ebc:	e15ff0ef          	jal	ra,15cd0 <__b2d>
   15ec0:	01492783          	lw	a5,20(s2)
   15ec4:	48d0                	lw	a2,20(s1)
   15ec6:	46b2                	lw	a3,12(sp)
   15ec8:	4722                	lw	a4,8(sp)
   15eca:	9f91                	subw	a5,a5,a2
   15ecc:	0057979b          	slliw	a5,a5,0x5
   15ed0:	9f15                	subw	a4,a4,a3
   15ed2:	00e786bb          	addw	a3,a5,a4
   15ed6:	87b6                	mv	a5,a3
   15ed8:	e2050753          	fmv.x.d	a4,fa0
   15edc:	02d05963          	blez	a3,15f0e <__ratio+0x6e>
   15ee0:	02045693          	srli	a3,s0,0x20
   15ee4:	0147979b          	slliw	a5,a5,0x14
   15ee8:	9fb5                	addw	a5,a5,a3
   15eea:	56fd                	li	a3,-1
   15eec:	9281                	srli	a3,a3,0x20
   15eee:	1782                	slli	a5,a5,0x20
   15ef0:	8ee1                	and	a3,a3,s0
   15ef2:	00f6e433          	or	s0,a3,a5
   15ef6:	f20407d3          	fmv.d.x	fa5,s0
   15efa:	70a2                	ld	ra,40(sp)
   15efc:	7402                	ld	s0,32(sp)
   15efe:	f2070753          	fmv.d.x	fa4,a4
   15f02:	64e2                	ld	s1,24(sp)
   15f04:	6942                	ld	s2,16(sp)
   15f06:	1ae7f553          	fdiv.d	fa0,fa5,fa4
   15f0a:	6145                	addi	sp,sp,48
   15f0c:	8082                	ret
   15f0e:	02075693          	srli	a3,a4,0x20
   15f12:	0147979b          	slliw	a5,a5,0x14
   15f16:	40f687bb          	subw	a5,a3,a5
   15f1a:	56fd                	li	a3,-1
   15f1c:	9281                	srli	a3,a3,0x20
   15f1e:	1782                	slli	a5,a5,0x20
   15f20:	8f75                	and	a4,a4,a3
   15f22:	8f5d                	or	a4,a4,a5
   15f24:	bfc9                	j	15ef6 <__ratio+0x56>

0000000000015f26 <_mprec_log10>:
   15f26:	47dd                	li	a5,23
   15f28:	00a7db63          	bge	a5,a0,15f3e <_mprec_log10+0x18>
   15f2c:	7201b507          	fld	fa0,1824(gp) # 1f690 <__SDATA_BEGIN__+0x10>
   15f30:	7281b787          	fld	fa5,1832(gp) # 1f698 <__SDATA_BEGIN__+0x18>
   15f34:	357d                	addiw	a0,a0,-1
   15f36:	12f57553          	fmul.d	fa0,fa0,fa5
   15f3a:	fd6d                	bnez	a0,15f34 <_mprec_log10+0xe>
   15f3c:	8082                	ret
   15f3e:	67f5                	lui	a5,0x1d
   15f40:	050e                	slli	a0,a0,0x3
   15f42:	cf878793          	addi	a5,a5,-776 # 1ccf8 <__mprec_tens>
   15f46:	97aa                	add	a5,a5,a0
   15f48:	2388                	fld	fa0,0(a5)
   15f4a:	8082                	ret

0000000000015f4c <__copybits>:
   15f4c:	4a54                	lw	a3,20(a2)
   15f4e:	35fd                	addiw	a1,a1,-1
   15f50:	4055d59b          	sraiw	a1,a1,0x5
   15f54:	2585                	addiw	a1,a1,1
   15f56:	01860793          	addi	a5,a2,24 # 3ff00018 <__BSS_END__+0x3fee08a8>
   15f5a:	068a                	slli	a3,a3,0x2
   15f5c:	058a                	slli	a1,a1,0x2
   15f5e:	96be                	add	a3,a3,a5
   15f60:	95aa                	add	a1,a1,a0
   15f62:	02d7f163          	bgeu	a5,a3,15f84 <__copybits+0x38>
   15f66:	872a                	mv	a4,a0
   15f68:	0007a803          	lw	a6,0(a5)
   15f6c:	0791                	addi	a5,a5,4
   15f6e:	0711                	addi	a4,a4,4 # 100004 <__BSS_END__+0xe0894>
   15f70:	ff072e23          	sw	a6,-4(a4)
   15f74:	fed7eae3          	bltu	a5,a3,15f68 <__copybits+0x1c>
   15f78:	40c687b3          	sub	a5,a3,a2
   15f7c:	179d                	addi	a5,a5,-25
   15f7e:	9bf1                	andi	a5,a5,-4
   15f80:	0791                	addi	a5,a5,4
   15f82:	953e                	add	a0,a0,a5
   15f84:	00b57763          	bgeu	a0,a1,15f92 <__copybits+0x46>
   15f88:	0511                	addi	a0,a0,4
   15f8a:	fe052e23          	sw	zero,-4(a0)
   15f8e:	feb56de3          	bltu	a0,a1,15f88 <__copybits+0x3c>
   15f92:	8082                	ret

0000000000015f94 <__any_on>:
   15f94:	4958                	lw	a4,20(a0)
   15f96:	4055d613          	srai	a2,a1,0x5
   15f9a:	01850693          	addi	a3,a0,24
   15f9e:	00c75d63          	bge	a4,a2,15fb8 <__any_on+0x24>
   15fa2:	070a                	slli	a4,a4,0x2
   15fa4:	00e687b3          	add	a5,a3,a4
   15fa8:	02f6f863          	bgeu	a3,a5,15fd8 <__any_on+0x44>
   15fac:	ffc7a703          	lw	a4,-4(a5)
   15fb0:	17f1                	addi	a5,a5,-4
   15fb2:	db7d                	beqz	a4,15fa8 <__any_on+0x14>
   15fb4:	4505                	li	a0,1
   15fb6:	8082                	ret
   15fb8:	00261793          	slli	a5,a2,0x2
   15fbc:	97b6                	add	a5,a5,a3
   15fbe:	fee655e3          	bge	a2,a4,15fa8 <__any_on+0x14>
   15fc2:	89fd                	andi	a1,a1,31
   15fc4:	d1f5                	beqz	a1,15fa8 <__any_on+0x14>
   15fc6:	4390                	lw	a2,0(a5)
   15fc8:	4505                	li	a0,1
   15fca:	00b6573b          	srlw	a4,a2,a1
   15fce:	00b7173b          	sllw	a4,a4,a1
   15fd2:	fcc70be3          	beq	a4,a2,15fa8 <__any_on+0x14>
   15fd6:	8082                	ret
   15fd8:	4501                	li	a0,0
   15fda:	8082                	ret

0000000000015fdc <frexp>:
   15fdc:	e20507d3          	fmv.x.d	a5,fa0
   15fe0:	80000637          	lui	a2,0x80000
   15fe4:	fff64613          	not	a2,a2
   15fe8:	4207d693          	srai	a3,a5,0x20
   15fec:	00c6f733          	and	a4,a3,a2
   15ff0:	00052023          	sw	zero,0(a0)
   15ff4:	7ff005b7          	lui	a1,0x7ff00
   15ff8:	02b77f63          	bgeu	a4,a1,16036 <frexp+0x5a>
   15ffc:	00f765b3          	or	a1,a4,a5
   16000:	2581                	sext.w	a1,a1
   16002:	c995                	beqz	a1,16036 <frexp+0x5a>
   16004:	7ff005b7          	lui	a1,0x7ff00
   16008:	8df5                	and	a1,a1,a3
   1600a:	c98d                	beqz	a1,1603c <frexp+0x60>
   1600c:	2681                	sext.w	a3,a3
   1600e:	2701                	sext.w	a4,a4
   16010:	4581                	li	a1,0
   16012:	80100637          	lui	a2,0x80100
   16016:	167d                	addi	a2,a2,-1 # ffffffff800fffff <__BSS_END__+0xffffffff800e088f>
   16018:	8ef1                	and	a3,a3,a2
   1601a:	3fe00637          	lui	a2,0x3fe00
   1601e:	8ed1                	or	a3,a3,a2
   16020:	4147571b          	sraiw	a4,a4,0x14
   16024:	567d                	li	a2,-1
   16026:	c027071b          	addiw	a4,a4,-1022
   1602a:	9201                	srli	a2,a2,0x20
   1602c:	9f2d                	addw	a4,a4,a1
   1602e:	1682                	slli	a3,a3,0x20
   16030:	8ff1                	and	a5,a5,a2
   16032:	c118                	sw	a4,0(a0)
   16034:	8fd5                	or	a5,a5,a3
   16036:	f2078553          	fmv.d.x	fa0,a5
   1603a:	8082                	ret
   1603c:	7301b787          	fld	fa5,1840(gp) # 1f6a0 <__SDATA_BEGIN__+0x20>
   16040:	fca00593          	li	a1,-54
   16044:	12f577d3          	fmul.d	fa5,fa0,fa5
   16048:	e20787d3          	fmv.x.d	a5,fa5
   1604c:	4207d713          	srai	a4,a5,0x20
   16050:	86ba                	mv	a3,a4
   16052:	8f71                	and	a4,a4,a2
   16054:	bf7d                	j	16012 <frexp+0x36>

0000000000016056 <_sbrk_r>:
   16056:	1101                	addi	sp,sp,-32
   16058:	e822                	sd	s0,16(sp)
   1605a:	e426                	sd	s1,8(sp)
   1605c:	842a                	mv	s0,a0
   1605e:	852e                	mv	a0,a1
   16060:	ec06                	sd	ra,24(sp)
   16062:	7801a823          	sw	zero,1936(gp) # 1f700 <errno>
   16066:	765040ef          	jal	ra,1afca <_sbrk>
   1606a:	57fd                	li	a5,-1
   1606c:	00f50763          	beq	a0,a5,1607a <_sbrk_r+0x24>
   16070:	60e2                	ld	ra,24(sp)
   16072:	6442                	ld	s0,16(sp)
   16074:	64a2                	ld	s1,8(sp)
   16076:	6105                	addi	sp,sp,32
   16078:	8082                	ret
   1607a:	7901a783          	lw	a5,1936(gp) # 1f700 <errno>
   1607e:	dbed                	beqz	a5,16070 <_sbrk_r+0x1a>
   16080:	60e2                	ld	ra,24(sp)
   16082:	c01c                	sw	a5,0(s0)
   16084:	6442                	ld	s0,16(sp)
   16086:	64a2                	ld	s1,8(sp)
   16088:	6105                	addi	sp,sp,32
   1608a:	8082                	ret

000000000001608c <_sprintf_r>:
   1608c:	7111                	addi	sp,sp,-256
   1608e:	0d810e93          	addi	t4,sp,216
   16092:	f5be                	sd	a5,232(sp)
   16094:	80000337          	lui	t1,0x80000
   16098:	77c1                	lui	a5,0xffff0
   1609a:	8e2e                	mv	t3,a1
   1609c:	fff34313          	not	t1,t1
   160a0:	edb6                	sd	a3,216(sp)
   160a2:	20878793          	addi	a5,a5,520 # ffffffffffff0208 <__BSS_END__+0xfffffffffffd0a98>
   160a6:	080c                	addi	a1,sp,16
   160a8:	86f6                	mv	a3,t4
   160aa:	e586                	sd	ra,200(sp)
   160ac:	d03e                	sw	a5,32(sp)
   160ae:	f1ba                	sd	a4,224(sp)
   160b0:	f9c2                	sd	a6,240(sp)
   160b2:	fdc6                	sd	a7,248(sp)
   160b4:	e872                	sd	t3,16(sp)
   160b6:	f472                	sd	t3,40(sp)
   160b8:	ce1a                	sw	t1,28(sp)
   160ba:	d81a                	sw	t1,48(sp)
   160bc:	e476                	sd	t4,8(sp)
   160be:	2e2000ef          	jal	ra,163a0 <_svfprintf_r>
   160c2:	67c2                	ld	a5,16(sp)
   160c4:	00078023          	sb	zero,0(a5)
   160c8:	60ae                	ld	ra,200(sp)
   160ca:	6111                	addi	sp,sp,256
   160cc:	8082                	ret

00000000000160ce <sprintf>:
   160ce:	8e2a                	mv	t3,a0
   160d0:	7111                	addi	sp,sp,-256
   160d2:	7581b503          	ld	a0,1880(gp) # 1f6c8 <_impure_ptr>
   160d6:	0d010e93          	addi	t4,sp,208
   160da:	f5be                	sd	a5,232(sp)
   160dc:	80000337          	lui	t1,0x80000
   160e0:	77c1                	lui	a5,0xffff0
   160e2:	fff34313          	not	t1,t1
   160e6:	e9b2                	sd	a2,208(sp)
   160e8:	edb6                	sd	a3,216(sp)
   160ea:	20878793          	addi	a5,a5,520 # ffffffffffff0208 <__BSS_END__+0xfffffffffffd0a98>
   160ee:	862e                	mv	a2,a1
   160f0:	86f6                	mv	a3,t4
   160f2:	080c                	addi	a1,sp,16
   160f4:	e586                	sd	ra,200(sp)
   160f6:	d03e                	sw	a5,32(sp)
   160f8:	f1ba                	sd	a4,224(sp)
   160fa:	f9c2                	sd	a6,240(sp)
   160fc:	fdc6                	sd	a7,248(sp)
   160fe:	e872                	sd	t3,16(sp)
   16100:	f472                	sd	t3,40(sp)
   16102:	ce1a                	sw	t1,28(sp)
   16104:	d81a                	sw	t1,48(sp)
   16106:	e476                	sd	t4,8(sp)
   16108:	298000ef          	jal	ra,163a0 <_svfprintf_r>
   1610c:	67c2                	ld	a5,16(sp)
   1610e:	00078023          	sb	zero,0(a5)
   16112:	60ae                	ld	ra,200(sp)
   16114:	6111                	addi	sp,sp,256
   16116:	8082                	ret

0000000000016118 <__sread>:
   16118:	1141                	addi	sp,sp,-16
   1611a:	e022                	sd	s0,0(sp)
   1611c:	842e                	mv	s0,a1
   1611e:	01259583          	lh	a1,18(a1) # 7ff00012 <__BSS_END__+0x7fee08a2>
   16122:	e406                	sd	ra,8(sp)
   16124:	600030ef          	jal	ra,19724 <_read_r>
   16128:	00054963          	bltz	a0,1613a <__sread+0x22>
   1612c:	685c                	ld	a5,144(s0)
   1612e:	60a2                	ld	ra,8(sp)
   16130:	97aa                	add	a5,a5,a0
   16132:	e85c                	sd	a5,144(s0)
   16134:	6402                	ld	s0,0(sp)
   16136:	0141                	addi	sp,sp,16
   16138:	8082                	ret
   1613a:	01045783          	lhu	a5,16(s0)
   1613e:	777d                	lui	a4,0xfffff
   16140:	177d                	addi	a4,a4,-1 # ffffffffffffefff <__BSS_END__+0xfffffffffffdf88f>
   16142:	8ff9                	and	a5,a5,a4
   16144:	60a2                	ld	ra,8(sp)
   16146:	00f41823          	sh	a5,16(s0)
   1614a:	6402                	ld	s0,0(sp)
   1614c:	0141                	addi	sp,sp,16
   1614e:	8082                	ret

0000000000016150 <__seofread>:
   16150:	4501                	li	a0,0
   16152:	8082                	ret

0000000000016154 <__swrite>:
   16154:	01059783          	lh	a5,16(a1)
   16158:	7179                	addi	sp,sp,-48
   1615a:	f022                	sd	s0,32(sp)
   1615c:	ec26                	sd	s1,24(sp)
   1615e:	e84a                	sd	s2,16(sp)
   16160:	e44e                	sd	s3,8(sp)
   16162:	f406                	sd	ra,40(sp)
   16164:	1007f713          	andi	a4,a5,256
   16168:	842e                	mv	s0,a1
   1616a:	84aa                	mv	s1,a0
   1616c:	8932                	mv	s2,a2
   1616e:	89b6                	mv	s3,a3
   16170:	e31d                	bnez	a4,16196 <__swrite+0x42>
   16172:	777d                	lui	a4,0xfffff
   16174:	177d                	addi	a4,a4,-1 # ffffffffffffefff <__BSS_END__+0xfffffffffffdf88f>
   16176:	8ff9                	and	a5,a5,a4
   16178:	01241583          	lh	a1,18(s0)
   1617c:	00f41823          	sh	a5,16(s0)
   16180:	7402                	ld	s0,32(sp)
   16182:	70a2                	ld	ra,40(sp)
   16184:	86ce                	mv	a3,s3
   16186:	864a                	mv	a2,s2
   16188:	69a2                	ld	s3,8(sp)
   1618a:	6942                	ld	s2,16(sp)
   1618c:	8526                	mv	a0,s1
   1618e:	64e2                	ld	s1,24(sp)
   16190:	6145                	addi	sp,sp,48
   16192:	2b70206f          	j	18c48 <_write_r>
   16196:	01259583          	lh	a1,18(a1)
   1619a:	4689                	li	a3,2
   1619c:	4601                	li	a2,0
   1619e:	2e6030ef          	jal	ra,19484 <_lseek_r>
   161a2:	01041783          	lh	a5,16(s0)
   161a6:	b7f1                	j	16172 <__swrite+0x1e>

00000000000161a8 <__sseek>:
   161a8:	1141                	addi	sp,sp,-16
   161aa:	e022                	sd	s0,0(sp)
   161ac:	842e                	mv	s0,a1
   161ae:	01259583          	lh	a1,18(a1)
   161b2:	e406                	sd	ra,8(sp)
   161b4:	2d0030ef          	jal	ra,19484 <_lseek_r>
   161b8:	57fd                	li	a5,-1
   161ba:	02f50163          	beq	a0,a5,161dc <__sseek+0x34>
   161be:	01045783          	lhu	a5,16(s0)
   161c2:	6705                	lui	a4,0x1
   161c4:	60a2                	ld	ra,8(sp)
   161c6:	8fd9                	or	a5,a5,a4
   161c8:	0107979b          	slliw	a5,a5,0x10
   161cc:	4107d79b          	sraiw	a5,a5,0x10
   161d0:	e848                	sd	a0,144(s0)
   161d2:	00f41823          	sh	a5,16(s0)
   161d6:	6402                	ld	s0,0(sp)
   161d8:	0141                	addi	sp,sp,16
   161da:	8082                	ret
   161dc:	01045783          	lhu	a5,16(s0)
   161e0:	777d                	lui	a4,0xfffff
   161e2:	177d                	addi	a4,a4,-1 # ffffffffffffefff <__BSS_END__+0xfffffffffffdf88f>
   161e4:	8ff9                	and	a5,a5,a4
   161e6:	0107979b          	slliw	a5,a5,0x10
   161ea:	4107d79b          	sraiw	a5,a5,0x10
   161ee:	60a2                	ld	ra,8(sp)
   161f0:	00f41823          	sh	a5,16(s0)
   161f4:	6402                	ld	s0,0(sp)
   161f6:	0141                	addi	sp,sp,16
   161f8:	8082                	ret

00000000000161fa <__sclose>:
   161fa:	01259583          	lh	a1,18(a1)
   161fe:	3f10206f          	j	18dee <_close_r>

0000000000016202 <strcpy>:
   16202:	00b567b3          	or	a5,a0,a1
   16206:	8b9d                	andi	a5,a5,7
   16208:	efad                	bnez	a5,16282 <strcpy+0x80>
   1620a:	7381b683          	ld	a3,1848(gp) # 1f6a8 <mask>
   1620e:	6198                	ld	a4,0(a1)
   16210:	567d                	li	a2,-1
   16212:	00d777b3          	and	a5,a4,a3
   16216:	97b6                	add	a5,a5,a3
   16218:	8fd9                	or	a5,a5,a4
   1621a:	8fd5                	or	a5,a5,a3
   1621c:	06c79c63          	bne	a5,a2,16294 <strcpy+0x92>
   16220:	862a                	mv	a2,a0
   16222:	587d                	li	a6,-1
   16224:	e218                	sd	a4,0(a2)
   16226:	6598                	ld	a4,8(a1)
   16228:	05a1                	addi	a1,a1,8
   1622a:	0621                	addi	a2,a2,8 # 3fe00008 <__BSS_END__+0x3fde0898>
   1622c:	00d777b3          	and	a5,a4,a3
   16230:	97b6                	add	a5,a5,a3
   16232:	8fd9                	or	a5,a5,a4
   16234:	8fd5                	or	a5,a5,a3
   16236:	ff0787e3          	beq	a5,a6,16224 <strcpy+0x22>
   1623a:	0005c783          	lbu	a5,0(a1)
   1623e:	0015c703          	lbu	a4,1(a1)
   16242:	0025c683          	lbu	a3,2(a1)
   16246:	00f60023          	sb	a5,0(a2)
   1624a:	cb9d                	beqz	a5,16280 <strcpy+0x7e>
   1624c:	00e600a3          	sb	a4,1(a2)
   16250:	cb05                	beqz	a4,16280 <strcpy+0x7e>
   16252:	0035c783          	lbu	a5,3(a1)
   16256:	00d60123          	sb	a3,2(a2)
   1625a:	c29d                	beqz	a3,16280 <strcpy+0x7e>
   1625c:	0045c703          	lbu	a4,4(a1)
   16260:	00f601a3          	sb	a5,3(a2)
   16264:	cf91                	beqz	a5,16280 <strcpy+0x7e>
   16266:	0055c783          	lbu	a5,5(a1)
   1626a:	00e60223          	sb	a4,4(a2)
   1626e:	cb09                	beqz	a4,16280 <strcpy+0x7e>
   16270:	0065c703          	lbu	a4,6(a1)
   16274:	00f602a3          	sb	a5,5(a2)
   16278:	c781                	beqz	a5,16280 <strcpy+0x7e>
   1627a:	00e60323          	sb	a4,6(a2)
   1627e:	ef09                	bnez	a4,16298 <strcpy+0x96>
   16280:	8082                	ret
   16282:	87aa                	mv	a5,a0
   16284:	0005c703          	lbu	a4,0(a1)
   16288:	0785                	addi	a5,a5,1
   1628a:	0585                	addi	a1,a1,1
   1628c:	fee78fa3          	sb	a4,-1(a5)
   16290:	fb75                	bnez	a4,16284 <strcpy+0x82>
   16292:	8082                	ret
   16294:	862a                	mv	a2,a0
   16296:	b755                	j	1623a <strcpy+0x38>
   16298:	000603a3          	sb	zero,7(a2)
   1629c:	8082                	ret

000000000001629e <strlen>:
   1629e:	00757793          	andi	a5,a0,7
   162a2:	872a                	mv	a4,a0
   162a4:	eba9                	bnez	a5,162f6 <strlen+0x58>
   162a6:	7381b683          	ld	a3,1848(gp) # 1f6a8 <mask>
   162aa:	55fd                	li	a1,-1
   162ac:	6310                	ld	a2,0(a4)
   162ae:	0721                	addi	a4,a4,8
   162b0:	00d677b3          	and	a5,a2,a3
   162b4:	97b6                	add	a5,a5,a3
   162b6:	8fd1                	or	a5,a5,a2
   162b8:	8fd5                	or	a5,a5,a3
   162ba:	feb789e3          	beq	a5,a1,162ac <strlen+0xe>
   162be:	ff874683          	lbu	a3,-8(a4)
   162c2:	40a707b3          	sub	a5,a4,a0
   162c6:	c6a9                	beqz	a3,16310 <strlen+0x72>
   162c8:	ff974683          	lbu	a3,-7(a4)
   162cc:	ce9d                	beqz	a3,1630a <strlen+0x6c>
   162ce:	ffa74683          	lbu	a3,-6(a4)
   162d2:	c6a9                	beqz	a3,1631c <strlen+0x7e>
   162d4:	ffb74683          	lbu	a3,-5(a4)
   162d8:	ce9d                	beqz	a3,16316 <strlen+0x78>
   162da:	ffc74683          	lbu	a3,-4(a4)
   162de:	c2b1                	beqz	a3,16322 <strlen+0x84>
   162e0:	ffd74683          	lbu	a3,-3(a4)
   162e4:	c2b1                	beqz	a3,16328 <strlen+0x8a>
   162e6:	ffe74503          	lbu	a0,-2(a4)
   162ea:	00a03533          	snez	a0,a0
   162ee:	953e                	add	a0,a0,a5
   162f0:	1579                	addi	a0,a0,-2
   162f2:	8082                	ret
   162f4:	dacd                	beqz	a3,162a6 <strlen+0x8>
   162f6:	00074783          	lbu	a5,0(a4)
   162fa:	0705                	addi	a4,a4,1
   162fc:	00777693          	andi	a3,a4,7
   16300:	fbf5                	bnez	a5,162f4 <strlen+0x56>
   16302:	8f09                	sub	a4,a4,a0
   16304:	fff70513          	addi	a0,a4,-1
   16308:	8082                	ret
   1630a:	ff978513          	addi	a0,a5,-7
   1630e:	8082                	ret
   16310:	ff878513          	addi	a0,a5,-8
   16314:	8082                	ret
   16316:	ffb78513          	addi	a0,a5,-5
   1631a:	8082                	ret
   1631c:	ffa78513          	addi	a0,a5,-6
   16320:	8082                	ret
   16322:	ffc78513          	addi	a0,a5,-4
   16326:	8082                	ret
   16328:	ffd78513          	addi	a0,a5,-3
   1632c:	8082                	ret

000000000001632e <strncpy>:
   1632e:	00b567b3          	or	a5,a0,a1
   16332:	8b9d                	andi	a5,a5,7
   16334:	e781                	bnez	a5,1633c <strncpy+0xe>
   16336:	479d                	li	a5,7
   16338:	02c7eb63          	bltu	a5,a2,1636e <strncpy+0x40>
   1633c:	872a                	mv	a4,a0
   1633e:	a811                	j	16352 <strncpy+0x24>
   16340:	fff5c683          	lbu	a3,-1(a1)
   16344:	fff60813          	addi	a6,a2,-1
   16348:	fed78fa3          	sb	a3,-1(a5)
   1634c:	ca81                	beqz	a3,1635c <strncpy+0x2e>
   1634e:	873e                	mv	a4,a5
   16350:	8642                	mv	a2,a6
   16352:	0585                	addi	a1,a1,1
   16354:	00170793          	addi	a5,a4,1
   16358:	f665                	bnez	a2,16340 <strncpy+0x12>
   1635a:	8082                	ret
   1635c:	9732                	add	a4,a4,a2
   1635e:	04080063          	beqz	a6,1639e <strncpy+0x70>
   16362:	0785                	addi	a5,a5,1
   16364:	fe078fa3          	sb	zero,-1(a5)
   16368:	fee79de3          	bne	a5,a4,16362 <strncpy+0x34>
   1636c:	8082                	ret
   1636e:	7101b303          	ld	t1,1808(gp) # 1f680 <__SDATA_BEGIN__>
   16372:	7181b883          	ld	a7,1816(gp) # 1f688 <__SDATA_BEGIN__+0x8>
   16376:	872a                	mv	a4,a0
   16378:	4e1d                	li	t3,7
   1637a:	a039                	j	16388 <strncpy+0x5a>
   1637c:	e314                	sd	a3,0(a4)
   1637e:	1661                	addi	a2,a2,-8
   16380:	0721                	addi	a4,a4,8
   16382:	05a1                	addi	a1,a1,8
   16384:	fcce77e3          	bgeu	t3,a2,16352 <strncpy+0x24>
   16388:	6194                	ld	a3,0(a1)
   1638a:	006687b3          	add	a5,a3,t1
   1638e:	fff6c813          	not	a6,a3
   16392:	0107f7b3          	and	a5,a5,a6
   16396:	0117f7b3          	and	a5,a5,a7
   1639a:	d3ed                	beqz	a5,1637c <strncpy+0x4e>
   1639c:	bf5d                	j	16352 <strncpy+0x24>
   1639e:	8082                	ret

00000000000163a0 <_svfprintf_r>:
   163a0:	d9010113          	addi	sp,sp,-624
   163a4:	26113423          	sd	ra,616(sp)
   163a8:	25413023          	sd	s4,576(sp)
   163ac:	21b13423          	sd	s11,520(sp)
   163b0:	8a2e                	mv	s4,a1
   163b2:	8db2                	mv	s11,a2
   163b4:	ec36                	sd	a3,24(sp)
   163b6:	26813023          	sd	s0,608(sp)
   163ba:	24913c23          	sd	s1,600(sp)
   163be:	25213823          	sd	s2,592(sp)
   163c2:	25313423          	sd	s3,584(sp)
   163c6:	23513c23          	sd	s5,568(sp)
   163ca:	23613823          	sd	s6,560(sp)
   163ce:	23713423          	sd	s7,552(sp)
   163d2:	23813023          	sd	s8,544(sp)
   163d6:	21913c23          	sd	s9,536(sp)
   163da:	21a13823          	sd	s10,528(sp)
   163de:	e42a                	sd	a0,8(sp)
   163e0:	f30fe0ef          	jal	ra,14b10 <_localeconv_r>
   163e4:	611c                	ld	a5,0(a0)
   163e6:	853e                	mv	a0,a5
   163e8:	e13e                	sd	a5,128(sp)
   163ea:	eb5ff0ef          	jal	ra,1629e <strlen>
   163ee:	010a5783          	lhu	a5,16(s4)
   163f2:	f982                	sd	zero,240(sp)
   163f4:	fd82                	sd	zero,248(sp)
   163f6:	0807f793          	andi	a5,a5,128
   163fa:	fcaa                	sd	a0,120(sp)
   163fc:	c789                	beqz	a5,16406 <_svfprintf_r+0x66>
   163fe:	018a3783          	ld	a5,24(s4)
   16402:	660783e3          	beqz	a5,17268 <_svfprintf_r+0xec8>
   16406:	67f5                	lui	a5,0x1d
   16408:	dc078793          	addi	a5,a5,-576 # 1cdc0 <__mprec_tens+0xc8>
   1640c:	f83e                	sd	a5,48(sp)
   1640e:	000dc783          	lbu	a5,0(s11)
   16412:	18010b13          	addi	s6,sp,384
   16416:	6c75                	lui	s8,0x1d
   16418:	e25a                	sd	s6,256(sp)
   1641a:	ea02                	sd	zero,272(sp)
   1641c:	10012423          	sw	zero,264(sp)
   16420:	f402                	sd	zero,40(sp)
   16422:	fc02                	sd	zero,56(sp)
   16424:	e502                	sd	zero,136(sp)
   16426:	f882                	sd	zero,112(sp)
   16428:	e902                	sd	zero,144(sp)
   1642a:	ed02                	sd	zero,152(sp)
   1642c:	e802                	sd	zero,16(sp)
   1642e:	835a                	mv	t1,s6
   16430:	fc8c0c13          	addi	s8,s8,-56 # 1cfc8 <zeroes.0>
   16434:	1c078363          	beqz	a5,165fa <_svfprintf_r+0x25a>
   16438:	846e                	mv	s0,s11
   1643a:	02500713          	li	a4,37
   1643e:	2ce78963          	beq	a5,a4,16710 <_svfprintf_r+0x370>
   16442:	00144783          	lbu	a5,1(s0)
   16446:	0405                	addi	s0,s0,1
   16448:	fbfd                	bnez	a5,1643e <_svfprintf_r+0x9e>
   1644a:	41b404bb          	subw	s1,s0,s11
   1644e:	1a048663          	beqz	s1,165fa <_svfprintf_r+0x25a>
   16452:	6cd2                	ld	s9,272(sp)
   16454:	10812783          	lw	a5,264(sp)
   16458:	01b33023          	sd	s11,0(t1) # ffffffff80000000 <__BSS_END__+0xffffffff7ffe0890>
   1645c:	009c8733          	add	a4,s9,s1
   16460:	2785                	addiw	a5,a5,1
   16462:	00933423          	sd	s1,8(t1)
   16466:	ea3a                	sd	a4,272(sp)
   16468:	10f12423          	sw	a5,264(sp)
   1646c:	0007871b          	sext.w	a4,a5
   16470:	479d                	li	a5,7
   16472:	0341                	addi	t1,t1,16
   16474:	2ae7c563          	blt	a5,a4,1671e <_svfprintf_r+0x37e>
   16478:	6742                	ld	a4,16(sp)
   1647a:	00044783          	lbu	a5,0(s0)
   1647e:	9f25                	addw	a4,a4,s1
   16480:	e83a                	sd	a4,16(sp)
   16482:	16078c63          	beqz	a5,165fa <_svfprintf_r+0x25a>
   16486:	00144e03          	lbu	t3,1(s0)
   1648a:	0c0107a3          	sb	zero,207(sp)
   1648e:	0405                	addi	s0,s0,1
   16490:	59fd                	li	s3,-1
   16492:	4a81                	li	s5,0
   16494:	4481                	li	s1,0
   16496:	05a00913          	li	s2,90
   1649a:	0405                	addi	s0,s0,1
   1649c:	000e0d1b          	sext.w	s10,t3
   164a0:	fe0d079b          	addiw	a5,s10,-32
   164a4:	0007871b          	sext.w	a4,a5
   164a8:	04e96563          	bltu	s2,a4,164f2 <_svfprintf_r+0x152>
   164ac:	02079713          	slli	a4,a5,0x20
   164b0:	01e75793          	srli	a5,a4,0x1e
   164b4:	7742                	ld	a4,48(sp)
   164b6:	97ba                	add	a5,a5,a4
   164b8:	439c                	lw	a5,0(a5)
   164ba:	8782                	jr	a5
   164bc:	4a81                	li	s5,0
   164be:	4625                	li	a2,9
   164c0:	00044703          	lbu	a4,0(s0)
   164c4:	002a979b          	slliw	a5,s5,0x2
   164c8:	015787bb          	addw	a5,a5,s5
   164cc:	fd0d0e1b          	addiw	t3,s10,-48
   164d0:	0017979b          	slliw	a5,a5,0x1
   164d4:	fd07069b          	addiw	a3,a4,-48
   164d8:	0405                	addi	s0,s0,1
   164da:	00fe0abb          	addw	s5,t3,a5
   164de:	00070d1b          	sext.w	s10,a4
   164e2:	fcd67fe3          	bgeu	a2,a3,164c0 <_svfprintf_r+0x120>
   164e6:	fe0d079b          	addiw	a5,s10,-32
   164ea:	0007871b          	sext.w	a4,a5
   164ee:	fae97fe3          	bgeu	s2,a4,164ac <_svfprintf_r+0x10c>
   164f2:	100d0463          	beqz	s10,165fa <_svfprintf_r+0x25a>
   164f6:	11a10c23          	sb	s10,280(sp)
   164fa:	0c0107a3          	sb	zero,207(sp)
   164fe:	4905                	li	s2,1
   16500:	4b85                	li	s7,1
   16502:	11810d93          	addi	s11,sp,280
   16506:	f002                	sd	zero,32(sp)
   16508:	4981                	li	s3,0
   1650a:	ec82                	sd	zero,88(sp)
   1650c:	f482                	sd	zero,104(sp)
   1650e:	f082                	sd	zero,96(sp)
   16510:	0024ff13          	andi	t5,s1,2
   16514:	000f0363          	beqz	t5,1651a <_svfprintf_r+0x17a>
   16518:	2909                	addiw	s2,s2,2
   1651a:	0844f893          	andi	a7,s1,132
   1651e:	00089663          	bnez	a7,1652a <_svfprintf_r+0x18a>
   16522:	412a8cbb          	subw	s9,s5,s2
   16526:	059046e3          	bgtz	s9,16d72 <_svfprintf_r+0x9d2>
   1652a:	0cf14783          	lbu	a5,207(sp)
   1652e:	6cd2                	ld	s9,272(sp)
   16530:	c78d                	beqz	a5,1655a <_svfprintf_r+0x1ba>
   16532:	10812783          	lw	a5,264(sp)
   16536:	0cf10713          	addi	a4,sp,207
   1653a:	00e33023          	sd	a4,0(t1)
   1653e:	2785                	addiw	a5,a5,1
   16540:	4705                	li	a4,1
   16542:	0c85                	addi	s9,s9,1
   16544:	00e33423          	sd	a4,8(t1)
   16548:	10f12423          	sw	a5,264(sp)
   1654c:	0007871b          	sext.w	a4,a5
   16550:	ea66                	sd	s9,272(sp)
   16552:	479d                	li	a5,7
   16554:	0341                	addi	t1,t1,16
   16556:	26e7c063          	blt	a5,a4,167b6 <_svfprintf_r+0x416>
   1655a:	020f0563          	beqz	t5,16584 <_svfprintf_r+0x1e4>
   1655e:	10812783          	lw	a5,264(sp)
   16562:	0998                	addi	a4,sp,208
   16564:	00e33023          	sd	a4,0(t1)
   16568:	2785                	addiw	a5,a5,1
   1656a:	4709                	li	a4,2
   1656c:	0c89                	addi	s9,s9,2
   1656e:	00e33423          	sd	a4,8(t1)
   16572:	10f12423          	sw	a5,264(sp)
   16576:	0007871b          	sext.w	a4,a5
   1657a:	ea66                	sd	s9,272(sp)
   1657c:	479d                	li	a5,7
   1657e:	0341                	addi	t1,t1,16
   16580:	08e7c5e3          	blt	a5,a4,16e0a <_svfprintf_r+0xa6a>
   16584:	08000793          	li	a5,128
   16588:	6af88863          	beq	a7,a5,16c38 <_svfprintf_r+0x898>
   1658c:	417989bb          	subw	s3,s3,s7
   16590:	73304863          	bgtz	s3,16cc0 <_svfprintf_r+0x920>
   16594:	1004f793          	andi	a5,s1,256
   16598:	58079c63          	bnez	a5,16b30 <_svfprintf_r+0x790>
   1659c:	10812783          	lw	a5,264(sp)
   165a0:	019b8733          	add	a4,s7,s9
   165a4:	01b33023          	sd	s11,0(t1)
   165a8:	0017869b          	addiw	a3,a5,1
   165ac:	87b6                	mv	a5,a3
   165ae:	01733423          	sd	s7,8(t1)
   165b2:	10f12423          	sw	a5,264(sp)
   165b6:	ea3a                	sd	a4,272(sp)
   165b8:	479d                	li	a5,7
   165ba:	2cd7c463          	blt	a5,a3,16882 <_svfprintf_r+0x4e2>
   165be:	0341                	addi	t1,t1,16
   165c0:	8891                	andi	s1,s1,4
   165c2:	c489                	beqz	s1,165cc <_svfprintf_r+0x22c>
   165c4:	412a84bb          	subw	s1,s5,s2
   165c8:	04904de3          	bgtz	s1,16e22 <_svfprintf_r+0xa82>
   165cc:	87d6                	mv	a5,s5
   165ce:	012ad363          	bge	s5,s2,165d4 <_svfprintf_r+0x234>
   165d2:	87ca                	mv	a5,s2
   165d4:	66c2                	ld	a3,16(sp)
   165d6:	9fb5                	addw	a5,a5,a3
   165d8:	e83e                	sd	a5,16(sp)
   165da:	74071e63          	bnez	a4,16d36 <_svfprintf_r+0x996>
   165de:	7782                	ld	a5,32(sp)
   165e0:	10012423          	sw	zero,264(sp)
   165e4:	c789                	beqz	a5,165ee <_svfprintf_r+0x24e>
   165e6:	7582                	ld	a1,32(sp)
   165e8:	6522                	ld	a0,8(sp)
   165ea:	8cafc0ef          	jal	ra,126b4 <_free_r>
   165ee:	835a                	mv	t1,s6
   165f0:	8da2                	mv	s11,s0
   165f2:	000dc783          	lbu	a5,0(s11)
   165f6:	e40791e3          	bnez	a5,16438 <_svfprintf_r+0x98>
   165fa:	67d2                	ld	a5,272(sp)
   165fc:	c399                	beqz	a5,16602 <_svfprintf_r+0x262>
   165fe:	32a0106f          	j	17928 <_svfprintf_r+0x1588>
   16602:	010a5783          	lhu	a5,16(s4)
   16606:	0407f793          	andi	a5,a5,64
   1660a:	c399                	beqz	a5,16610 <_svfprintf_r+0x270>
   1660c:	6fc0106f          	j	17d08 <_svfprintf_r+0x1968>
   16610:	26813083          	ld	ra,616(sp)
   16614:	26013403          	ld	s0,608(sp)
   16618:	6542                	ld	a0,16(sp)
   1661a:	25813483          	ld	s1,600(sp)
   1661e:	25013903          	ld	s2,592(sp)
   16622:	24813983          	ld	s3,584(sp)
   16626:	24013a03          	ld	s4,576(sp)
   1662a:	23813a83          	ld	s5,568(sp)
   1662e:	23013b03          	ld	s6,560(sp)
   16632:	22813b83          	ld	s7,552(sp)
   16636:	22013c03          	ld	s8,544(sp)
   1663a:	21813c83          	ld	s9,536(sp)
   1663e:	21013d03          	ld	s10,528(sp)
   16642:	20813d83          	ld	s11,520(sp)
   16646:	27010113          	addi	sp,sp,624
   1664a:	8082                	ret
   1664c:	0104e493          	ori	s1,s1,16
   16650:	00044e03          	lbu	t3,0(s0)
   16654:	2481                	sext.w	s1,s1
   16656:	b591                	j	1649a <_svfprintf_r+0xfa>
   16658:	0104e493          	ori	s1,s1,16
   1665c:	2481                	sext.w	s1,s1
   1665e:	66e2                	ld	a3,24(sp)
   16660:	0204f793          	andi	a5,s1,32
   16664:	00868713          	addi	a4,a3,8
   16668:	24078663          	beqz	a5,168b4 <_svfprintf_r+0x514>
   1666c:	629c                	ld	a5,0(a3)
   1666e:	893e                	mv	s2,a5
   16670:	2607c463          	bltz	a5,168d8 <_svfprintf_r+0x538>
   16674:	57fd                	li	a5,-1
   16676:	68f984e3          	beq	s3,a5,174fe <_svfprintf_r+0x115e>
   1667a:	f7f4fc93          	andi	s9,s1,-129
   1667e:	2c81                	sext.w	s9,s9
   16680:	2c091ce3          	bnez	s2,17158 <_svfprintf_r+0xdb8>
   16684:	00098463          	beqz	s3,1668c <_svfprintf_r+0x2ec>
   16688:	6880106f          	j	17d10 <_svfprintf_r+0x1970>
   1668c:	4b81                	li	s7,0
   1668e:	ec3a                	sd	a4,24(sp)
   16690:	84e6                	mv	s1,s9
   16692:	17c10d93          	addi	s11,sp,380
   16696:	0cf14783          	lbu	a5,207(sp)
   1669a:	0009891b          	sext.w	s2,s3
   1669e:	0179d463          	bge	s3,s7,166a6 <_svfprintf_r+0x306>
   166a2:	000b891b          	sext.w	s2,s7
   166a6:	f002                	sd	zero,32(sp)
   166a8:	ec82                	sd	zero,88(sp)
   166aa:	f482                	sd	zero,104(sp)
   166ac:	f082                	sd	zero,96(sp)
   166ae:	e60781e3          	beqz	a5,16510 <_svfprintf_r+0x170>
   166b2:	2905                	addiw	s2,s2,1
   166b4:	bdb1                	j	16510 <_svfprintf_r+0x170>
   166b6:	0104e493          	ori	s1,s1,16
   166ba:	2481                	sext.w	s1,s1
   166bc:	66e2                	ld	a3,24(sp)
   166be:	0204f793          	andi	a5,s1,32
   166c2:	00868713          	addi	a4,a3,8
   166c6:	1c078863          	beqz	a5,16896 <_svfprintf_r+0x4f6>
   166ca:	0006b903          	ld	s2,0(a3)
   166ce:	bff4fc93          	andi	s9,s1,-1025
   166d2:	2c81                	sext.w	s9,s9
   166d4:	ec3a                	sd	a4,24(sp)
   166d6:	4781                	li	a5,0
   166d8:	4701                	li	a4,0
   166da:	0ce107a3          	sb	a4,207(sp)
   166de:	577d                	li	a4,-1
   166e0:	20e98863          	beq	s3,a4,168f0 <_svfprintf_r+0x550>
   166e4:	f7fcf493          	andi	s1,s9,-129
   166e8:	2481                	sext.w	s1,s1
   166ea:	66091463          	bnez	s2,16d52 <_svfprintf_r+0x9b2>
   166ee:	50099863          	bnez	s3,16bfe <_svfprintf_r+0x85e>
   166f2:	1a0798e3          	bnez	a5,170a2 <_svfprintf_r+0xd02>
   166f6:	001cfb93          	andi	s7,s9,1
   166fa:	17c10d93          	addi	s11,sp,380
   166fe:	f80b8ce3          	beqz	s7,16696 <_svfprintf_r+0x2f6>
   16702:	03000793          	li	a5,48
   16706:	16f10da3          	sb	a5,379(sp)
   1670a:	17b10d93          	addi	s11,sp,379
   1670e:	b761                	j	16696 <_svfprintf_r+0x2f6>
   16710:	41b404bb          	subw	s1,s0,s11
   16714:	d2049fe3          	bnez	s1,16452 <_svfprintf_r+0xb2>
   16718:	00044783          	lbu	a5,0(s0)
   1671c:	b39d                	j	16482 <_svfprintf_r+0xe2>
   1671e:	6522                	ld	a0,8(sp)
   16720:	0210                	addi	a2,sp,256
   16722:	85d2                	mv	a1,s4
   16724:	624030ef          	jal	ra,19d48 <__ssprint_r>
   16728:	ec051de3          	bnez	a0,16602 <_svfprintf_r+0x262>
   1672c:	835a                	mv	t1,s6
   1672e:	b3a9                	j	16478 <_svfprintf_r+0xd8>
   16730:	0084f793          	andi	a5,s1,8
   16734:	1e079be3          	bnez	a5,1712a <_svfprintf_r+0xd8a>
   16738:	67e2                	ld	a5,24(sp)
   1673a:	f01a                	sd	t1,32(sp)
   1673c:	2388                	fld	fa0,0(a5)
   1673e:	07a1                	addi	a5,a5,8
   16740:	ec3e                	sd	a5,24(sp)
   16742:	3b1050ef          	jal	ra,1c2f2 <__extenddftf2>
   16746:	7302                	ld	t1,32(sp)
   16748:	87aa                	mv	a5,a0
   1674a:	1988                	addi	a0,sp,240
   1674c:	f01a                	sd	t1,32(sp)
   1674e:	f9be                	sd	a5,240(sp)
   16750:	fdae                	sd	a1,248(sp)
   16752:	b76fe0ef          	jal	ra,14ac8 <_ldcheck>
   16756:	cdaa                	sw	a0,216(sp)
   16758:	4789                	li	a5,2
   1675a:	7302                	ld	t1,32(sp)
   1675c:	60f50be3          	beq	a0,a5,17572 <_svfprintf_r+0x11d2>
   16760:	4785                	li	a5,1
   16762:	00f51463          	bne	a0,a5,1676a <_svfprintf_r+0x3ca>
   16766:	1140106f          	j	1787a <_svfprintf_r+0x14da>
   1676a:	06100793          	li	a5,97
   1676e:	72fd03e3          	beq	s10,a5,17694 <_svfprintf_r+0x12f4>
   16772:	04100793          	li	a5,65
   16776:	05800713          	li	a4,88
   1677a:	70fd0fe3          	beq	s10,a5,17698 <_svfprintf_r+0x12f8>
   1677e:	57fd                	li	a5,-1
   16780:	00f99463          	bne	s3,a5,16788 <_svfprintf_r+0x3e8>
   16784:	2040106f          	j	17988 <_svfprintf_r+0x15e8>
   16788:	fdfd7793          	andi	a5,s10,-33
   1678c:	04700713          	li	a4,71
   16790:	00e79463          	bne	a5,a4,16798 <_svfprintf_r+0x3f8>
   16794:	5600106f          	j	17cf4 <_svfprintf_r+0x1954>
   16798:	1004e793          	ori	a5,s1,256
   1679c:	7bee                	ld	s7,248(sp)
   1679e:	2781                	sext.w	a5,a5
   167a0:	f13e                	sd	a5,160(sp)
   167a2:	e8a6                	sd	s1,80(sp)
   167a4:	794e                	ld	s2,240(sp)
   167a6:	000bd463          	bgez	s7,167ae <_svfprintf_r+0x40e>
   167aa:	0be0106f          	j	17868 <_svfprintf_r+0x14c8>
   167ae:	f902                	sd	zero,176(sp)
   167b0:	f002                	sd	zero,32(sp)
   167b2:	7250006f          	j	176d6 <_svfprintf_r+0x1336>
   167b6:	6522                	ld	a0,8(sp)
   167b8:	0210                	addi	a2,sp,256
   167ba:	85d2                	mv	a1,s4
   167bc:	e4c6                	sd	a7,72(sp)
   167be:	e0fa                	sd	t5,64(sp)
   167c0:	588030ef          	jal	ra,19d48 <__ssprint_r>
   167c4:	58051063          	bnez	a0,16d44 <_svfprintf_r+0x9a4>
   167c8:	6cd2                	ld	s9,272(sp)
   167ca:	68a6                	ld	a7,72(sp)
   167cc:	6f06                	ld	t5,64(sp)
   167ce:	835a                	mv	t1,s6
   167d0:	b369                	j	1655a <_svfprintf_r+0x1ba>
   167d2:	7722                	ld	a4,40(sp)
   167d4:	4785                	li	a5,1
   167d6:	10812683          	lw	a3,264(sp)
   167da:	01030b93          	addi	s7,t1,16
   167de:	7ee7dc63          	bge	a5,a4,16fd6 <_svfprintf_r+0xc36>
   167e2:	2685                	addiw	a3,a3,1
   167e4:	4785                	li	a5,1
   167e6:	001c8713          	addi	a4,s9,1
   167ea:	00f33423          	sd	a5,8(t1)
   167ee:	10d12423          	sw	a3,264(sp)
   167f2:	0006879b          	sext.w	a5,a3
   167f6:	01b33023          	sd	s11,0(t1)
   167fa:	ea3a                	sd	a4,272(sp)
   167fc:	469d                	li	a3,7
   167fe:	0af6c7e3          	blt	a3,a5,170ac <_svfprintf_r+0xd0c>
   16802:	00178d1b          	addiw	s10,a5,1
   16806:	77e6                	ld	a5,120(sp)
   16808:	11a12423          	sw	s10,264(sp)
   1680c:	469d                	li	a3,7
   1680e:	00e789b3          	add	s3,a5,a4
   16812:	670a                	ld	a4,128(sp)
   16814:	00fbb423          	sd	a5,8(s7)
   16818:	ea4e                	sd	s3,272(sp)
   1681a:	00ebb023          	sd	a4,0(s7)
   1681e:	0bc1                	addi	s7,s7,16
   16820:	0ba6c3e3          	blt	a3,s10,170c6 <_svfprintf_r+0xd26>
   16824:	754e                	ld	a0,240(sp)
   16826:	75ee                	ld	a1,248(sp)
   16828:	4681                	li	a3,0
   1682a:	4601                	li	a2,0
   1682c:	06d040ef          	jal	ra,1b098 <__eqtf2>
   16830:	77a2                	ld	a5,40(sp)
   16832:	fff7869b          	addiw	a3,a5,-1
   16836:	7c050f63          	beqz	a0,17014 <_svfprintf_r+0xc74>
   1683a:	2d05                	addiw	s10,s10,1
   1683c:	001d8813          	addi	a6,s11,1
   16840:	866a                	mv	a2,s10
   16842:	99b6                	add	s3,s3,a3
   16844:	010bb023          	sd	a6,0(s7)
   16848:	00dbb423          	sd	a3,8(s7)
   1684c:	ea4e                	sd	s3,272(sp)
   1684e:	10c12423          	sw	a2,264(sp)
   16852:	469d                	li	a3,7
   16854:	0bc1                	addi	s7,s7,16
   16856:	7ba6c263          	blt	a3,s10,16ffa <_svfprintf_r+0xc5a>
   1685a:	662a                	ld	a2,136(sp)
   1685c:	001d079b          	addiw	a5,s10,1
   16860:	1194                	addi	a3,sp,224
   16862:	01360733          	add	a4,a2,s3
   16866:	00dbb023          	sd	a3,0(s7)
   1686a:	10f12423          	sw	a5,264(sp)
   1686e:	0007869b          	sext.w	a3,a5
   16872:	00cbb423          	sd	a2,8(s7)
   16876:	ea3a                	sd	a4,272(sp)
   16878:	479d                	li	a5,7
   1687a:	010b8313          	addi	t1,s7,16
   1687e:	d4d7d1e3          	bge	a5,a3,165c0 <_svfprintf_r+0x220>
   16882:	6522                	ld	a0,8(sp)
   16884:	0210                	addi	a2,sp,256
   16886:	85d2                	mv	a1,s4
   16888:	4c0030ef          	jal	ra,19d48 <__ssprint_r>
   1688c:	4a051c63          	bnez	a0,16d44 <_svfprintf_r+0x9a4>
   16890:	6752                	ld	a4,272(sp)
   16892:	835a                	mv	t1,s6
   16894:	b335                	j	165c0 <_svfprintf_r+0x220>
   16896:	0104f793          	andi	a5,s1,16
   1689a:	080793e3          	bnez	a5,17120 <_svfprintf_r+0xd80>
   1689e:	66e2                	ld	a3,24(sp)
   168a0:	0404f793          	andi	a5,s1,64
   168a4:	0006a903          	lw	s2,0(a3)
   168a8:	5c078ee3          	beqz	a5,17684 <_svfprintf_r+0x12e4>
   168ac:	1942                	slli	s2,s2,0x30
   168ae:	03095913          	srli	s2,s2,0x30
   168b2:	bd31                	j	166ce <_svfprintf_r+0x32e>
   168b4:	0104f793          	andi	a5,s1,16
   168b8:	04079fe3          	bnez	a5,17116 <_svfprintf_r+0xd76>
   168bc:	66e2                	ld	a3,24(sp)
   168be:	0404f793          	andi	a5,s1,64
   168c2:	0006a903          	lw	s2,0(a3)
   168c6:	5a0784e3          	beqz	a5,1766e <_svfprintf_r+0x12ce>
   168ca:	0109191b          	slliw	s2,s2,0x10
   168ce:	4109591b          	sraiw	s2,s2,0x10
   168d2:	87ca                	mv	a5,s2
   168d4:	da07d0e3          	bgez	a5,16674 <_svfprintf_r+0x2d4>
   168d8:	ec3a                	sd	a4,24(sp)
   168da:	02d00713          	li	a4,45
   168de:	0ce107a3          	sb	a4,207(sp)
   168e2:	577d                	li	a4,-1
   168e4:	41200933          	neg	s2,s2
   168e8:	8ca6                	mv	s9,s1
   168ea:	4785                	li	a5,1
   168ec:	dee99ce3          	bne	s3,a4,166e4 <_svfprintf_r+0x344>
   168f0:	4705                	li	a4,1
   168f2:	46e78463          	beq	a5,a4,16d5a <_svfprintf_r+0x9ba>
   168f6:	4709                	li	a4,2
   168f8:	30e78c63          	beq	a5,a4,16c10 <_svfprintf_r+0x870>
   168fc:	17c10b93          	addi	s7,sp,380
   16900:	8dde                	mv	s11,s7
   16902:	00797793          	andi	a5,s2,7
   16906:	03078793          	addi	a5,a5,48
   1690a:	fefd8fa3          	sb	a5,-1(s11)
   1690e:	00395913          	srli	s2,s2,0x3
   16912:	876e                	mv	a4,s11
   16914:	1dfd                	addi	s11,s11,-1
   16916:	fe0916e3          	bnez	s2,16902 <_svfprintf_r+0x562>
   1691a:	001cf693          	andi	a3,s9,1
   1691e:	30068963          	beqz	a3,16c30 <_svfprintf_r+0x890>
   16922:	03000693          	li	a3,48
   16926:	30d78563          	beq	a5,a3,16c30 <_svfprintf_r+0x890>
   1692a:	1779                	addi	a4,a4,-2
   1692c:	fedd8fa3          	sb	a3,-1(s11)
   16930:	40eb8bbb          	subw	s7,s7,a4
   16934:	84e6                	mv	s1,s9
   16936:	8dba                	mv	s11,a4
   16938:	bbb9                	j	16696 <_svfprintf_r+0x2f6>
   1693a:	6762                	ld	a4,24(sp)
   1693c:	0c0107a3          	sb	zero,207(sp)
   16940:	4905                	li	s2,1
   16942:	431c                	lw	a5,0(a4)
   16944:	0721                	addi	a4,a4,8
   16946:	ec3a                	sd	a4,24(sp)
   16948:	10f10c23          	sb	a5,280(sp)
   1694c:	4b85                	li	s7,1
   1694e:	11810d93          	addi	s11,sp,280
   16952:	be55                	j	16506 <_svfprintf_r+0x166>
   16954:	67e2                	ld	a5,24(sp)
   16956:	0c0107a3          	sb	zero,207(sp)
   1695a:	0007bd83          	ld	s11,0(a5)
   1695e:	00878c93          	addi	s9,a5,8
   16962:	440d88e3          	beqz	s11,175b2 <_svfprintf_r+0x1212>
   16966:	57fd                	li	a5,-1
   16968:	12f981e3          	beq	s3,a5,1728a <_svfprintf_r+0xeea>
   1696c:	864e                	mv	a2,s3
   1696e:	4581                	li	a1,0
   16970:	856e                	mv	a0,s11
   16972:	ec1a                	sd	t1,24(sp)
   16974:	931fe0ef          	jal	ra,152a4 <memchr>
   16978:	f02a                	sd	a0,32(sp)
   1697a:	6362                	ld	t1,24(sp)
   1697c:	e119                	bnez	a0,16982 <_svfprintf_r+0x5e2>
   1697e:	1f20106f          	j	17b70 <_svfprintf_r+0x17d0>
   16982:	7782                	ld	a5,32(sp)
   16984:	ec66                	sd	s9,24(sp)
   16986:	f002                	sd	zero,32(sp)
   16988:	41b78bbb          	subw	s7,a5,s11
   1698c:	0cf14783          	lbu	a5,207(sp)
   16990:	fffbc913          	not	s2,s7
   16994:	43f95913          	srai	s2,s2,0x3f
   16998:	ec82                	sd	zero,88(sp)
   1699a:	f482                	sd	zero,104(sp)
   1699c:	f082                	sd	zero,96(sp)
   1699e:	01797933          	and	s2,s2,s7
   169a2:	4981                	li	s3,0
   169a4:	d00797e3          	bnez	a5,166b2 <_svfprintf_r+0x312>
   169a8:	b6a5                	j	16510 <_svfprintf_r+0x170>
   169aa:	67e2                	ld	a5,24(sp)
   169ac:	0007aa83          	lw	s5,0(a5)
   169b0:	00878d13          	addi	s10,a5,8
   169b4:	720adc63          	bgez	s5,170ec <_svfprintf_r+0xd4c>
   169b8:	41500abb          	negw	s5,s5
   169bc:	ec6a                	sd	s10,24(sp)
   169be:	0044e493          	ori	s1,s1,4
   169c2:	00044e03          	lbu	t3,0(s0)
   169c6:	2481                	sext.w	s1,s1
   169c8:	bcc9                	j	1649a <_svfprintf_r+0xfa>
   169ca:	0084e493          	ori	s1,s1,8
   169ce:	00044e03          	lbu	t3,0(s0)
   169d2:	2481                	sext.w	s1,s1
   169d4:	b4d9                	j	1649a <_svfprintf_r+0xfa>
   169d6:	02b00793          	li	a5,43
   169da:	00044e03          	lbu	t3,0(s0)
   169de:	0cf107a3          	sb	a5,207(sp)
   169e2:	bc65                	j	1649a <_svfprintf_r+0xfa>
   169e4:	0804e493          	ori	s1,s1,128
   169e8:	00044e03          	lbu	t3,0(s0)
   169ec:	2481                	sext.w	s1,s1
   169ee:	b475                	j	1649a <_svfprintf_r+0xfa>
   169f0:	00044d03          	lbu	s10,0(s0)
   169f4:	02a00693          	li	a3,42
   169f8:	00140793          	addi	a5,s0,1
   169fc:	00dd1463          	bne	s10,a3,16a04 <_svfprintf_r+0x664>
   16a00:	4480106f          	j	17e48 <_svfprintf_r+0x1aa8>
   16a04:	fd0d071b          	addiw	a4,s10,-48
   16a08:	4625                	li	a2,9
   16a0a:	843e                	mv	s0,a5
   16a0c:	4981                	li	s3,0
   16a0e:	46a5                	li	a3,9
   16a10:	a8e668e3          	bltu	a2,a4,164a0 <_svfprintf_r+0x100>
   16a14:	00044d03          	lbu	s10,0(s0)
   16a18:	0029979b          	slliw	a5,s3,0x2
   16a1c:	013787bb          	addw	a5,a5,s3
   16a20:	0017979b          	slliw	a5,a5,0x1
   16a24:	00e789bb          	addw	s3,a5,a4
   16a28:	fd0d071b          	addiw	a4,s10,-48
   16a2c:	0405                	addi	s0,s0,1
   16a2e:	fee6f3e3          	bgeu	a3,a4,16a14 <_svfprintf_r+0x674>
   16a32:	b4bd                	j	164a0 <_svfprintf_r+0x100>
   16a34:	6ba2                	ld	s7,8(sp)
   16a36:	f01a                	sd	t1,32(sp)
   16a38:	855e                	mv	a0,s7
   16a3a:	8d6fe0ef          	jal	ra,14b10 <_localeconv_r>
   16a3e:	651c                	ld	a5,8(a0)
   16a40:	853e                	mv	a0,a5
   16a42:	ed3e                	sd	a5,152(sp)
   16a44:	85bff0ef          	jal	ra,1629e <strlen>
   16a48:	87aa                	mv	a5,a0
   16a4a:	855e                	mv	a0,s7
   16a4c:	e93e                	sd	a5,144(sp)
   16a4e:	8bbe                	mv	s7,a5
   16a50:	8c0fe0ef          	jal	ra,14b10 <_localeconv_r>
   16a54:	691c                	ld	a5,16(a0)
   16a56:	7302                	ld	t1,32(sp)
   16a58:	00044e03          	lbu	t3,0(s0)
   16a5c:	f8be                	sd	a5,112(sp)
   16a5e:	a20b8ee3          	beqz	s7,1649a <_svfprintf_r+0xfa>
   16a62:	a2078ce3          	beqz	a5,1649a <_svfprintf_r+0xfa>
   16a66:	0007c783          	lbu	a5,0(a5)
   16a6a:	a20788e3          	beqz	a5,1649a <_svfprintf_r+0xfa>
   16a6e:	4004e493          	ori	s1,s1,1024
   16a72:	2481                	sext.w	s1,s1
   16a74:	b41d                	j	1649a <_svfprintf_r+0xfa>
   16a76:	0014e493          	ori	s1,s1,1
   16a7a:	00044e03          	lbu	t3,0(s0)
   16a7e:	2481                	sext.w	s1,s1
   16a80:	bc29                	j	1649a <_svfprintf_r+0xfa>
   16a82:	0cf14783          	lbu	a5,207(sp)
   16a86:	00044e03          	lbu	t3,0(s0)
   16a8a:	a00798e3          	bnez	a5,1649a <_svfprintf_r+0xfa>
   16a8e:	02000793          	li	a5,32
   16a92:	0cf107a3          	sb	a5,207(sp)
   16a96:	b411                	j	1649a <_svfprintf_r+0xfa>
   16a98:	0104ec93          	ori	s9,s1,16
   16a9c:	2c81                	sext.w	s9,s9
   16a9e:	66e2                	ld	a3,24(sp)
   16aa0:	020cf793          	andi	a5,s9,32
   16aa4:	00868713          	addi	a4,a3,8
   16aa8:	5c078c63          	beqz	a5,17080 <_svfprintf_r+0xce0>
   16aac:	0006b903          	ld	s2,0(a3)
   16ab0:	4785                	li	a5,1
   16ab2:	ec3a                	sd	a4,24(sp)
   16ab4:	b115                	j	166d8 <_svfprintf_r+0x338>
   16ab6:	0204e493          	ori	s1,s1,32
   16aba:	00044e03          	lbu	t3,0(s0)
   16abe:	2481                	sext.w	s1,s1
   16ac0:	bae9                	j	1649a <_svfprintf_r+0xfa>
   16ac2:	6762                	ld	a4,24(sp)
   16ac4:	77e1                	lui	a5,0xffff8
   16ac6:	8307c793          	xori	a5,a5,-2000
   16aca:	0cf11823          	sh	a5,208(sp)
   16ace:	00870793          	addi	a5,a4,8
   16ad2:	ec3e                	sd	a5,24(sp)
   16ad4:	67f1                	lui	a5,0x1c
   16ad6:	6d078793          	addi	a5,a5,1744 # 1c6d0 <__clzdi2+0xa0>
   16ada:	0024ec93          	ori	s9,s1,2
   16ade:	fc3e                	sd	a5,56(sp)
   16ae0:	00073903          	ld	s2,0(a4)
   16ae4:	2c81                	sext.w	s9,s9
   16ae6:	4789                	li	a5,2
   16ae8:	07800d13          	li	s10,120
   16aec:	b6f5                	j	166d8 <_svfprintf_r+0x338>
   16aee:	6762                	ld	a4,24(sp)
   16af0:	0204f793          	andi	a5,s1,32
   16af4:	6318                	ld	a4,0(a4)
   16af6:	60078063          	beqz	a5,170f6 <_svfprintf_r+0xd56>
   16afa:	67c2                	ld	a5,16(sp)
   16afc:	e31c                	sd	a5,0(a4)
   16afe:	67e2                	ld	a5,24(sp)
   16b00:	8da2                	mv	s11,s0
   16b02:	07a1                	addi	a5,a5,8
   16b04:	ec3e                	sd	a5,24(sp)
   16b06:	b4f5                	j	165f2 <_svfprintf_r+0x252>
   16b08:	00044e03          	lbu	t3,0(s0)
   16b0c:	06c00793          	li	a5,108
   16b10:	72fe0f63          	beq	t3,a5,1724e <_svfprintf_r+0xeae>
   16b14:	0104e493          	ori	s1,s1,16
   16b18:	2481                	sext.w	s1,s1
   16b1a:	b241                	j	1649a <_svfprintf_r+0xfa>
   16b1c:	00044e03          	lbu	t3,0(s0)
   16b20:	06800793          	li	a5,104
   16b24:	70fe0363          	beq	t3,a5,1722a <_svfprintf_r+0xe8a>
   16b28:	0404e493          	ori	s1,s1,64
   16b2c:	2481                	sext.w	s1,s1
   16b2e:	b2b5                	j	1649a <_svfprintf_r+0xfa>
   16b30:	06500793          	li	a5,101
   16b34:	c9a7dfe3          	bge	a5,s10,167d2 <_svfprintf_r+0x432>
   16b38:	754e                	ld	a0,240(sp)
   16b3a:	75ee                	ld	a1,248(sp)
   16b3c:	4601                	li	a2,0
   16b3e:	4681                	li	a3,0
   16b40:	e09a                	sd	t1,64(sp)
   16b42:	556040ef          	jal	ra,1b098 <__eqtf2>
   16b46:	6306                	ld	t1,64(sp)
   16b48:	34051f63          	bnez	a0,16ea6 <_svfprintf_r+0xb06>
   16b4c:	10812783          	lw	a5,264(sp)
   16b50:	6771                	lui	a4,0x1c
   16b52:	6f070713          	addi	a4,a4,1776 # 1c6f0 <__clzdi2+0xc0>
   16b56:	2785                	addiw	a5,a5,1
   16b58:	00e33023          	sd	a4,0(t1)
   16b5c:	0c85                	addi	s9,s9,1
   16b5e:	4705                	li	a4,1
   16b60:	00e33423          	sd	a4,8(t1)
   16b64:	10f12423          	sw	a5,264(sp)
   16b68:	0007871b          	sext.w	a4,a5
   16b6c:	ea66                	sd	s9,272(sp)
   16b6e:	479d                	li	a5,7
   16b70:	0341                	addi	t1,t1,16
   16b72:	1ae7c1e3          	blt	a5,a4,17514 <_svfprintf_r+0x1174>
   16b76:	47ee                	lw	a5,216(sp)
   16b78:	7722                	ld	a4,40(sp)
   16b7a:	56e7d363          	bge	a5,a4,170e0 <_svfprintf_r+0xd40>
   16b7e:	76e6                	ld	a3,120(sp)
   16b80:	10812783          	lw	a5,264(sp)
   16b84:	660a                	ld	a2,128(sp)
   16b86:	01968733          	add	a4,a3,s9
   16b8a:	2785                	addiw	a5,a5,1
   16b8c:	00d33423          	sd	a3,8(t1)
   16b90:	00c33023          	sd	a2,0(t1)
   16b94:	0007869b          	sext.w	a3,a5
   16b98:	10f12423          	sw	a5,264(sp)
   16b9c:	ea3a                	sd	a4,272(sp)
   16b9e:	479d                	li	a5,7
   16ba0:	0341                	addi	t1,t1,16
   16ba2:	68d7cc63          	blt	a5,a3,1723a <_svfprintf_r+0xe9a>
   16ba6:	77a2                	ld	a5,40(sp)
   16ba8:	fff78b9b          	addiw	s7,a5,-1
   16bac:	a1705ae3          	blez	s7,165c0 <_svfprintf_r+0x220>
   16bb0:	6cf5                	lui	s9,0x1d
   16bb2:	46c1                	li	a3,16
   16bb4:	10812783          	lw	a5,264(sp)
   16bb8:	fc8c8c93          	addi	s9,s9,-56 # 1cfc8 <zeroes.0>
   16bbc:	4d41                	li	s10,16
   16bbe:	499d                	li	s3,7
   16bc0:	0176c763          	blt	a3,s7,16bce <_svfprintf_r+0x82e>
   16bc4:	1670006f          	j	1752a <_svfprintf_r+0x118a>
   16bc8:	3bc1                	addiw	s7,s7,-16
   16bca:	177d50e3          	bge	s10,s7,1752a <_svfprintf_r+0x118a>
   16bce:	2785                	addiw	a5,a5,1
   16bd0:	0741                	addi	a4,a4,16
   16bd2:	01933023          	sd	s9,0(t1)
   16bd6:	01a33423          	sd	s10,8(t1)
   16bda:	ea3a                	sd	a4,272(sp)
   16bdc:	10f12423          	sw	a5,264(sp)
   16be0:	0341                	addi	t1,t1,16
   16be2:	fef9d3e3          	bge	s3,a5,16bc8 <_svfprintf_r+0x828>
   16be6:	6522                	ld	a0,8(sp)
   16be8:	0210                	addi	a2,sp,256
   16bea:	85d2                	mv	a1,s4
   16bec:	15c030ef          	jal	ra,19d48 <__ssprint_r>
   16bf0:	14051a63          	bnez	a0,16d44 <_svfprintf_r+0x9a4>
   16bf4:	6752                	ld	a4,272(sp)
   16bf6:	10812783          	lw	a5,264(sp)
   16bfa:	835a                	mv	t1,s6
   16bfc:	b7f1                	j	16bc8 <_svfprintf_r+0x828>
   16bfe:	4705                	li	a4,1
   16c00:	00e79463          	bne	a5,a4,16c08 <_svfprintf_r+0x868>
   16c04:	03e0106f          	j	17c42 <_svfprintf_r+0x18a2>
   16c08:	4709                	li	a4,2
   16c0a:	8ca6                	mv	s9,s1
   16c0c:	cee798e3          	bne	a5,a4,168fc <_svfprintf_r+0x55c>
   16c10:	17c10b93          	addi	s7,sp,380
   16c14:	8dde                	mv	s11,s7
   16c16:	7762                	ld	a4,56(sp)
   16c18:	00f97793          	andi	a5,s2,15
   16c1c:	1dfd                	addi	s11,s11,-1
   16c1e:	97ba                	add	a5,a5,a4
   16c20:	0007c783          	lbu	a5,0(a5)
   16c24:	00495913          	srli	s2,s2,0x4
   16c28:	00fd8023          	sb	a5,0(s11)
   16c2c:	fe0915e3          	bnez	s2,16c16 <_svfprintf_r+0x876>
   16c30:	41bb8bbb          	subw	s7,s7,s11
   16c34:	84e6                	mv	s1,s9
   16c36:	b485                	j	16696 <_svfprintf_r+0x2f6>
   16c38:	412a86bb          	subw	a3,s5,s2
   16c3c:	94d058e3          	blez	a3,1658c <_svfprintf_r+0x1ec>
   16c40:	8766                	mv	a4,s9
   16c42:	4641                	li	a2,16
   16c44:	6cf5                	lui	s9,0x1d
   16c46:	10812783          	lw	a5,264(sp)
   16c4a:	fc8c8c93          	addi	s9,s9,-56 # 1cfc8 <zeroes.0>
   16c4e:	48c1                	li	a7,16
   16c50:	4f1d                	li	t5,7
   16c52:	00d64663          	blt	a2,a3,16c5e <_svfprintf_r+0x8be>
   16c56:	a089                	j	16c98 <_svfprintf_r+0x8f8>
   16c58:	36c1                	addiw	a3,a3,-16
   16c5a:	02d8df63          	bge	a7,a3,16c98 <_svfprintf_r+0x8f8>
   16c5e:	2785                	addiw	a5,a5,1
   16c60:	0741                	addi	a4,a4,16
   16c62:	01933023          	sd	s9,0(t1)
   16c66:	01133423          	sd	a7,8(t1)
   16c6a:	ea3a                	sd	a4,272(sp)
   16c6c:	10f12423          	sw	a5,264(sp)
   16c70:	0341                	addi	t1,t1,16
   16c72:	feff53e3          	bge	t5,a5,16c58 <_svfprintf_r+0x8b8>
   16c76:	6522                	ld	a0,8(sp)
   16c78:	0210                	addi	a2,sp,256
   16c7a:	85d2                	mv	a1,s4
   16c7c:	e0b6                	sd	a3,64(sp)
   16c7e:	0ca030ef          	jal	ra,19d48 <__ssprint_r>
   16c82:	e169                	bnez	a0,16d44 <_svfprintf_r+0x9a4>
   16c84:	6686                	ld	a3,64(sp)
   16c86:	48c1                	li	a7,16
   16c88:	6752                	ld	a4,272(sp)
   16c8a:	36c1                	addiw	a3,a3,-16
   16c8c:	10812783          	lw	a5,264(sp)
   16c90:	835a                	mv	t1,s6
   16c92:	4f1d                	li	t5,7
   16c94:	fcd8c5e3          	blt	a7,a3,16c5e <_svfprintf_r+0x8be>
   16c98:	2785                	addiw	a5,a5,1
   16c9a:	9736                	add	a4,a4,a3
   16c9c:	00d33423          	sd	a3,8(t1)
   16ca0:	10f12423          	sw	a5,264(sp)
   16ca4:	0007869b          	sext.w	a3,a5
   16ca8:	01933023          	sd	s9,0(t1)
   16cac:	ea3a                	sd	a4,272(sp)
   16cae:	479d                	li	a5,7
   16cb0:	0ad7c6e3          	blt	a5,a3,1755c <_svfprintf_r+0x11bc>
   16cb4:	417989bb          	subw	s3,s3,s7
   16cb8:	0341                	addi	t1,t1,16
   16cba:	8cba                	mv	s9,a4
   16cbc:	8d305ce3          	blez	s3,16594 <_svfprintf_r+0x1f4>
   16cc0:	8766                	mv	a4,s9
   16cc2:	4641                	li	a2,16
   16cc4:	6cf5                	lui	s9,0x1d
   16cc6:	10812783          	lw	a5,264(sp)
   16cca:	fc8c8c93          	addi	s9,s9,-56 # 1cfc8 <zeroes.0>
   16cce:	05365463          	bge	a2,s3,16d16 <_svfprintf_r+0x976>
   16cd2:	8ce2                	mv	s9,s8
   16cd4:	48c1                	li	a7,16
   16cd6:	4e9d                	li	t4,7
   16cd8:	a021                	j	16ce0 <_svfprintf_r+0x940>
   16cda:	39c1                	addiw	s3,s3,-16
   16cdc:	0338dd63          	bge	a7,s3,16d16 <_svfprintf_r+0x976>
   16ce0:	2785                	addiw	a5,a5,1
   16ce2:	0741                	addi	a4,a4,16
   16ce4:	01833023          	sd	s8,0(t1)
   16ce8:	01133423          	sd	a7,8(t1)
   16cec:	ea3a                	sd	a4,272(sp)
   16cee:	10f12423          	sw	a5,264(sp)
   16cf2:	0341                	addi	t1,t1,16
   16cf4:	fefed3e3          	bge	t4,a5,16cda <_svfprintf_r+0x93a>
   16cf8:	6522                	ld	a0,8(sp)
   16cfa:	0210                	addi	a2,sp,256
   16cfc:	85d2                	mv	a1,s4
   16cfe:	04a030ef          	jal	ra,19d48 <__ssprint_r>
   16d02:	e129                	bnez	a0,16d44 <_svfprintf_r+0x9a4>
   16d04:	48c1                	li	a7,16
   16d06:	39c1                	addiw	s3,s3,-16
   16d08:	6752                	ld	a4,272(sp)
   16d0a:	10812783          	lw	a5,264(sp)
   16d0e:	835a                	mv	t1,s6
   16d10:	4e9d                	li	t4,7
   16d12:	fd38c7e3          	blt	a7,s3,16ce0 <_svfprintf_r+0x940>
   16d16:	0017869b          	addiw	a3,a5,1
   16d1a:	974e                	add	a4,a4,s3
   16d1c:	01933023          	sd	s9,0(t1)
   16d20:	01333423          	sd	s3,8(t1)
   16d24:	ea3a                	sd	a4,272(sp)
   16d26:	10d12423          	sw	a3,264(sp)
   16d2a:	479d                	li	a5,7
   16d2c:	32d7cf63          	blt	a5,a3,1706a <_svfprintf_r+0xcca>
   16d30:	0341                	addi	t1,t1,16
   16d32:	8cba                	mv	s9,a4
   16d34:	b085                	j	16594 <_svfprintf_r+0x1f4>
   16d36:	6522                	ld	a0,8(sp)
   16d38:	0210                	addi	a2,sp,256
   16d3a:	85d2                	mv	a1,s4
   16d3c:	00c030ef          	jal	ra,19d48 <__ssprint_r>
   16d40:	88050fe3          	beqz	a0,165de <_svfprintf_r+0x23e>
   16d44:	7582                	ld	a1,32(sp)
   16d46:	8a058ee3          	beqz	a1,16602 <_svfprintf_r+0x262>
   16d4a:	6522                	ld	a0,8(sp)
   16d4c:	969fb0ef          	jal	ra,126b4 <_free_r>
   16d50:	b84d                	j	16602 <_svfprintf_r+0x262>
   16d52:	4705                	li	a4,1
   16d54:	8ca6                	mv	s9,s1
   16d56:	bae790e3          	bne	a5,a4,168f6 <_svfprintf_r+0x556>
   16d5a:	47a5                	li	a5,9
   16d5c:	4127e263          	bltu	a5,s2,17160 <_svfprintf_r+0xdc0>
   16d60:	0309091b          	addiw	s2,s2,48
   16d64:	17210da3          	sb	s2,379(sp)
   16d68:	84e6                	mv	s1,s9
   16d6a:	4b85                	li	s7,1
   16d6c:	17b10d93          	addi	s11,sp,379
   16d70:	b21d                	j	16696 <_svfprintf_r+0x2f6>
   16d72:	46c1                	li	a3,16
   16d74:	6752                	ld	a4,272(sp)
   16d76:	10812783          	lw	a5,264(sp)
   16d7a:	6196d9e3          	bge	a3,s9,17b8c <_svfprintf_r+0x17ec>
   16d7e:	66f5                	lui	a3,0x1d
   16d80:	fd868693          	addi	a3,a3,-40 # 1cfd8 <blanks.1>
   16d84:	4fc1                	li	t6,16
   16d86:	429d                	li	t0,7
   16d88:	a021                	j	16d90 <_svfprintf_r+0x9f0>
   16d8a:	3cc1                	addiw	s9,s9,-16
   16d8c:	059fd363          	bge	t6,s9,16dd2 <_svfprintf_r+0xa32>
   16d90:	2785                	addiw	a5,a5,1
   16d92:	0741                	addi	a4,a4,16
   16d94:	00d33023          	sd	a3,0(t1)
   16d98:	01f33423          	sd	t6,8(t1)
   16d9c:	ea3a                	sd	a4,272(sp)
   16d9e:	10f12423          	sw	a5,264(sp)
   16da2:	0341                	addi	t1,t1,16
   16da4:	fef2d3e3          	bge	t0,a5,16d8a <_svfprintf_r+0x9ea>
   16da8:	6522                	ld	a0,8(sp)
   16daa:	0210                	addi	a2,sp,256
   16dac:	85d2                	mv	a1,s4
   16dae:	e8b6                	sd	a3,80(sp)
   16db0:	e4c6                	sd	a7,72(sp)
   16db2:	e0fa                	sd	t5,64(sp)
   16db4:	795020ef          	jal	ra,19d48 <__ssprint_r>
   16db8:	f551                	bnez	a0,16d44 <_svfprintf_r+0x9a4>
   16dba:	4fc1                	li	t6,16
   16dbc:	3cc1                	addiw	s9,s9,-16
   16dbe:	6752                	ld	a4,272(sp)
   16dc0:	10812783          	lw	a5,264(sp)
   16dc4:	66c6                	ld	a3,80(sp)
   16dc6:	68a6                	ld	a7,72(sp)
   16dc8:	6f06                	ld	t5,64(sp)
   16dca:	835a                	mv	t1,s6
   16dcc:	429d                	li	t0,7
   16dce:	fd9fc1e3          	blt	t6,s9,16d90 <_svfprintf_r+0x9f0>
   16dd2:	2785                	addiw	a5,a5,1
   16dd4:	9766                	add	a4,a4,s9
   16dd6:	00d33023          	sd	a3,0(t1)
   16dda:	01933423          	sd	s9,8(t1)
   16dde:	ea3a                	sd	a4,272(sp)
   16de0:	10f12423          	sw	a5,264(sp)
   16de4:	0007871b          	sext.w	a4,a5
   16de8:	479d                	li	a5,7
   16dea:	0341                	addi	t1,t1,16
   16dec:	f2e7df63          	bge	a5,a4,1652a <_svfprintf_r+0x18a>
   16df0:	6522                	ld	a0,8(sp)
   16df2:	0210                	addi	a2,sp,256
   16df4:	85d2                	mv	a1,s4
   16df6:	e4c6                	sd	a7,72(sp)
   16df8:	e0fa                	sd	t5,64(sp)
   16dfa:	74f020ef          	jal	ra,19d48 <__ssprint_r>
   16dfe:	f139                	bnez	a0,16d44 <_svfprintf_r+0x9a4>
   16e00:	68a6                	ld	a7,72(sp)
   16e02:	6f06                	ld	t5,64(sp)
   16e04:	835a                	mv	t1,s6
   16e06:	f24ff06f          	j	1652a <_svfprintf_r+0x18a>
   16e0a:	6522                	ld	a0,8(sp)
   16e0c:	0210                	addi	a2,sp,256
   16e0e:	85d2                	mv	a1,s4
   16e10:	e0c6                	sd	a7,64(sp)
   16e12:	737020ef          	jal	ra,19d48 <__ssprint_r>
   16e16:	f51d                	bnez	a0,16d44 <_svfprintf_r+0x9a4>
   16e18:	6cd2                	ld	s9,272(sp)
   16e1a:	6886                	ld	a7,64(sp)
   16e1c:	835a                	mv	t1,s6
   16e1e:	f66ff06f          	j	16584 <_svfprintf_r+0x1e4>
   16e22:	46c1                	li	a3,16
   16e24:	10812783          	lw	a5,264(sp)
   16e28:	5c96d4e3          	bge	a3,s1,17bf0 <_svfprintf_r+0x1850>
   16e2c:	66f5                	lui	a3,0x1d
   16e2e:	fd868693          	addi	a3,a3,-40 # 1cfd8 <blanks.1>
   16e32:	4bc1                	li	s7,16
   16e34:	4c9d                	li	s9,7
   16e36:	a021                	j	16e3e <_svfprintf_r+0xa9e>
   16e38:	34c1                	addiw	s1,s1,-16
   16e3a:	029bde63          	bge	s7,s1,16e76 <_svfprintf_r+0xad6>
   16e3e:	2785                	addiw	a5,a5,1
   16e40:	0741                	addi	a4,a4,16
   16e42:	00d33023          	sd	a3,0(t1)
   16e46:	01733423          	sd	s7,8(t1)
   16e4a:	ea3a                	sd	a4,272(sp)
   16e4c:	10f12423          	sw	a5,264(sp)
   16e50:	0341                	addi	t1,t1,16
   16e52:	fefcd3e3          	bge	s9,a5,16e38 <_svfprintf_r+0xa98>
   16e56:	6522                	ld	a0,8(sp)
   16e58:	0210                	addi	a2,sp,256
   16e5a:	85d2                	mv	a1,s4
   16e5c:	e0b6                	sd	a3,64(sp)
   16e5e:	6eb020ef          	jal	ra,19d48 <__ssprint_r>
   16e62:	ee0511e3          	bnez	a0,16d44 <_svfprintf_r+0x9a4>
   16e66:	34c1                	addiw	s1,s1,-16
   16e68:	6752                	ld	a4,272(sp)
   16e6a:	10812783          	lw	a5,264(sp)
   16e6e:	6686                	ld	a3,64(sp)
   16e70:	835a                	mv	t1,s6
   16e72:	fc9bc6e3          	blt	s7,s1,16e3e <_svfprintf_r+0xa9e>
   16e76:	2785                	addiw	a5,a5,1
   16e78:	9726                	add	a4,a4,s1
   16e7a:	00d33023          	sd	a3,0(t1)
   16e7e:	10f12423          	sw	a5,264(sp)
   16e82:	0007869b          	sext.w	a3,a5
   16e86:	00933423          	sd	s1,8(t1)
   16e8a:	ea3a                	sd	a4,272(sp)
   16e8c:	479d                	li	a5,7
   16e8e:	f2d7df63          	bge	a5,a3,165cc <_svfprintf_r+0x22c>
   16e92:	6522                	ld	a0,8(sp)
   16e94:	0210                	addi	a2,sp,256
   16e96:	85d2                	mv	a1,s4
   16e98:	6b1020ef          	jal	ra,19d48 <__ssprint_r>
   16e9c:	ea0514e3          	bnez	a0,16d44 <_svfprintf_r+0x9a4>
   16ea0:	6752                	ld	a4,272(sp)
   16ea2:	f2aff06f          	j	165cc <_svfprintf_r+0x22c>
   16ea6:	466e                	lw	a2,216(sp)
   16ea8:	5ac05363          	blez	a2,1744e <_svfprintf_r+0x10ae>
   16eac:	77a2                	ld	a5,40(sp)
   16eae:	7686                	ld	a3,96(sp)
   16eb0:	00fd8733          	add	a4,s11,a5
   16eb4:	e4ba                	sd	a4,72(sp)
   16eb6:	28f6cb63          	blt	a3,a5,1714c <_svfprintf_r+0xdac>
   16eba:	0007899b          	sext.w	s3,a5
   16ebe:	03305263          	blez	s3,16ee2 <_svfprintf_r+0xb42>
   16ec2:	10812703          	lw	a4,264(sp)
   16ec6:	9cce                	add	s9,s9,s3
   16ec8:	01b33023          	sd	s11,0(t1)
   16ecc:	0017069b          	addiw	a3,a4,1
   16ed0:	01333423          	sd	s3,8(t1)
   16ed4:	ea66                	sd	s9,272(sp)
   16ed6:	10d12423          	sw	a3,264(sp)
   16eda:	471d                	li	a4,7
   16edc:	0341                	addi	t1,t1,16
   16ede:	1ed740e3          	blt	a4,a3,178be <_svfprintf_r+0x151e>
   16ee2:	fff9c713          	not	a4,s3
   16ee6:	977d                	srai	a4,a4,0x3f
   16ee8:	00e9f7b3          	and	a5,s3,a4
   16eec:	7706                	ld	a4,96(sp)
   16eee:	40f709bb          	subw	s3,a4,a5
   16ef2:	3d304563          	bgtz	s3,172bc <_svfprintf_r+0xf1c>
   16ef6:	7706                	ld	a4,96(sp)
   16ef8:	4004f793          	andi	a5,s1,1024
   16efc:	9dba                	add	s11,s11,a4
   16efe:	40079663          	bnez	a5,1730a <_svfprintf_r+0xf6a>
   16f02:	47ee                	lw	a5,216(sp)
   16f04:	76a2                	ld	a3,40(sp)
   16f06:	00d7c663          	blt	a5,a3,16f12 <_svfprintf_r+0xb72>
   16f0a:	0014f713          	andi	a4,s1,1
   16f0e:	1c0705e3          	beqz	a4,178d8 <_svfprintf_r+0x1538>
   16f12:	7666                	ld	a2,120(sp)
   16f14:	10812683          	lw	a3,264(sp)
   16f18:	658a                	ld	a1,128(sp)
   16f1a:	01960733          	add	a4,a2,s9
   16f1e:	2685                	addiw	a3,a3,1
   16f20:	00c33423          	sd	a2,8(t1)
   16f24:	00b33023          	sd	a1,0(t1)
   16f28:	0006861b          	sext.w	a2,a3
   16f2c:	10d12423          	sw	a3,264(sp)
   16f30:	ea3a                	sd	a4,272(sp)
   16f32:	469d                	li	a3,7
   16f34:	0341                	addi	t1,t1,16
   16f36:	40c6cce3          	blt	a3,a2,17b4e <_svfprintf_r+0x17ae>
   16f3a:	66a6                	ld	a3,72(sp)
   16f3c:	41b68bb3          	sub	s7,a3,s11
   16f40:	76a2                	ld	a3,40(sp)
   16f42:	000b861b          	sext.w	a2,s7
   16f46:	40f687bb          	subw	a5,a3,a5
   16f4a:	00c7d363          	bge	a5,a2,16f50 <_svfprintf_r+0xbb0>
   16f4e:	8bbe                	mv	s7,a5
   16f50:	000b8c9b          	sext.w	s9,s7
   16f54:	03905263          	blez	s9,16f78 <_svfprintf_r+0xbd8>
   16f58:	10812683          	lw	a3,264(sp)
   16f5c:	9766                	add	a4,a4,s9
   16f5e:	01b33023          	sd	s11,0(t1)
   16f62:	0016861b          	addiw	a2,a3,1
   16f66:	01933423          	sd	s9,8(t1)
   16f6a:	ea3a                	sd	a4,272(sp)
   16f6c:	10c12423          	sw	a2,264(sp)
   16f70:	469d                	li	a3,7
   16f72:	0341                	addi	t1,t1,16
   16f74:	44c6cbe3          	blt	a3,a2,17bca <_svfprintf_r+0x182a>
   16f78:	fffcc693          	not	a3,s9
   16f7c:	96fd                	srai	a3,a3,0x3f
   16f7e:	00dcfcb3          	and	s9,s9,a3
   16f82:	41978bbb          	subw	s7,a5,s9
   16f86:	e3705d63          	blez	s7,165c0 <_svfprintf_r+0x220>
   16f8a:	6cf5                	lui	s9,0x1d
   16f8c:	46c1                	li	a3,16
   16f8e:	10812783          	lw	a5,264(sp)
   16f92:	fc8c8c93          	addi	s9,s9,-56 # 1cfc8 <zeroes.0>
   16f96:	4d41                	li	s10,16
   16f98:	499d                	li	s3,7
   16f9a:	0176c663          	blt	a3,s7,16fa6 <_svfprintf_r+0xc06>
   16f9e:	a371                	j	1752a <_svfprintf_r+0x118a>
   16fa0:	3bc1                	addiw	s7,s7,-16
   16fa2:	597d5463          	bge	s10,s7,1752a <_svfprintf_r+0x118a>
   16fa6:	2785                	addiw	a5,a5,1
   16fa8:	0741                	addi	a4,a4,16
   16faa:	01933023          	sd	s9,0(t1)
   16fae:	01a33423          	sd	s10,8(t1)
   16fb2:	ea3a                	sd	a4,272(sp)
   16fb4:	10f12423          	sw	a5,264(sp)
   16fb8:	0341                	addi	t1,t1,16
   16fba:	fef9d3e3          	bge	s3,a5,16fa0 <_svfprintf_r+0xc00>
   16fbe:	6522                	ld	a0,8(sp)
   16fc0:	0210                	addi	a2,sp,256
   16fc2:	85d2                	mv	a1,s4
   16fc4:	585020ef          	jal	ra,19d48 <__ssprint_r>
   16fc8:	d6051ee3          	bnez	a0,16d44 <_svfprintf_r+0x9a4>
   16fcc:	6752                	ld	a4,272(sp)
   16fce:	10812783          	lw	a5,264(sp)
   16fd2:	835a                	mv	t1,s6
   16fd4:	b7f1                	j	16fa0 <_svfprintf_r+0xc00>
   16fd6:	0014f713          	andi	a4,s1,1
   16fda:	800714e3          	bnez	a4,167e2 <_svfprintf_r+0x442>
   16fde:	00168d1b          	addiw	s10,a3,1
   16fe2:	001c8993          	addi	s3,s9,1
   16fe6:	01b33023          	sd	s11,0(t1)
   16fea:	00f33423          	sd	a5,8(t1)
   16fee:	ea4e                	sd	s3,272(sp)
   16ff0:	11a12423          	sw	s10,264(sp)
   16ff4:	469d                	li	a3,7
   16ff6:	87a6d2e3          	bge	a3,s10,1685a <_svfprintf_r+0x4ba>
   16ffa:	6522                	ld	a0,8(sp)
   16ffc:	0210                	addi	a2,sp,256
   16ffe:	85d2                	mv	a1,s4
   17000:	549020ef          	jal	ra,19d48 <__ssprint_r>
   17004:	d40510e3          	bnez	a0,16d44 <_svfprintf_r+0x9a4>
   17008:	69d2                	ld	s3,272(sp)
   1700a:	10812d03          	lw	s10,264(sp)
   1700e:	8bda                	mv	s7,s6
   17010:	84bff06f          	j	1685a <_svfprintf_r+0x4ba>
   17014:	77a2                	ld	a5,40(sp)
   17016:	4605                	li	a2,1
   17018:	84f651e3          	bge	a2,a5,1685a <_svfprintf_r+0x4ba>
   1701c:	6cf5                	lui	s9,0x1d
   1701e:	4645                	li	a2,17
   17020:	fc8c8c93          	addi	s9,s9,-56 # 1cfc8 <zeroes.0>
   17024:	4841                	li	a6,16
   17026:	4d9d                	li	s11,7
   17028:	00f64663          	blt	a2,a5,17034 <_svfprintf_r+0xc94>
   1702c:	ab79                	j	175ca <_svfprintf_r+0x122a>
   1702e:	36c1                	addiw	a3,a3,-16
   17030:	58d85d63          	bge	a6,a3,175ca <_svfprintf_r+0x122a>
   17034:	2d05                	addiw	s10,s10,1
   17036:	09c1                	addi	s3,s3,16
   17038:	019bb023          	sd	s9,0(s7)
   1703c:	010bb423          	sd	a6,8(s7)
   17040:	ea4e                	sd	s3,272(sp)
   17042:	11a12423          	sw	s10,264(sp)
   17046:	0bc1                	addi	s7,s7,16
   17048:	ffadd3e3          	bge	s11,s10,1702e <_svfprintf_r+0xc8e>
   1704c:	6522                	ld	a0,8(sp)
   1704e:	0210                	addi	a2,sp,256
   17050:	85d2                	mv	a1,s4
   17052:	e0b6                	sd	a3,64(sp)
   17054:	4f5020ef          	jal	ra,19d48 <__ssprint_r>
   17058:	ce0516e3          	bnez	a0,16d44 <_svfprintf_r+0x9a4>
   1705c:	69d2                	ld	s3,272(sp)
   1705e:	10812d03          	lw	s10,264(sp)
   17062:	6686                	ld	a3,64(sp)
   17064:	8bda                	mv	s7,s6
   17066:	4841                	li	a6,16
   17068:	b7d9                	j	1702e <_svfprintf_r+0xc8e>
   1706a:	6522                	ld	a0,8(sp)
   1706c:	0210                	addi	a2,sp,256
   1706e:	85d2                	mv	a1,s4
   17070:	4d9020ef          	jal	ra,19d48 <__ssprint_r>
   17074:	cc0518e3          	bnez	a0,16d44 <_svfprintf_r+0x9a4>
   17078:	6cd2                	ld	s9,272(sp)
   1707a:	835a                	mv	t1,s6
   1707c:	d18ff06f          	j	16594 <_svfprintf_r+0x1f4>
   17080:	010cf793          	andi	a5,s9,16
   17084:	efcd                	bnez	a5,1713e <_svfprintf_r+0xd9e>
   17086:	66e2                	ld	a3,24(sp)
   17088:	040cf793          	andi	a5,s9,64
   1708c:	0006a903          	lw	s2,0(a3)
   17090:	5a078e63          	beqz	a5,1764c <_svfprintf_r+0x12ac>
   17094:	1942                	slli	s2,s2,0x30
   17096:	03095913          	srli	s2,s2,0x30
   1709a:	ec3a                	sd	a4,24(sp)
   1709c:	4785                	li	a5,1
   1709e:	e3aff06f          	j	166d8 <_svfprintf_r+0x338>
   170a2:	4b81                	li	s7,0
   170a4:	17c10d93          	addi	s11,sp,380
   170a8:	deeff06f          	j	16696 <_svfprintf_r+0x2f6>
   170ac:	6522                	ld	a0,8(sp)
   170ae:	0210                	addi	a2,sp,256
   170b0:	85d2                	mv	a1,s4
   170b2:	497020ef          	jal	ra,19d48 <__ssprint_r>
   170b6:	c80517e3          	bnez	a0,16d44 <_svfprintf_r+0x9a4>
   170ba:	6752                	ld	a4,272(sp)
   170bc:	10812783          	lw	a5,264(sp)
   170c0:	8bda                	mv	s7,s6
   170c2:	f40ff06f          	j	16802 <_svfprintf_r+0x462>
   170c6:	6522                	ld	a0,8(sp)
   170c8:	0210                	addi	a2,sp,256
   170ca:	85d2                	mv	a1,s4
   170cc:	47d020ef          	jal	ra,19d48 <__ssprint_r>
   170d0:	c6051ae3          	bnez	a0,16d44 <_svfprintf_r+0x9a4>
   170d4:	69d2                	ld	s3,272(sp)
   170d6:	10812d03          	lw	s10,264(sp)
   170da:	8bda                	mv	s7,s6
   170dc:	f48ff06f          	j	16824 <_svfprintf_r+0x484>
   170e0:	0014f793          	andi	a5,s1,1
   170e4:	8766                	mv	a4,s9
   170e6:	cc078d63          	beqz	a5,165c0 <_svfprintf_r+0x220>
   170ea:	bc51                	j	16b7e <_svfprintf_r+0x7de>
   170ec:	00044e03          	lbu	t3,0(s0)
   170f0:	ec6a                	sd	s10,24(sp)
   170f2:	ba8ff06f          	j	1649a <_svfprintf_r+0xfa>
   170f6:	0104f793          	andi	a5,s1,16
   170fa:	a00790e3          	bnez	a5,16afa <_svfprintf_r+0x75a>
   170fe:	0404f793          	andi	a5,s1,64
   17102:	7e079b63          	bnez	a5,178f8 <_svfprintf_r+0x1558>
   17106:	2004f493          	andi	s1,s1,512
   1710a:	67c2                	ld	a5,16(sp)
   1710c:	40048ae3          	beqz	s1,17d20 <_svfprintf_r+0x1980>
   17110:	00f70023          	sb	a5,0(a4)
   17114:	b2ed                	j	16afe <_svfprintf_r+0x75e>
   17116:	67e2                	ld	a5,24(sp)
   17118:	639c                	ld	a5,0(a5)
   1711a:	893e                	mv	s2,a5
   1711c:	d54ff06f          	j	16670 <_svfprintf_r+0x2d0>
   17120:	67e2                	ld	a5,24(sp)
   17122:	0007b903          	ld	s2,0(a5)
   17126:	da8ff06f          	j	166ce <_svfprintf_r+0x32e>
   1712a:	67e2                	ld	a5,24(sp)
   1712c:	07bd                	addi	a5,a5,15
   1712e:	ff07f713          	andi	a4,a5,-16
   17132:	631c                	ld	a5,0(a4)
   17134:	670c                	ld	a1,8(a4)
   17136:	0741                	addi	a4,a4,16
   17138:	ec3a                	sd	a4,24(sp)
   1713a:	e10ff06f          	j	1674a <_svfprintf_r+0x3aa>
   1713e:	67e2                	ld	a5,24(sp)
   17140:	ec3a                	sd	a4,24(sp)
   17142:	0007b903          	ld	s2,0(a5)
   17146:	4785                	li	a5,1
   17148:	d90ff06f          	j	166d8 <_svfprintf_r+0x338>
   1714c:	87b6                	mv	a5,a3
   1714e:	0007899b          	sext.w	s3,a5
   17152:	d73048e3          	bgtz	s3,16ec2 <_svfprintf_r+0xb22>
   17156:	b371                	j	16ee2 <_svfprintf_r+0xb42>
   17158:	ec3a                	sd	a4,24(sp)
   1715a:	47a5                	li	a5,9
   1715c:	c127f2e3          	bgeu	a5,s2,16d60 <_svfprintf_r+0x9c0>
   17160:	17c10b93          	addi	s7,sp,380
   17164:	400cf713          	andi	a4,s9,1024
   17168:	f402                	sd	zero,40(sp)
   1716a:	865e                	mv	a2,s7
   1716c:	44a9                	li	s1,10
   1716e:	46a5                	li	a3,9
   17170:	0ff00893          	li	a7,255
   17174:	a039                	j	17182 <_svfprintf_r+0xde2>
   17176:	029957b3          	divu	a5,s2,s1
   1717a:	ab26fbe3          	bgeu	a3,s2,16c30 <_svfprintf_r+0x890>
   1717e:	893e                	mv	s2,a5
   17180:	866e                	mv	a2,s11
   17182:	75a2                	ld	a1,40(sp)
   17184:	fff60d93          	addi	s11,a2,-1
   17188:	2585                	addiw	a1,a1,1
   1718a:	f42e                	sd	a1,40(sp)
   1718c:	029977b3          	remu	a5,s2,s1
   17190:	0307879b          	addiw	a5,a5,48
   17194:	fef60fa3          	sb	a5,-1(a2)
   17198:	df79                	beqz	a4,17176 <_svfprintf_r+0xdd6>
   1719a:	77c6                	ld	a5,112(sp)
   1719c:	0007c783          	lbu	a5,0(a5)
   171a0:	fcf59be3          	bne	a1,a5,17176 <_svfprintf_r+0xdd6>
   171a4:	fd1789e3          	beq	a5,a7,17176 <_svfprintf_r+0xdd6>
   171a8:	a926f4e3          	bgeu	a3,s2,16c30 <_svfprintf_r+0x890>
   171ac:	67ca                	ld	a5,144(sp)
   171ae:	65ea                	ld	a1,152(sp)
   171b0:	e0ba                	sd	a4,64(sp)
   171b2:	40fd8db3          	sub	s11,s11,a5
   171b6:	863e                	mv	a2,a5
   171b8:	856e                	mv	a0,s11
   171ba:	f01a                	sd	t1,32(sp)
   171bc:	972ff0ef          	jal	ra,1632e <strncpy>
   171c0:	7746                	ld	a4,112(sp)
   171c2:	47a9                	li	a5,10
   171c4:	02f957b3          	divu	a5,s2,a5
   171c8:	00174603          	lbu	a2,1(a4)
   171cc:	7302                	ld	t1,32(sp)
   171ce:	f402                	sd	zero,40(sp)
   171d0:	00c03633          	snez	a2,a2
   171d4:	9732                	add	a4,a4,a2
   171d6:	f8ba                	sd	a4,112(sp)
   171d8:	46a5                	li	a3,9
   171da:	6706                	ld	a4,64(sp)
   171dc:	0ff00893          	li	a7,255
   171e0:	bf79                	j	1717e <_svfprintf_r+0xdde>
   171e2:	8ca6                	mv	s9,s1
   171e4:	b86d                	j	16a9e <_svfprintf_r+0x6fe>
   171e6:	67f1                	lui	a5,0x1c
   171e8:	6b878793          	addi	a5,a5,1720 # 1c6b8 <__clzdi2+0x88>
   171ec:	fc3e                	sd	a5,56(sp)
   171ee:	66e2                	ld	a3,24(sp)
   171f0:	0204f793          	andi	a5,s1,32
   171f4:	00868713          	addi	a4,a3,8
   171f8:	22078a63          	beqz	a5,1742c <_svfprintf_r+0x108c>
   171fc:	0006b903          	ld	s2,0(a3)
   17200:	0014f793          	andi	a5,s1,1
   17204:	cf81                	beqz	a5,1721c <_svfprintf_r+0xe7c>
   17206:	00090b63          	beqz	s2,1721c <_svfprintf_r+0xe7c>
   1720a:	0024e493          	ori	s1,s1,2
   1720e:	03000793          	li	a5,48
   17212:	0cf10823          	sb	a5,208(sp)
   17216:	0da108a3          	sb	s10,209(sp)
   1721a:	2481                	sext.w	s1,s1
   1721c:	bff4fc93          	andi	s9,s1,-1025
   17220:	2c81                	sext.w	s9,s9
   17222:	ec3a                	sd	a4,24(sp)
   17224:	4789                	li	a5,2
   17226:	cb2ff06f          	j	166d8 <_svfprintf_r+0x338>
   1722a:	2004e493          	ori	s1,s1,512
   1722e:	00144e03          	lbu	t3,1(s0)
   17232:	2481                	sext.w	s1,s1
   17234:	0405                	addi	s0,s0,1
   17236:	a64ff06f          	j	1649a <_svfprintf_r+0xfa>
   1723a:	6522                	ld	a0,8(sp)
   1723c:	0210                	addi	a2,sp,256
   1723e:	85d2                	mv	a1,s4
   17240:	309020ef          	jal	ra,19d48 <__ssprint_r>
   17244:	b00510e3          	bnez	a0,16d44 <_svfprintf_r+0x9a4>
   17248:	6752                	ld	a4,272(sp)
   1724a:	835a                	mv	t1,s6
   1724c:	baa9                	j	16ba6 <_svfprintf_r+0x806>
   1724e:	0204e493          	ori	s1,s1,32
   17252:	00144e03          	lbu	t3,1(s0)
   17256:	2481                	sext.w	s1,s1
   17258:	0405                	addi	s0,s0,1
   1725a:	a40ff06f          	j	1649a <_svfprintf_r+0xfa>
   1725e:	67f1                	lui	a5,0x1c
   17260:	6d078793          	addi	a5,a5,1744 # 1c6d0 <__clzdi2+0xa0>
   17264:	fc3e                	sd	a5,56(sp)
   17266:	b761                	j	171ee <_svfprintf_r+0xe4e>
   17268:	6522                	ld	a0,8(sp)
   1726a:	04000593          	li	a1,64
   1726e:	a4bfd0ef          	jal	ra,14cb8 <_malloc_r>
   17272:	00aa3023          	sd	a0,0(s4)
   17276:	00aa3c23          	sd	a0,24(s4)
   1727a:	280504e3          	beqz	a0,17d02 <_svfprintf_r+0x1962>
   1727e:	04000793          	li	a5,64
   17282:	02fa2023          	sw	a5,32(s4)
   17286:	980ff06f          	j	16406 <_svfprintf_r+0x66>
   1728a:	856e                	mv	a0,s11
   1728c:	e09a                	sd	t1,64(sp)
   1728e:	810ff0ef          	jal	ra,1629e <strlen>
   17292:	00050b9b          	sext.w	s7,a0
   17296:	0cf14783          	lbu	a5,207(sp)
   1729a:	fffbc913          	not	s2,s7
   1729e:	43f95913          	srai	s2,s2,0x3f
   172a2:	ec66                	sd	s9,24(sp)
   172a4:	f002                	sd	zero,32(sp)
   172a6:	ec82                	sd	zero,88(sp)
   172a8:	f482                	sd	zero,104(sp)
   172aa:	f082                	sd	zero,96(sp)
   172ac:	6306                	ld	t1,64(sp)
   172ae:	01797933          	and	s2,s2,s7
   172b2:	4981                	li	s3,0
   172b4:	be079f63          	bnez	a5,166b2 <_svfprintf_r+0x312>
   172b8:	a58ff06f          	j	16510 <_svfprintf_r+0x170>
   172bc:	8766                	mv	a4,s9
   172be:	4641                	li	a2,16
   172c0:	6cf5                	lui	s9,0x1d
   172c2:	10812683          	lw	a3,264(sp)
   172c6:	fc8c8c93          	addi	s9,s9,-56 # 1cfc8 <zeroes.0>
   172ca:	4d41                	li	s10,16
   172cc:	4b9d                	li	s7,7
   172ce:	01364663          	blt	a2,s3,172da <_svfprintf_r+0xf3a>
   172d2:	a3c9                	j	17894 <_svfprintf_r+0x14f4>
   172d4:	39c1                	addiw	s3,s3,-16
   172d6:	5b3d5f63          	bge	s10,s3,17894 <_svfprintf_r+0x14f4>
   172da:	2685                	addiw	a3,a3,1
   172dc:	0741                	addi	a4,a4,16
   172de:	01933023          	sd	s9,0(t1)
   172e2:	01a33423          	sd	s10,8(t1)
   172e6:	ea3a                	sd	a4,272(sp)
   172e8:	10d12423          	sw	a3,264(sp)
   172ec:	0341                	addi	t1,t1,16
   172ee:	fedbd3e3          	bge	s7,a3,172d4 <_svfprintf_r+0xf34>
   172f2:	6522                	ld	a0,8(sp)
   172f4:	0210                	addi	a2,sp,256
   172f6:	85d2                	mv	a1,s4
   172f8:	251020ef          	jal	ra,19d48 <__ssprint_r>
   172fc:	a40514e3          	bnez	a0,16d44 <_svfprintf_r+0x9a4>
   17300:	6752                	ld	a4,272(sp)
   17302:	10812683          	lw	a3,264(sp)
   17306:	835a                	mv	t1,s6
   17308:	b7f1                	j	172d4 <_svfprintf_r+0xf34>
   1730a:	77a6                	ld	a5,104(sp)
   1730c:	6ef5                	lui	t4,0x1d
   1730e:	4b9d                	li	s7,7
   17310:	4d41                	li	s10,16
   17312:	fc8e8993          	addi	s3,t4,-56 # 1cfc8 <zeroes.0>
   17316:	c7d9                	beqz	a5,173a4 <_svfprintf_r+0x1004>
   17318:	67e6                	ld	a5,88(sp)
   1731a:	1e078663          	beqz	a5,17506 <_svfprintf_r+0x1166>
   1731e:	67e6                	ld	a5,88(sp)
   17320:	37fd                	addiw	a5,a5,-1
   17322:	ecbe                	sd	a5,88(sp)
   17324:	674a                	ld	a4,144(sp)
   17326:	10812783          	lw	a5,264(sp)
   1732a:	66ea                	ld	a3,152(sp)
   1732c:	9cba                	add	s9,s9,a4
   1732e:	2785                	addiw	a5,a5,1
   17330:	00e33423          	sd	a4,8(t1)
   17334:	00d33023          	sd	a3,0(t1)
   17338:	ea66                	sd	s9,272(sp)
   1733a:	0007871b          	sext.w	a4,a5
   1733e:	10f12423          	sw	a5,264(sp)
   17342:	0341                	addi	t1,t1,16
   17344:	0eebcb63          	blt	s7,a4,1743a <_svfprintf_r+0x109a>
   17348:	77c6                	ld	a5,112(sp)
   1734a:	0007c603          	lbu	a2,0(a5)
   1734e:	67a6                	ld	a5,72(sp)
   17350:	41b78733          	sub	a4,a5,s11
   17354:	0007069b          	sext.w	a3,a4
   17358:	0006079b          	sext.w	a5,a2
   1735c:	00d65363          	bge	a2,a3,17362 <_svfprintf_r+0xfc2>
   17360:	873e                	mv	a4,a5
   17362:	2701                	sext.w	a4,a4
   17364:	02e05663          	blez	a4,17390 <_svfprintf_r+0xff0>
   17368:	10812783          	lw	a5,264(sp)
   1736c:	9cba                	add	s9,s9,a4
   1736e:	01b33023          	sd	s11,0(t1)
   17372:	0017869b          	addiw	a3,a5,1
   17376:	00e33423          	sd	a4,8(t1)
   1737a:	ea66                	sd	s9,272(sp)
   1737c:	10d12423          	sw	a3,264(sp)
   17380:	1adbcd63          	blt	s7,a3,1753a <_svfprintf_r+0x119a>
   17384:	77c6                	ld	a5,112(sp)
   17386:	0341                	addi	t1,t1,16
   17388:	0007c603          	lbu	a2,0(a5)
   1738c:	0006079b          	sext.w	a5,a2
   17390:	fff74693          	not	a3,a4
   17394:	96fd                	srai	a3,a3,0x3f
   17396:	8f75                	and	a4,a4,a3
   17398:	9f99                	subw	a5,a5,a4
   1739a:	00f04c63          	bgtz	a5,173b2 <_svfprintf_r+0x1012>
   1739e:	9db2                	add	s11,s11,a2
   173a0:	77a6                	ld	a5,104(sp)
   173a2:	fbbd                	bnez	a5,17318 <_svfprintf_r+0xf78>
   173a4:	67e6                	ld	a5,88(sp)
   173a6:	ffa5                	bnez	a5,1731e <_svfprintf_r+0xf7e>
   173a8:	67a6                	ld	a5,72(sp)
   173aa:	b5b7fce3          	bgeu	a5,s11,16f02 <_svfprintf_r+0xb62>
   173ae:	8dbe                	mv	s11,a5
   173b0:	be89                	j	16f02 <_svfprintf_r+0xb62>
   173b2:	8766                	mv	a4,s9
   173b4:	6cf5                	lui	s9,0x1d
   173b6:	10812683          	lw	a3,264(sp)
   173ba:	fc8c8c93          	addi	s9,s9,-56 # 1cfc8 <zeroes.0>
   173be:	04fd5363          	bge	s10,a5,17404 <_svfprintf_r+0x1064>
   173c2:	8cce                	mv	s9,s3
   173c4:	a021                	j	173cc <_svfprintf_r+0x102c>
   173c6:	37c1                	addiw	a5,a5,-16
   173c8:	02fd5e63          	bge	s10,a5,17404 <_svfprintf_r+0x1064>
   173cc:	2685                	addiw	a3,a3,1
   173ce:	0741                	addi	a4,a4,16
   173d0:	01333023          	sd	s3,0(t1)
   173d4:	01a33423          	sd	s10,8(t1)
   173d8:	ea3a                	sd	a4,272(sp)
   173da:	10d12423          	sw	a3,264(sp)
   173de:	0341                	addi	t1,t1,16
   173e0:	fedbd3e3          	bge	s7,a3,173c6 <_svfprintf_r+0x1026>
   173e4:	6522                	ld	a0,8(sp)
   173e6:	0210                	addi	a2,sp,256
   173e8:	85d2                	mv	a1,s4
   173ea:	e0be                	sd	a5,64(sp)
   173ec:	15d020ef          	jal	ra,19d48 <__ssprint_r>
   173f0:	94051ae3          	bnez	a0,16d44 <_svfprintf_r+0x9a4>
   173f4:	6786                	ld	a5,64(sp)
   173f6:	6752                	ld	a4,272(sp)
   173f8:	10812683          	lw	a3,264(sp)
   173fc:	37c1                	addiw	a5,a5,-16
   173fe:	835a                	mv	t1,s6
   17400:	fcfd46e3          	blt	s10,a5,173cc <_svfprintf_r+0x102c>
   17404:	2685                	addiw	a3,a3,1
   17406:	973e                	add	a4,a4,a5
   17408:	00f33423          	sd	a5,8(t1)
   1740c:	01933023          	sd	s9,0(t1)
   17410:	ea3a                	sd	a4,272(sp)
   17412:	0006879b          	sext.w	a5,a3
   17416:	10d12423          	sw	a3,264(sp)
   1741a:	70fbcb63          	blt	s7,a5,17b30 <_svfprintf_r+0x1790>
   1741e:	77c6                	ld	a5,112(sp)
   17420:	0341                	addi	t1,t1,16
   17422:	8cba                	mv	s9,a4
   17424:	0007c603          	lbu	a2,0(a5)
   17428:	9db2                	add	s11,s11,a2
   1742a:	bf9d                	j	173a0 <_svfprintf_r+0x1000>
   1742c:	0104f793          	andi	a5,s1,16
   17430:	cfc5                	beqz	a5,174e8 <_svfprintf_r+0x1148>
   17432:	67e2                	ld	a5,24(sp)
   17434:	0007b903          	ld	s2,0(a5)
   17438:	b3e1                	j	17200 <_svfprintf_r+0xe60>
   1743a:	6522                	ld	a0,8(sp)
   1743c:	0210                	addi	a2,sp,256
   1743e:	85d2                	mv	a1,s4
   17440:	109020ef          	jal	ra,19d48 <__ssprint_r>
   17444:	900510e3          	bnez	a0,16d44 <_svfprintf_r+0x9a4>
   17448:	6cd2                	ld	s9,272(sp)
   1744a:	835a                	mv	t1,s6
   1744c:	bdf5                	j	17348 <_svfprintf_r+0xfa8>
   1744e:	10812783          	lw	a5,264(sp)
   17452:	66f1                	lui	a3,0x1c
   17454:	6f068693          	addi	a3,a3,1776 # 1c6f0 <__clzdi2+0xc0>
   17458:	2785                	addiw	a5,a5,1
   1745a:	00d33023          	sd	a3,0(t1)
   1745e:	001c8713          	addi	a4,s9,1
   17462:	4685                	li	a3,1
   17464:	00d33423          	sd	a3,8(t1)
   17468:	10f12423          	sw	a5,264(sp)
   1746c:	0007869b          	sext.w	a3,a5
   17470:	ea3a                	sd	a4,272(sp)
   17472:	479d                	li	a5,7
   17474:	0341                	addi	t1,t1,16
   17476:	04d7ce63          	blt	a5,a3,174d2 <_svfprintf_r+0x1132>
   1747a:	14061f63          	bnez	a2,175d8 <_svfprintf_r+0x1238>
   1747e:	76a2                	ld	a3,40(sp)
   17480:	0014f793          	andi	a5,s1,1
   17484:	8fd5                	or	a5,a5,a3
   17486:	92078d63          	beqz	a5,165c0 <_svfprintf_r+0x220>
   1748a:	10812783          	lw	a5,264(sp)
   1748e:	76e6                	ld	a3,120(sp)
   17490:	660a                	ld	a2,128(sp)
   17492:	0017859b          	addiw	a1,a5,1
   17496:	9736                	add	a4,a4,a3
   17498:	00c33023          	sd	a2,0(t1)
   1749c:	00d33423          	sd	a3,8(t1)
   174a0:	ea3a                	sd	a4,272(sp)
   174a2:	10b12423          	sw	a1,264(sp)
   174a6:	479d                	li	a5,7
   174a8:	48b7cc63          	blt	a5,a1,17940 <_svfprintf_r+0x15a0>
   174ac:	0341                	addi	t1,t1,16
   174ae:	76a2                	ld	a3,40(sp)
   174b0:	0015879b          	addiw	a5,a1,1
   174b4:	10f12423          	sw	a5,264(sp)
   174b8:	9736                	add	a4,a4,a3
   174ba:	00d33423          	sd	a3,8(t1)
   174be:	01b33023          	sd	s11,0(t1)
   174c2:	0007869b          	sext.w	a3,a5
   174c6:	ea3a                	sd	a4,272(sp)
   174c8:	479d                	li	a5,7
   174ca:	8ed7da63          	bge	a5,a3,165be <_svfprintf_r+0x21e>
   174ce:	bb4ff06f          	j	16882 <_svfprintf_r+0x4e2>
   174d2:	6522                	ld	a0,8(sp)
   174d4:	0210                	addi	a2,sp,256
   174d6:	85d2                	mv	a1,s4
   174d8:	071020ef          	jal	ra,19d48 <__ssprint_r>
   174dc:	860514e3          	bnez	a0,16d44 <_svfprintf_r+0x9a4>
   174e0:	466e                	lw	a2,216(sp)
   174e2:	6752                	ld	a4,272(sp)
   174e4:	835a                	mv	t1,s6
   174e6:	bf51                	j	1747a <_svfprintf_r+0x10da>
   174e8:	66e2                	ld	a3,24(sp)
   174ea:	0404f793          	andi	a5,s1,64
   174ee:	0006a903          	lw	s2,0(a3)
   174f2:	16078763          	beqz	a5,17660 <_svfprintf_r+0x12c0>
   174f6:	1942                	slli	s2,s2,0x30
   174f8:	03095913          	srli	s2,s2,0x30
   174fc:	b311                	j	17200 <_svfprintf_r+0xe60>
   174fe:	8ca6                	mv	s9,s1
   17500:	ec3a                	sd	a4,24(sp)
   17502:	859ff06f          	j	16d5a <_svfprintf_r+0x9ba>
   17506:	77c6                	ld	a5,112(sp)
   17508:	17fd                	addi	a5,a5,-1
   1750a:	f8be                	sd	a5,112(sp)
   1750c:	77a6                	ld	a5,104(sp)
   1750e:	37fd                	addiw	a5,a5,-1
   17510:	f4be                	sd	a5,104(sp)
   17512:	bd09                	j	17324 <_svfprintf_r+0xf84>
   17514:	6522                	ld	a0,8(sp)
   17516:	0210                	addi	a2,sp,256
   17518:	85d2                	mv	a1,s4
   1751a:	02f020ef          	jal	ra,19d48 <__ssprint_r>
   1751e:	820513e3          	bnez	a0,16d44 <_svfprintf_r+0x9a4>
   17522:	6cd2                	ld	s9,272(sp)
   17524:	835a                	mv	t1,s6
   17526:	e50ff06f          	j	16b76 <_svfprintf_r+0x7d6>
   1752a:	0017869b          	addiw	a3,a5,1
   1752e:	87b6                	mv	a5,a3
   17530:	975e                	add	a4,a4,s7
   17532:	01933023          	sd	s9,0(t1)
   17536:	878ff06f          	j	165ae <_svfprintf_r+0x20e>
   1753a:	6522                	ld	a0,8(sp)
   1753c:	0210                	addi	a2,sp,256
   1753e:	85d2                	mv	a1,s4
   17540:	e0ba                	sd	a4,64(sp)
   17542:	007020ef          	jal	ra,19d48 <__ssprint_r>
   17546:	fe051f63          	bnez	a0,16d44 <_svfprintf_r+0x9a4>
   1754a:	77c6                	ld	a5,112(sp)
   1754c:	6cd2                	ld	s9,272(sp)
   1754e:	6706                	ld	a4,64(sp)
   17550:	0007c603          	lbu	a2,0(a5)
   17554:	835a                	mv	t1,s6
   17556:	0006079b          	sext.w	a5,a2
   1755a:	bd1d                	j	17390 <_svfprintf_r+0xff0>
   1755c:	6522                	ld	a0,8(sp)
   1755e:	0210                	addi	a2,sp,256
   17560:	85d2                	mv	a1,s4
   17562:	7e6020ef          	jal	ra,19d48 <__ssprint_r>
   17566:	fc051f63          	bnez	a0,16d44 <_svfprintf_r+0x9a4>
   1756a:	6cd2                	ld	s9,272(sp)
   1756c:	835a                	mv	t1,s6
   1756e:	81eff06f          	j	1658c <_svfprintf_r+0x1ec>
   17572:	754e                	ld	a0,240(sp)
   17574:	75ee                	ld	a1,248(sp)
   17576:	4601                	li	a2,0
   17578:	4681                	li	a3,0
   1757a:	479030ef          	jal	ra,1b1f2 <__letf2>
   1757e:	7302                	ld	t1,32(sp)
   17580:	5e054363          	bltz	a0,17b66 <_svfprintf_r+0x17c6>
   17584:	0cf14783          	lbu	a5,207(sp)
   17588:	04700713          	li	a4,71
   1758c:	33a75563          	bge	a4,s10,178b6 <_svfprintf_r+0x1516>
   17590:	6871                	lui	a6,0x1c
   17592:	6a080d93          	addi	s11,a6,1696 # 1c6a0 <__clzdi2+0x70>
   17596:	f7f4f493          	andi	s1,s1,-129
   1759a:	f002                	sd	zero,32(sp)
   1759c:	ec82                	sd	zero,88(sp)
   1759e:	f482                	sd	zero,104(sp)
   175a0:	f082                	sd	zero,96(sp)
   175a2:	2481                	sext.w	s1,s1
   175a4:	490d                	li	s2,3
   175a6:	4b8d                	li	s7,3
   175a8:	4981                	li	s3,0
   175aa:	90079463          	bnez	a5,166b2 <_svfprintf_r+0x312>
   175ae:	f63fe06f          	j	16510 <_svfprintf_r+0x170>
   175b2:	4799                	li	a5,6
   175b4:	00098b9b          	sext.w	s7,s3
   175b8:	3137ee63          	bltu	a5,s3,178d4 <_svfprintf_r+0x1534>
   175bc:	6871                	lui	a6,0x1c
   175be:	895e                	mv	s2,s7
   175c0:	ec66                	sd	s9,24(sp)
   175c2:	6e880d93          	addi	s11,a6,1768 # 1c6e8 <__clzdi2+0xb8>
   175c6:	f41fe06f          	j	16506 <_svfprintf_r+0x166>
   175ca:	2d05                	addiw	s10,s10,1
   175cc:	866a                	mv	a2,s10
   175ce:	99b6                	add	s3,s3,a3
   175d0:	019bb023          	sd	s9,0(s7)
   175d4:	a74ff06f          	j	16848 <_svfprintf_r+0x4a8>
   175d8:	10812783          	lw	a5,264(sp)
   175dc:	76e6                	ld	a3,120(sp)
   175de:	658a                	ld	a1,128(sp)
   175e0:	0341                	addi	t1,t1,16
   175e2:	9736                	add	a4,a4,a3
   175e4:	feb33823          	sd	a1,-16(t1)
   175e8:	0017859b          	addiw	a1,a5,1
   175ec:	fed33c23          	sd	a3,-8(t1)
   175f0:	ea3a                	sd	a4,272(sp)
   175f2:	10b12423          	sw	a1,264(sp)
   175f6:	479d                	li	a5,7
   175f8:	34b7c463          	blt	a5,a1,17940 <_svfprintf_r+0x15a0>
   175fc:	ea0659e3          	bgez	a2,174ae <_svfprintf_r+0x110e>
   17600:	6cf5                	lui	s9,0x1d
   17602:	57c1                	li	a5,-16
   17604:	40c00bbb          	negw	s7,a2
   17608:	fc8c8c93          	addi	s9,s9,-56 # 1cfc8 <zeroes.0>
   1760c:	4d41                	li	s10,16
   1760e:	499d                	li	s3,7
   17610:	00f64663          	blt	a2,a5,1761c <_svfprintf_r+0x127c>
   17614:	ad15                	j	17c48 <_svfprintf_r+0x18a8>
   17616:	3bc1                	addiw	s7,s7,-16
   17618:	637d5863          	bge	s10,s7,17c48 <_svfprintf_r+0x18a8>
   1761c:	2585                	addiw	a1,a1,1
   1761e:	0741                	addi	a4,a4,16
   17620:	01933023          	sd	s9,0(t1)
   17624:	01a33423          	sd	s10,8(t1)
   17628:	ea3a                	sd	a4,272(sp)
   1762a:	10b12423          	sw	a1,264(sp)
   1762e:	0341                	addi	t1,t1,16
   17630:	feb9d3e3          	bge	s3,a1,17616 <_svfprintf_r+0x1276>
   17634:	6522                	ld	a0,8(sp)
   17636:	0210                	addi	a2,sp,256
   17638:	85d2                	mv	a1,s4
   1763a:	70e020ef          	jal	ra,19d48 <__ssprint_r>
   1763e:	f0051363          	bnez	a0,16d44 <_svfprintf_r+0x9a4>
   17642:	6752                	ld	a4,272(sp)
   17644:	10812583          	lw	a1,264(sp)
   17648:	835a                	mv	t1,s6
   1764a:	b7f1                	j	17616 <_svfprintf_r+0x1276>
   1764c:	200cf793          	andi	a5,s9,512
   17650:	2c078563          	beqz	a5,1791a <_svfprintf_r+0x157a>
   17654:	0ff97913          	zext.b	s2,s2
   17658:	ec3a                	sd	a4,24(sp)
   1765a:	4785                	li	a5,1
   1765c:	87cff06f          	j	166d8 <_svfprintf_r+0x338>
   17660:	2004f793          	andi	a5,s1,512
   17664:	2a078763          	beqz	a5,17912 <_svfprintf_r+0x1572>
   17668:	0ff97913          	zext.b	s2,s2
   1766c:	be51                	j	17200 <_svfprintf_r+0xe60>
   1766e:	2004f793          	andi	a5,s1,512
   17672:	28078d63          	beqz	a5,1790c <_svfprintf_r+0x156c>
   17676:	0189191b          	slliw	s2,s2,0x18
   1767a:	4189591b          	sraiw	s2,s2,0x18
   1767e:	87ca                	mv	a5,s2
   17680:	ff1fe06f          	j	16670 <_svfprintf_r+0x2d0>
   17684:	2004f793          	andi	a5,s1,512
   17688:	26078d63          	beqz	a5,17902 <_svfprintf_r+0x1562>
   1768c:	0ff97913          	zext.b	s2,s2
   17690:	83eff06f          	j	166ce <_svfprintf_r+0x32e>
   17694:	07800713          	li	a4,120
   17698:	0024e793          	ori	a5,s1,2
   1769c:	03000693          	li	a3,48
   176a0:	2781                	sext.w	a5,a5
   176a2:	0ce108a3          	sb	a4,209(sp)
   176a6:	0cd10823          	sb	a3,208(sp)
   176aa:	06300713          	li	a4,99
   176ae:	e8be                	sd	a5,80(sp)
   176b0:	f002                	sd	zero,32(sp)
   176b2:	11810d93          	addi	s11,sp,280
   176b6:	2b374463          	blt	a4,s3,1795e <_svfprintf_r+0x15be>
   176ba:	1024e493          	ori	s1,s1,258
   176be:	7bee                	ld	s7,248(sp)
   176c0:	0004879b          	sext.w	a5,s1
   176c4:	f13e                	sd	a5,160(sp)
   176c6:	f902                	sd	zero,176(sp)
   176c8:	794e                	ld	s2,240(sp)
   176ca:	1a0bc063          	bltz	s7,1786a <_svfprintf_r+0x14ca>
   176ce:	06100793          	li	a5,97
   176d2:	66fd0063          	beq	s10,a5,17d32 <_svfprintf_r+0x1992>
   176d6:	fbfd079b          	addiw	a5,s10,-65
   176da:	0007869b          	sext.w	a3,a5
   176de:	02500713          	li	a4,37
   176e2:	00d76c63          	bltu	a4,a3,176fa <_svfprintf_r+0x135a>
   176e6:	02079713          	slli	a4,a5,0x20
   176ea:	01e75793          	srli	a5,a4,0x1e
   176ee:	6775                	lui	a4,0x1d
   176f0:	f2c70713          	addi	a4,a4,-212 # 1cf2c <__mprec_tens+0x234>
   176f4:	97ba                	add	a5,a5,a4
   176f6:	439c                	lw	a5,0(a5)
   176f8:	8782                	jr	a5
   176fa:	874e                	mv	a4,s3
   176fc:	4689                	li	a3,2
   176fe:	6522                	ld	a0,8(sp)
   17700:	09bc                	addi	a5,sp,216
   17702:	0e810893          	addi	a7,sp,232
   17706:	0dc10813          	addi	a6,sp,220
   1770a:	85ca                	mv	a1,s2
   1770c:	865e                	mv	a2,s7
   1770e:	e09a                	sd	t1,64(sp)
   17710:	f43a                	sd	a4,40(sp)
   17712:	d82fc0ef          	jal	ra,13c94 <_ldtoa_r>
   17716:	06700793          	li	a5,103
   1771a:	7722                	ld	a4,40(sp)
   1771c:	6306                	ld	t1,64(sp)
   1771e:	8daa                	mv	s11,a0
   17720:	24fd0b63          	beq	s10,a5,17976 <_svfprintf_r+0x15d6>
   17724:	04700793          	li	a5,71
   17728:	24fd0763          	beq	s10,a5,17976 <_svfprintf_r+0x15d6>
   1772c:	fdfd7c93          	andi	s9,s10,-33
   17730:	04600793          	li	a5,70
   17734:	00e504b3          	add	s1,a0,a4
   17738:	44fc8f63          	beq	s9,a5,17b96 <_svfprintf_r+0x17f6>
   1773c:	4601                	li	a2,0
   1773e:	4681                	li	a3,0
   17740:	854a                	mv	a0,s2
   17742:	85de                	mv	a1,s7
   17744:	f41a                	sd	t1,40(sp)
   17746:	153030ef          	jal	ra,1b098 <__eqtf2>
   1774a:	7322                	ld	t1,40(sp)
   1774c:	87a6                	mv	a5,s1
   1774e:	cd11                	beqz	a0,1776a <_svfprintf_r+0x13ca>
   17750:	77ae                	ld	a5,232(sp)
   17752:	0097fc63          	bgeu	a5,s1,1776a <_svfprintf_r+0x13ca>
   17756:	03000693          	li	a3,48
   1775a:	00178713          	addi	a4,a5,1
   1775e:	f5ba                	sd	a4,232(sp)
   17760:	00d78023          	sb	a3,0(a5)
   17764:	77ae                	ld	a5,232(sp)
   17766:	fe97eae3          	bltu	a5,s1,1775a <_svfprintf_r+0x13ba>
   1776a:	41b787bb          	subw	a5,a5,s11
   1776e:	f43e                	sd	a5,40(sp)
   17770:	47ee                	lw	a5,216(sp)
   17772:	04700713          	li	a4,71
   17776:	f0be                	sd	a5,96(sp)
   17778:	34ec8963          	beq	s9,a4,17aca <_svfprintf_r+0x172a>
   1777c:	04600713          	li	a4,70
   17780:	4aec8463          	beq	s9,a4,17c28 <_svfprintf_r+0x1888>
   17784:	fff78e9b          	addiw	t4,a5,-1
   17788:	cdf6                	sw	t4,216(sp)
   1778a:	06100713          	li	a4,97
   1778e:	68ed0063          	beq	s10,a4,17e0e <_svfprintf_r+0x1a6e>
   17792:	04100693          	li	a3,65
   17796:	05000713          	li	a4,80
   1779a:	34dd1263          	bne	s10,a3,17ade <_svfprintf_r+0x173e>
   1779e:	4685                	li	a3,1
   177a0:	0ee10023          	sb	a4,224(sp)
   177a4:	02b00713          	li	a4,43
   177a8:	000ed763          	bgez	t4,177b6 <_svfprintf_r+0x1416>
   177ac:	4e85                	li	t4,1
   177ae:	40fe8ebb          	subw	t4,t4,a5
   177b2:	02d00713          	li	a4,45
   177b6:	0ee100a3          	sb	a4,225(sp)
   177ba:	47a5                	li	a5,9
   177bc:	4dd7d063          	bge	a5,t4,17c7c <_svfprintf_r+0x18dc>
   177c0:	0ef10893          	addi	a7,sp,239
   177c4:	8646                	mv	a2,a7
   177c6:	45a9                	li	a1,10
   177c8:	06300f13          	li	t5,99
   177cc:	02bee7bb          	remw	a5,t4,a1
   177d0:	8532                	mv	a0,a2
   177d2:	8776                	mv	a4,t4
   177d4:	167d                	addi	a2,a2,-1
   177d6:	0307879b          	addiw	a5,a5,48
   177da:	fef50fa3          	sb	a5,-1(a0)
   177de:	02becebb          	divw	t4,t4,a1
   177e2:	feef45e3          	blt	t5,a4,177cc <_svfprintf_r+0x142c>
   177e6:	030e869b          	addiw	a3,t4,48
   177ea:	ffe50793          	addi	a5,a0,-2
   177ee:	fed60fa3          	sb	a3,-1(a2)
   177f2:	6317f163          	bgeu	a5,a7,17e14 <_svfprintf_r+0x1a74>
   177f6:	0e210713          	addi	a4,sp,226
   177fa:	0007c683          	lbu	a3,0(a5)
   177fe:	0785                	addi	a5,a5,1
   17800:	0705                	addi	a4,a4,1
   17802:	fed70fa3          	sb	a3,-1(a4)
   17806:	ff179ae3          	bne	a5,a7,177fa <_svfprintf_r+0x145a>
   1780a:	0f110793          	addi	a5,sp,241
   1780e:	0e210713          	addi	a4,sp,226
   17812:	8f89                	sub	a5,a5,a0
   17814:	97ba                	add	a5,a5,a4
   17816:	1198                	addi	a4,sp,224
   17818:	9f99                	subw	a5,a5,a4
   1781a:	e53e                	sd	a5,136(sp)
   1781c:	67aa                	ld	a5,136(sp)
   1781e:	76a2                	ld	a3,40(sp)
   17820:	4705                	li	a4,1
   17822:	00d78bbb          	addw	s7,a5,a3
   17826:	87de                	mv	a5,s7
   17828:	4ed75763          	bge	a4,a3,17d16 <_svfprintf_r+0x1976>
   1782c:	7766                	ld	a4,120(sp)
   1782e:	00e78bbb          	addw	s7,a5,a4
   17832:	67c6                	ld	a5,80(sp)
   17834:	fffbc913          	not	s2,s7
   17838:	43f95913          	srai	s2,s2,0x3f
   1783c:	bff7f493          	andi	s1,a5,-1025
   17840:	2481                	sext.w	s1,s1
   17842:	012bf933          	and	s2,s7,s2
   17846:	1004e493          	ori	s1,s1,256
   1784a:	2901                	sext.w	s2,s2
   1784c:	ec82                	sd	zero,88(sp)
   1784e:	f482                	sd	zero,104(sp)
   17850:	f082                	sd	zero,96(sp)
   17852:	77ca                	ld	a5,176(sp)
   17854:	28078963          	beqz	a5,17ae6 <_svfprintf_r+0x1746>
   17858:	02d00793          	li	a5,45
   1785c:	0cf107a3          	sb	a5,207(sp)
   17860:	4981                	li	s3,0
   17862:	2905                	addiw	s2,s2,1
   17864:	cadfe06f          	j	16510 <_svfprintf_r+0x170>
   17868:	f002                	sd	zero,32(sp)
   1786a:	57fd                	li	a5,-1
   1786c:	17fe                	slli	a5,a5,0x3f
   1786e:	00fbcbb3          	xor	s7,s7,a5
   17872:	02d00793          	li	a5,45
   17876:	f93e                	sd	a5,176(sp)
   17878:	bd99                	j	176ce <_svfprintf_r+0x132e>
   1787a:	77ee                	ld	a5,248(sp)
   1787c:	0a07cd63          	bltz	a5,17936 <_svfprintf_r+0x1596>
   17880:	0cf14783          	lbu	a5,207(sp)
   17884:	04700713          	li	a4,71
   17888:	37a75063          	bge	a4,s10,17be8 <_svfprintf_r+0x1848>
   1788c:	6871                	lui	a6,0x1c
   1788e:	6b080d93          	addi	s11,a6,1712 # 1c6b0 <__clzdi2+0x80>
   17892:	b311                	j	17596 <_svfprintf_r+0x11f6>
   17894:	0016861b          	addiw	a2,a3,1
   17898:	974e                	add	a4,a4,s3
   1789a:	01933023          	sd	s9,0(t1)
   1789e:	01333423          	sd	s3,8(t1)
   178a2:	ea3a                	sd	a4,272(sp)
   178a4:	10c12423          	sw	a2,264(sp)
   178a8:	479d                	li	a5,7
   178aa:	0ec7c263          	blt	a5,a2,1798e <_svfprintf_r+0x15ee>
   178ae:	0341                	addi	t1,t1,16
   178b0:	8cba                	mv	s9,a4
   178b2:	e44ff06f          	j	16ef6 <_svfprintf_r+0xb56>
   178b6:	6871                	lui	a6,0x1c
   178b8:	69880d93          	addi	s11,a6,1688 # 1c698 <__clzdi2+0x68>
   178bc:	b9e9                	j	17596 <_svfprintf_r+0x11f6>
   178be:	6522                	ld	a0,8(sp)
   178c0:	0210                	addi	a2,sp,256
   178c2:	85d2                	mv	a1,s4
   178c4:	484020ef          	jal	ra,19d48 <__ssprint_r>
   178c8:	c6051e63          	bnez	a0,16d44 <_svfprintf_r+0x9a4>
   178cc:	6cd2                	ld	s9,272(sp)
   178ce:	835a                	mv	t1,s6
   178d0:	e12ff06f          	j	16ee2 <_svfprintf_r+0xb42>
   178d4:	4b99                	li	s7,6
   178d6:	b1dd                	j	175bc <_svfprintf_r+0x121c>
   178d8:	6726                	ld	a4,72(sp)
   178da:	40f687bb          	subw	a5,a3,a5
   178de:	41b70bb3          	sub	s7,a4,s11
   178e2:	000b861b          	sext.w	a2,s7
   178e6:	8766                	mv	a4,s9
   178e8:	000b8c9b          	sext.w	s9,s7
   178ec:	e8c7d663          	bge	a5,a2,16f78 <_svfprintf_r+0xbd8>
   178f0:	00078c9b          	sext.w	s9,a5
   178f4:	e84ff06f          	j	16f78 <_svfprintf_r+0xbd8>
   178f8:	67c2                	ld	a5,16(sp)
   178fa:	00f71023          	sh	a5,0(a4)
   178fe:	a00ff06f          	j	16afe <_svfprintf_r+0x75e>
   17902:	1902                	slli	s2,s2,0x20
   17904:	02095913          	srli	s2,s2,0x20
   17908:	dc7fe06f          	j	166ce <_svfprintf_r+0x32e>
   1790c:	87ca                	mv	a5,s2
   1790e:	d63fe06f          	j	16670 <_svfprintf_r+0x2d0>
   17912:	1902                	slli	s2,s2,0x20
   17914:	02095913          	srli	s2,s2,0x20
   17918:	b0e5                	j	17200 <_svfprintf_r+0xe60>
   1791a:	1902                	slli	s2,s2,0x20
   1791c:	02095913          	srli	s2,s2,0x20
   17920:	ec3a                	sd	a4,24(sp)
   17922:	4785                	li	a5,1
   17924:	db5fe06f          	j	166d8 <_svfprintf_r+0x338>
   17928:	6522                	ld	a0,8(sp)
   1792a:	0210                	addi	a2,sp,256
   1792c:	85d2                	mv	a1,s4
   1792e:	41a020ef          	jal	ra,19d48 <__ssprint_r>
   17932:	cd1fe06f          	j	16602 <_svfprintf_r+0x262>
   17936:	02d00793          	li	a5,45
   1793a:	0cf107a3          	sb	a5,207(sp)
   1793e:	b799                	j	17884 <_svfprintf_r+0x14e4>
   17940:	6522                	ld	a0,8(sp)
   17942:	0210                	addi	a2,sp,256
   17944:	85d2                	mv	a1,s4
   17946:	402020ef          	jal	ra,19d48 <__ssprint_r>
   1794a:	be051d63          	bnez	a0,16d44 <_svfprintf_r+0x9a4>
   1794e:	466e                	lw	a2,216(sp)
   17950:	6752                	ld	a4,272(sp)
   17952:	10812583          	lw	a1,264(sp)
   17956:	835a                	mv	t1,s6
   17958:	b4065be3          	bgez	a2,174ae <_svfprintf_r+0x110e>
   1795c:	b155                	j	17600 <_svfprintf_r+0x1260>
   1795e:	6522                	ld	a0,8(sp)
   17960:	0019859b          	addiw	a1,s3,1
   17964:	f01a                	sd	t1,32(sp)
   17966:	b52fd0ef          	jal	ra,14cb8 <_malloc_r>
   1796a:	7302                	ld	t1,32(sp)
   1796c:	8daa                	mv	s11,a0
   1796e:	4e050d63          	beqz	a0,17e68 <_svfprintf_r+0x1ac8>
   17972:	f02a                	sd	a0,32(sp)
   17974:	b399                	j	176ba <_svfprintf_r+0x131a>
   17976:	67c6                	ld	a5,80(sp)
   17978:	8b85                	andi	a5,a5,1
   1797a:	14078363          	beqz	a5,17ac0 <_svfprintf_r+0x1720>
   1797e:	00ed84b3          	add	s1,s11,a4
   17982:	04700c93          	li	s9,71
   17986:	bb5d                	j	1773c <_svfprintf_r+0x139c>
   17988:	4999                	li	s3,6
   1798a:	e0ffe06f          	j	16798 <_svfprintf_r+0x3f8>
   1798e:	6522                	ld	a0,8(sp)
   17990:	0210                	addi	a2,sp,256
   17992:	85d2                	mv	a1,s4
   17994:	3b4020ef          	jal	ra,19d48 <__ssprint_r>
   17998:	ba051663          	bnez	a0,16d44 <_svfprintf_r+0x9a4>
   1799c:	6cd2                	ld	s9,272(sp)
   1799e:	835a                	mv	t1,s6
   179a0:	d56ff06f          	j	16ef6 <_svfprintf_r+0xb56>
   179a4:	0019871b          	addiw	a4,s3,1
   179a8:	4689                	li	a3,2
   179aa:	bb91                	j	176fe <_svfprintf_r+0x135e>
   179ac:	874e                	mv	a4,s3
   179ae:	468d                	li	a3,3
   179b0:	b3b9                	j	176fe <_svfprintf_r+0x135e>
   179b2:	85de                	mv	a1,s7
   179b4:	854a                	mv	a0,s2
   179b6:	e09a                	sd	t1,64(sp)
   179b8:	1ff040ef          	jal	ra,1c3b6 <__trunctfdf2>
   179bc:	09a8                	addi	a0,sp,216
   179be:	e1efe0ef          	jal	ra,15fdc <frexp>
   179c2:	131040ef          	jal	ra,1c2f2 <__extenddftf2>
   179c6:	67f5                	lui	a5,0x1d
   179c8:	9287b683          	ld	a3,-1752(a5) # 1c928 <blanks.1+0x20>
   179cc:	4601                	li	a2,0
   179ce:	0e5030ef          	jal	ra,1b2b2 <__multf3>
   179d2:	4601                	li	a2,0
   179d4:	4681                	li	a3,0
   179d6:	8baa                	mv	s7,a0
   179d8:	f42e                	sd	a1,40(sp)
   179da:	6be030ef          	jal	ra,1b098 <__eqtf2>
   179de:	6306                	ld	t1,64(sp)
   179e0:	e119                	bnez	a0,179e6 <_svfprintf_r+0x1646>
   179e2:	4785                	li	a5,1
   179e4:	cdbe                	sw	a5,216(sp)
   179e6:	67f1                	lui	a5,0x1c
   179e8:	6b878793          	addi	a5,a5,1720 # 1c6b8 <__clzdi2+0x88>
   179ec:	e4be                	sd	a5,72(sp)
   179ee:	6775                	lui	a4,0x1d
   179f0:	93873703          	ld	a4,-1736(a4) # 1c938 <blanks.1+0x30>
   179f4:	02099793          	slli	a5,s3,0x20
   179f8:	9381                	srli	a5,a5,0x20
   179fa:	0785                	addi	a5,a5,1
   179fc:	f53a                	sd	a4,168(sp)
   179fe:	97ee                	add	a5,a5,s11
   17a00:	0009871b          	sext.w	a4,s3
   17a04:	fd3a                	sd	a4,184(sp)
   17a06:	f0be                	sd	a5,96(sp)
   17a08:	8cee                	mv	s9,s11
   17a0a:	a801                	j	17a1a <_svfprintf_r+0x167a>
   17a0c:	4601                	li	a2,0
   17a0e:	4681                	li	a3,0
   17a10:	688030ef          	jal	ra,1b098 <__eqtf2>
   17a14:	6306                	ld	t1,64(sp)
   17a16:	30050863          	beqz	a0,17d26 <_svfprintf_r+0x1986>
   17a1a:	76aa                	ld	a3,168(sp)
   17a1c:	75a2                	ld	a1,40(sp)
   17a1e:	4601                	li	a2,0
   17a20:	855e                	mv	a0,s7
   17a22:	e09a                	sd	t1,64(sp)
   17a24:	08f030ef          	jal	ra,1b2b2 <__multf3>
   17a28:	8bae                	mv	s7,a1
   17a2a:	892a                	mv	s2,a0
   17a2c:	7e0040ef          	jal	ra,1c20c <__fixtfsi>
   17a30:	0005049b          	sext.w	s1,a0
   17a34:	8526                	mv	a0,s1
   17a36:	067040ef          	jal	ra,1c29c <__floatsitf>
   17a3a:	862a                	mv	a2,a0
   17a3c:	86ae                	mv	a3,a1
   17a3e:	854a                	mv	a0,s2
   17a40:	85de                	mv	a1,s7
   17a42:	693030ef          	jal	ra,1b8d4 <__subtf3>
   17a46:	67a6                	ld	a5,72(sp)
   17a48:	f4e6                	sd	s9,104(sp)
   17a4a:	0c85                	addi	s9,s9,1
   17a4c:	00978733          	add	a4,a5,s1
   17a50:	00074703          	lbu	a4,0(a4)
   17a54:	7786                	ld	a5,96(sp)
   17a56:	ecaa                	sd	a0,88(sp)
   17a58:	feec8fa3          	sb	a4,-1(s9)
   17a5c:	f42e                	sd	a1,40(sp)
   17a5e:	6306                	ld	t1,64(sp)
   17a60:	8baa                	mv	s7,a0
   17a62:	892e                	mv	s2,a1
   17a64:	fb9794e3          	bne	a5,s9,17a0c <_svfprintf_r+0x166c>
   17a68:	5bfd                	li	s7,-1
   17a6a:	6775                	lui	a4,0x1d
   17a6c:	94873783          	ld	a5,-1720(a4) # 1c948 <blanks.1+0x40>
   17a70:	6566                	ld	a0,88(sp)
   17a72:	4601                	li	a2,0
   17a74:	86be                	mv	a3,a5
   17a76:	85ca                	mv	a1,s2
   17a78:	e09a                	sd	t1,64(sp)
   17a7a:	f43e                	sd	a5,40(sp)
   17a7c:	6b6030ef          	jal	ra,1b132 <__getf2>
   17a80:	6306                	ld	t1,64(sp)
   17a82:	22a04163          	bgtz	a0,17ca4 <_svfprintf_r+0x1904>
   17a86:	76a2                	ld	a3,40(sp)
   17a88:	6566                	ld	a0,88(sp)
   17a8a:	4601                	li	a2,0
   17a8c:	85ca                	mv	a1,s2
   17a8e:	60a030ef          	jal	ra,1b098 <__eqtf2>
   17a92:	6306                	ld	t1,64(sp)
   17a94:	e501                	bnez	a0,17a9c <_svfprintf_r+0x16fc>
   17a96:	8885                	andi	s1,s1,1
   17a98:	20049663          	bnez	s1,17ca4 <_svfprintf_r+0x1904>
   17a9c:	001b871b          	addiw	a4,s7,1
   17aa0:	9766                	add	a4,a4,s9
   17aa2:	03000693          	li	a3,48
   17aa6:	220bcf63          	bltz	s7,17ce4 <_svfprintf_r+0x1944>
   17aaa:	0c85                	addi	s9,s9,1
   17aac:	fedc8fa3          	sb	a3,-1(s9)
   17ab0:	ff971de3          	bne	a4,s9,17aaa <_svfprintf_r+0x170a>
   17ab4:	41b707bb          	subw	a5,a4,s11
   17ab8:	f43e                	sd	a5,40(sp)
   17aba:	fdfd7c93          	andi	s9,s10,-33
   17abe:	b94d                	j	17770 <_svfprintf_r+0x13d0>
   17ac0:	772e                	ld	a4,232(sp)
   17ac2:	47ee                	lw	a5,216(sp)
   17ac4:	41b7073b          	subw	a4,a4,s11
   17ac8:	f43a                	sd	a4,40(sp)
   17aca:	5775                	li	a4,-3
   17acc:	f0be                	sd	a5,96(sp)
   17ace:	00e7c463          	blt	a5,a4,17ad6 <_svfprintf_r+0x1736>
   17ad2:	02f9d263          	bge	s3,a5,17af6 <_svfprintf_r+0x1756>
   17ad6:	fff78e9b          	addiw	t4,a5,-1
   17ada:	3d79                	addiw	s10,s10,-2
   17adc:	cdf6                	sw	t4,216(sp)
   17ade:	0ffd7713          	zext.b	a4,s10
   17ae2:	4681                	li	a3,0
   17ae4:	b975                	j	177a0 <_svfprintf_r+0x1400>
   17ae6:	0cf14783          	lbu	a5,207(sp)
   17aea:	4981                	li	s3,0
   17aec:	c399                	beqz	a5,17af2 <_svfprintf_r+0x1752>
   17aee:	bc5fe06f          	j	166b2 <_svfprintf_r+0x312>
   17af2:	a1ffe06f          	j	16510 <_svfprintf_r+0x170>
   17af6:	7722                	ld	a4,40(sp)
   17af8:	10e7c163          	blt	a5,a4,17bfa <_svfprintf_r+0x185a>
   17afc:	6746                	ld	a4,80(sp)
   17afe:	8bbe                	mv	s7,a5
   17b00:	8b05                	andi	a4,a4,1
   17b02:	c701                	beqz	a4,17b0a <_svfprintf_r+0x176a>
   17b04:	7766                	ld	a4,120(sp)
   17b06:	00f70bbb          	addw	s7,a4,a5
   17b0a:	6746                	ld	a4,80(sp)
   17b0c:	40077713          	andi	a4,a4,1024
   17b10:	c319                	beqz	a4,17b16 <_svfprintf_r+0x1776>
   17b12:	24f04f63          	bgtz	a5,17d70 <_svfprintf_r+0x19d0>
   17b16:	fffbc913          	not	s2,s7
   17b1a:	43f95913          	srai	s2,s2,0x3f
   17b1e:	748a                	ld	s1,160(sp)
   17b20:	012bf933          	and	s2,s7,s2
   17b24:	2901                	sext.w	s2,s2
   17b26:	06700d13          	li	s10,103
   17b2a:	ec82                	sd	zero,88(sp)
   17b2c:	f482                	sd	zero,104(sp)
   17b2e:	b315                	j	17852 <_svfprintf_r+0x14b2>
   17b30:	6522                	ld	a0,8(sp)
   17b32:	0210                	addi	a2,sp,256
   17b34:	85d2                	mv	a1,s4
   17b36:	212020ef          	jal	ra,19d48 <__ssprint_r>
   17b3a:	a0051563          	bnez	a0,16d44 <_svfprintf_r+0x9a4>
   17b3e:	77c6                	ld	a5,112(sp)
   17b40:	6cd2                	ld	s9,272(sp)
   17b42:	835a                	mv	t1,s6
   17b44:	0007c603          	lbu	a2,0(a5)
   17b48:	9db2                	add	s11,s11,a2
   17b4a:	857ff06f          	j	173a0 <_svfprintf_r+0x1000>
   17b4e:	6522                	ld	a0,8(sp)
   17b50:	0210                	addi	a2,sp,256
   17b52:	85d2                	mv	a1,s4
   17b54:	1f4020ef          	jal	ra,19d48 <__ssprint_r>
   17b58:	9e051663          	bnez	a0,16d44 <_svfprintf_r+0x9a4>
   17b5c:	47ee                	lw	a5,216(sp)
   17b5e:	6752                	ld	a4,272(sp)
   17b60:	835a                	mv	t1,s6
   17b62:	bd8ff06f          	j	16f3a <_svfprintf_r+0xb9a>
   17b66:	02d00793          	li	a5,45
   17b6a:	0cf107a3          	sb	a5,207(sp)
   17b6e:	bc29                	j	17588 <_svfprintf_r+0x11e8>
   17b70:	0cf14783          	lbu	a5,207(sp)
   17b74:	ec66                	sd	s9,24(sp)
   17b76:	ec82                	sd	zero,88(sp)
   17b78:	f482                	sd	zero,104(sp)
   17b7a:	f082                	sd	zero,96(sp)
   17b7c:	894e                	mv	s2,s3
   17b7e:	8bce                	mv	s7,s3
   17b80:	4981                	li	s3,0
   17b82:	c399                	beqz	a5,17b88 <_svfprintf_r+0x17e8>
   17b84:	b2ffe06f          	j	166b2 <_svfprintf_r+0x312>
   17b88:	989fe06f          	j	16510 <_svfprintf_r+0x170>
   17b8c:	66f5                	lui	a3,0x1d
   17b8e:	fd868693          	addi	a3,a3,-40 # 1cfd8 <blanks.1>
   17b92:	a40ff06f          	j	16dd2 <_svfprintf_r+0xa32>
   17b96:	00054683          	lbu	a3,0(a0)
   17b9a:	03000793          	li	a5,48
   17b9e:	00f68563          	beq	a3,a5,17ba8 <_svfprintf_r+0x1808>
   17ba2:	476e                	lw	a4,216(sp)
   17ba4:	94ba                	add	s1,s1,a4
   17ba6:	be59                	j	1773c <_svfprintf_r+0x139c>
   17ba8:	4601                	li	a2,0
   17baa:	4681                	li	a3,0
   17bac:	854a                	mv	a0,s2
   17bae:	85de                	mv	a1,s7
   17bb0:	f41a                	sd	t1,40(sp)
   17bb2:	e0ba                	sd	a4,64(sp)
   17bb4:	4e4030ef          	jal	ra,1b098 <__eqtf2>
   17bb8:	7322                	ld	t1,40(sp)
   17bba:	d565                	beqz	a0,17ba2 <_svfprintf_r+0x1802>
   17bbc:	6706                	ld	a4,64(sp)
   17bbe:	4785                	li	a5,1
   17bc0:	40e7873b          	subw	a4,a5,a4
   17bc4:	cdba                	sw	a4,216(sp)
   17bc6:	94ba                	add	s1,s1,a4
   17bc8:	be95                	j	1773c <_svfprintf_r+0x139c>
   17bca:	6522                	ld	a0,8(sp)
   17bcc:	0210                	addi	a2,sp,256
   17bce:	85d2                	mv	a1,s4
   17bd0:	178020ef          	jal	ra,19d48 <__ssprint_r>
   17bd4:	96051863          	bnez	a0,16d44 <_svfprintf_r+0x9a4>
   17bd8:	47ee                	lw	a5,216(sp)
   17bda:	76a2                	ld	a3,40(sp)
   17bdc:	6752                	ld	a4,272(sp)
   17bde:	835a                	mv	t1,s6
   17be0:	40f687bb          	subw	a5,a3,a5
   17be4:	b94ff06f          	j	16f78 <_svfprintf_r+0xbd8>
   17be8:	6871                	lui	a6,0x1c
   17bea:	6a880d93          	addi	s11,a6,1704 # 1c6a8 <__clzdi2+0x78>
   17bee:	b265                	j	17596 <_svfprintf_r+0x11f6>
   17bf0:	66f5                	lui	a3,0x1d
   17bf2:	fd868693          	addi	a3,a3,-40 # 1cfd8 <blanks.1>
   17bf6:	a80ff06f          	j	16e76 <_svfprintf_r+0xad6>
   17bfa:	7722                	ld	a4,40(sp)
   17bfc:	77e6                	ld	a5,120(sp)
   17bfe:	06700d13          	li	s10,103
   17c02:	00e78bbb          	addw	s7,a5,a4
   17c06:	7706                	ld	a4,96(sp)
   17c08:	1ce05e63          	blez	a4,17de4 <_svfprintf_r+0x1a44>
   17c0c:	67c6                	ld	a5,80(sp)
   17c0e:	4007f793          	andi	a5,a5,1024
   17c12:	16079163          	bnez	a5,17d74 <_svfprintf_r+0x19d4>
   17c16:	fffbc913          	not	s2,s7
   17c1a:	43f95913          	srai	s2,s2,0x3f
   17c1e:	012bf933          	and	s2,s7,s2
   17c22:	748a                	ld	s1,160(sp)
   17c24:	2901                	sext.w	s2,s2
   17c26:	b711                	j	17b2a <_svfprintf_r+0x178a>
   17c28:	67c6                	ld	a5,80(sp)
   17c2a:	7706                	ld	a4,96(sp)
   17c2c:	8b85                	andi	a5,a5,1
   17c2e:	00f9e7b3          	or	a5,s3,a5
   17c32:	1ee05463          	blez	a4,17e1a <_svfprintf_r+0x1a7a>
   17c36:	1c079463          	bnez	a5,17dfe <_svfprintf_r+0x1a5e>
   17c3a:	7b86                	ld	s7,96(sp)
   17c3c:	06600d13          	li	s10,102
   17c40:	b7f1                	j	17c0c <_svfprintf_r+0x186c>
   17c42:	8ca6                	mv	s9,s1
   17c44:	91cff06f          	j	16d60 <_svfprintf_r+0x9c0>
   17c48:	2585                	addiw	a1,a1,1
   17c4a:	975e                	add	a4,a4,s7
   17c4c:	01933023          	sd	s9,0(t1)
   17c50:	01733423          	sd	s7,8(t1)
   17c54:	ea3a                	sd	a4,272(sp)
   17c56:	10b12423          	sw	a1,264(sp)
   17c5a:	479d                	li	a5,7
   17c5c:	84b7d8e3          	bge	a5,a1,174ac <_svfprintf_r+0x110c>
   17c60:	6522                	ld	a0,8(sp)
   17c62:	0210                	addi	a2,sp,256
   17c64:	85d2                	mv	a1,s4
   17c66:	0e2020ef          	jal	ra,19d48 <__ssprint_r>
   17c6a:	c119                	beqz	a0,17c70 <_svfprintf_r+0x18d0>
   17c6c:	8d8ff06f          	j	16d44 <_svfprintf_r+0x9a4>
   17c70:	6752                	ld	a4,272(sp)
   17c72:	10812583          	lw	a1,264(sp)
   17c76:	835a                	mv	t1,s6
   17c78:	837ff06f          	j	174ae <_svfprintf_r+0x110e>
   17c7c:	0e210793          	addi	a5,sp,226
   17c80:	e699                	bnez	a3,17c8e <_svfprintf_r+0x18ee>
   17c82:	03000793          	li	a5,48
   17c86:	0ef10123          	sb	a5,226(sp)
   17c8a:	0e310793          	addi	a5,sp,227
   17c8e:	0418                	addi	a4,sp,512
   17c90:	030e8e9b          	addiw	t4,t4,48
   17c94:	40e78733          	sub	a4,a5,a4
   17c98:	01d78023          	sb	t4,0(a5)
   17c9c:	1217079b          	addiw	a5,a4,289
   17ca0:	e53e                	sd	a5,136(sp)
   17ca2:	bead                	j	1781c <_svfprintf_r+0x147c>
   17ca4:	77a6                	ld	a5,104(sp)
   17ca6:	8766                	mv	a4,s9
   17ca8:	f5be                	sd	a5,232(sp)
   17caa:	67a6                	ld	a5,72(sp)
   17cac:	fffcc683          	lbu	a3,-1(s9)
   17cb0:	00f7c603          	lbu	a2,15(a5)
   17cb4:	00d61e63          	bne	a2,a3,17cd0 <_svfprintf_r+0x1930>
   17cb8:	03000593          	li	a1,48
   17cbc:	feb70fa3          	sb	a1,-1(a4)
   17cc0:	772e                	ld	a4,232(sp)
   17cc2:	fff70693          	addi	a3,a4,-1
   17cc6:	f5b6                	sd	a3,232(sp)
   17cc8:	fff74683          	lbu	a3,-1(a4)
   17ccc:	fed608e3          	beq	a2,a3,17cbc <_svfprintf_r+0x191c>
   17cd0:	0016861b          	addiw	a2,a3,1
   17cd4:	03900593          	li	a1,57
   17cd8:	0ff67613          	zext.b	a2,a2
   17cdc:	00b68663          	beq	a3,a1,17ce8 <_svfprintf_r+0x1948>
   17ce0:	fec70fa3          	sb	a2,-1(a4)
   17ce4:	8766                	mv	a4,s9
   17ce6:	b3f9                	j	17ab4 <_svfprintf_r+0x1714>
   17ce8:	67a6                	ld	a5,72(sp)
   17cea:	00a7c603          	lbu	a2,10(a5)
   17cee:	fec70fa3          	sb	a2,-1(a4)
   17cf2:	bfcd                	j	17ce4 <_svfprintf_r+0x1944>
   17cf4:	00098463          	beqz	s3,17cfc <_svfprintf_r+0x195c>
   17cf8:	aa1fe06f          	j	16798 <_svfprintf_r+0x3f8>
   17cfc:	4985                	li	s3,1
   17cfe:	a9bfe06f          	j	16798 <_svfprintf_r+0x3f8>
   17d02:	6722                	ld	a4,8(sp)
   17d04:	47b1                	li	a5,12
   17d06:	c31c                	sw	a5,0(a4)
   17d08:	57fd                	li	a5,-1
   17d0a:	e83e                	sd	a5,16(sp)
   17d0c:	905fe06f          	j	16610 <_svfprintf_r+0x270>
   17d10:	ec3a                	sd	a4,24(sp)
   17d12:	84eff06f          	j	16d60 <_svfprintf_r+0x9c0>
   17d16:	6746                	ld	a4,80(sp)
   17d18:	8b05                	andi	a4,a4,1
   17d1a:	b0070ce3          	beqz	a4,17832 <_svfprintf_r+0x1492>
   17d1e:	b639                	j	1782c <_svfprintf_r+0x148c>
   17d20:	c31c                	sw	a5,0(a4)
   17d22:	dddfe06f          	j	16afe <_svfprintf_r+0x75e>
   17d26:	77ea                	ld	a5,184(sp)
   17d28:	00fd8bbb          	addw	s7,s11,a5
   17d2c:	419b8bbb          	subw	s7,s7,s9
   17d30:	bb2d                	j	17a6a <_svfprintf_r+0x16ca>
   17d32:	85de                	mv	a1,s7
   17d34:	854a                	mv	a0,s2
   17d36:	e09a                	sd	t1,64(sp)
   17d38:	67e040ef          	jal	ra,1c3b6 <__trunctfdf2>
   17d3c:	09a8                	addi	a0,sp,216
   17d3e:	a9efe0ef          	jal	ra,15fdc <frexp>
   17d42:	5b0040ef          	jal	ra,1c2f2 <__extenddftf2>
   17d46:	67f5                	lui	a5,0x1d
   17d48:	9287b683          	ld	a3,-1752(a5) # 1c928 <blanks.1+0x20>
   17d4c:	4601                	li	a2,0
   17d4e:	564030ef          	jal	ra,1b2b2 <__multf3>
   17d52:	4601                	li	a2,0
   17d54:	4681                	li	a3,0
   17d56:	8baa                	mv	s7,a0
   17d58:	f42e                	sd	a1,40(sp)
   17d5a:	33e030ef          	jal	ra,1b098 <__eqtf2>
   17d5e:	6306                	ld	t1,64(sp)
   17d60:	e119                	bnez	a0,17d66 <_svfprintf_r+0x19c6>
   17d62:	4785                	li	a5,1
   17d64:	cdbe                	sw	a5,216(sp)
   17d66:	67f1                	lui	a5,0x1c
   17d68:	6d078793          	addi	a5,a5,1744 # 1c6d0 <__clzdi2+0xa0>
   17d6c:	e4be                	sd	a5,72(sp)
   17d6e:	b141                	j	179ee <_svfprintf_r+0x164e>
   17d70:	06700d13          	li	s10,103
   17d74:	77c6                	ld	a5,112(sp)
   17d76:	0ff00713          	li	a4,255
   17d7a:	ec82                	sd	zero,88(sp)
   17d7c:	0007c783          	lbu	a5,0(a5)
   17d80:	f482                	sd	zero,104(sp)
   17d82:	02e78863          	beq	a5,a4,17db2 <_svfprintf_r+0x1a12>
   17d86:	0ff00693          	li	a3,255
   17d8a:	7606                	ld	a2,96(sp)
   17d8c:	0007871b          	sext.w	a4,a5
   17d90:	02c7d163          	bge	a5,a2,17db2 <_svfprintf_r+0x1a12>
   17d94:	75c6                	ld	a1,112(sp)
   17d96:	40e6073b          	subw	a4,a2,a4
   17d9a:	f0ba                	sd	a4,96(sp)
   17d9c:	0015c783          	lbu	a5,1(a1)
   17da0:	cb9d                	beqz	a5,17dd6 <_svfprintf_r+0x1a36>
   17da2:	7726                	ld	a4,104(sp)
   17da4:	2705                	addiw	a4,a4,1
   17da6:	f4ba                	sd	a4,104(sp)
   17da8:	00158713          	addi	a4,a1,1
   17dac:	f8ba                	sd	a4,112(sp)
   17dae:	fcd79ee3          	bne	a5,a3,17d8a <_svfprintf_r+0x19ea>
   17db2:	7726                	ld	a4,104(sp)
   17db4:	67e6                	ld	a5,88(sp)
   17db6:	748a                	ld	s1,160(sp)
   17db8:	9fb9                	addw	a5,a5,a4
   17dba:	674a                	ld	a4,144(sp)
   17dbc:	02e787bb          	mulw	a5,a5,a4
   17dc0:	017787bb          	addw	a5,a5,s7
   17dc4:	00078b9b          	sext.w	s7,a5
   17dc8:	fffbc713          	not	a4,s7
   17dcc:	977d                	srai	a4,a4,0x3f
   17dce:	8ff9                	and	a5,a5,a4
   17dd0:	0007891b          	sext.w	s2,a5
   17dd4:	bcbd                	j	17852 <_svfprintf_r+0x14b2>
   17dd6:	6766                	ld	a4,88(sp)
   17dd8:	77c6                	ld	a5,112(sp)
   17dda:	2705                	addiw	a4,a4,1
   17ddc:	0007c783          	lbu	a5,0(a5)
   17de0:	ecba                	sd	a4,88(sp)
   17de2:	b7f1                	j	17dae <_svfprintf_r+0x1a0e>
   17de4:	40eb87bb          	subw	a5,s7,a4
   17de8:	2785                	addiw	a5,a5,1
   17dea:	00078b9b          	sext.w	s7,a5
   17dee:	fffbc713          	not	a4,s7
   17df2:	977d                	srai	a4,a4,0x3f
   17df4:	8ff9                	and	a5,a5,a4
   17df6:	748a                	ld	s1,160(sp)
   17df8:	0007891b          	sext.w	s2,a5
   17dfc:	b33d                	j	17b2a <_svfprintf_r+0x178a>
   17dfe:	77e6                	ld	a5,120(sp)
   17e00:	06600d13          	li	s10,102
   17e04:	00e78bbb          	addw	s7,a5,a4
   17e08:	013b8bbb          	addw	s7,s7,s3
   17e0c:	b501                	j	17c0c <_svfprintf_r+0x186c>
   17e0e:	07000713          	li	a4,112
   17e12:	b271                	j	1779e <_svfprintf_r+0x13fe>
   17e14:	4789                	li	a5,2
   17e16:	e53e                	sd	a5,136(sp)
   17e18:	b411                	j	1781c <_svfprintf_r+0x147c>
   17e1a:	e799                	bnez	a5,17e28 <_svfprintf_r+0x1a88>
   17e1c:	748a                	ld	s1,160(sp)
   17e1e:	4905                	li	s2,1
   17e20:	06600d13          	li	s10,102
   17e24:	4b85                	li	s7,1
   17e26:	b311                	j	17b2a <_svfprintf_r+0x178a>
   17e28:	77e6                	ld	a5,120(sp)
   17e2a:	748a                	ld	s1,160(sp)
   17e2c:	06600d13          	li	s10,102
   17e30:	2785                	addiw	a5,a5,1
   17e32:	013787bb          	addw	a5,a5,s3
   17e36:	00078b9b          	sext.w	s7,a5
   17e3a:	fffbc713          	not	a4,s7
   17e3e:	977d                	srai	a4,a4,0x3f
   17e40:	8ff9                	and	a5,a5,a4
   17e42:	0007891b          	sext.w	s2,a5
   17e46:	b1d5                	j	17b2a <_svfprintf_r+0x178a>
   17e48:	66e2                	ld	a3,24(sp)
   17e4a:	4298                	lw	a4,0(a3)
   17e4c:	00868d13          	addi	s10,a3,8
   17e50:	86ba                	mv	a3,a4
   17e52:	00075363          	bgez	a4,17e58 <_svfprintf_r+0x1ab8>
   17e56:	56fd                	li	a3,-1
   17e58:	00144e03          	lbu	t3,1(s0)
   17e5c:	0006899b          	sext.w	s3,a3
   17e60:	ec6a                	sd	s10,24(sp)
   17e62:	843e                	mv	s0,a5
   17e64:	e36fe06f          	j	1649a <_svfprintf_r+0xfa>
   17e68:	010a5783          	lhu	a5,16(s4)
   17e6c:	0407e793          	ori	a5,a5,64
   17e70:	00fa1823          	sh	a5,16(s4)
   17e74:	f8efe06f          	j	16602 <_svfprintf_r+0x262>

0000000000017e78 <__sprint_r.part.0>:
   17e78:	0ac5a783          	lw	a5,172(a1)
   17e7c:	715d                	addi	sp,sp,-80
   17e7e:	ec56                	sd	s5,24(sp)
   17e80:	83b5                	srli	a5,a5,0xd
   17e82:	e486                	sd	ra,72(sp)
   17e84:	e0a2                	sd	s0,64(sp)
   17e86:	fc26                	sd	s1,56(sp)
   17e88:	f84a                	sd	s2,48(sp)
   17e8a:	f44e                	sd	s3,40(sp)
   17e8c:	f052                	sd	s4,32(sp)
   17e8e:	e85a                	sd	s6,16(sp)
   17e90:	e45e                	sd	s7,8(sp)
   17e92:	8b85                	andi	a5,a5,1
   17e94:	8ab2                	mv	s5,a2
   17e96:	c3c1                	beqz	a5,17f16 <__sprint_r.part.0+0x9e>
   17e98:	6a1c                	ld	a5,16(a2)
   17e9a:	00063b03          	ld	s6,0(a2)
   17e9e:	892e                	mv	s2,a1
   17ea0:	89aa                	mv	s3,a0
   17ea2:	5a7d                	li	s4,-1
   17ea4:	c7bd                	beqz	a5,17f12 <__sprint_r.part.0+0x9a>
   17ea6:	008b3483          	ld	s1,8(s6)
   17eaa:	000b3403          	ld	s0,0(s6)
   17eae:	8089                	srli	s1,s1,0x2
   17eb0:	00048b9b          	sext.w	s7,s1
   17eb4:	05705863          	blez	s7,17f04 <__sprint_r.part.0+0x8c>
   17eb8:	34fd                	addiw	s1,s1,-1
   17eba:	02049793          	slli	a5,s1,0x20
   17ebe:	01e7d493          	srli	s1,a5,0x1e
   17ec2:	00440793          	addi	a5,s0,4
   17ec6:	94be                	add	s1,s1,a5
   17ec8:	a019                	j	17ece <__sprint_r.part.0+0x56>
   17eca:	02848b63          	beq	s1,s0,17f00 <__sprint_r.part.0+0x88>
   17ece:	400c                	lw	a1,0(s0)
   17ed0:	864a                	mv	a2,s2
   17ed2:	854e                	mv	a0,s3
   17ed4:	100010ef          	jal	ra,18fd4 <_fputwc_r>
   17ed8:	2501                	sext.w	a0,a0
   17eda:	0411                	addi	s0,s0,4
   17edc:	ff4517e3          	bne	a0,s4,17eca <__sprint_r.part.0+0x52>
   17ee0:	557d                	li	a0,-1
   17ee2:	60a6                	ld	ra,72(sp)
   17ee4:	6406                	ld	s0,64(sp)
   17ee6:	000ab823          	sd	zero,16(s5)
   17eea:	000aa423          	sw	zero,8(s5)
   17eee:	74e2                	ld	s1,56(sp)
   17ef0:	7942                	ld	s2,48(sp)
   17ef2:	79a2                	ld	s3,40(sp)
   17ef4:	7a02                	ld	s4,32(sp)
   17ef6:	6ae2                	ld	s5,24(sp)
   17ef8:	6b42                	ld	s6,16(sp)
   17efa:	6ba2                	ld	s7,8(sp)
   17efc:	6161                	addi	sp,sp,80
   17efe:	8082                	ret
   17f00:	010ab783          	ld	a5,16(s5)
   17f04:	0b8a                	slli	s7,s7,0x2
   17f06:	417787b3          	sub	a5,a5,s7
   17f0a:	00fab823          	sd	a5,16(s5)
   17f0e:	0b41                	addi	s6,s6,16
   17f10:	fbd9                	bnez	a5,17ea6 <__sprint_r.part.0+0x2e>
   17f12:	4501                	li	a0,0
   17f14:	b7f9                	j	17ee2 <__sprint_r.part.0+0x6a>
   17f16:	16c010ef          	jal	ra,19082 <__sfvwrite_r>
   17f1a:	b7e1                	j	17ee2 <__sprint_r.part.0+0x6a>

0000000000017f1c <__sprint_r>:
   17f1c:	6a18                	ld	a4,16(a2)
   17f1e:	c311                	beqz	a4,17f22 <__sprint_r+0x6>
   17f20:	bfa1                	j	17e78 <__sprint_r.part.0>
   17f22:	00062423          	sw	zero,8(a2)
   17f26:	4501                	li	a0,0
   17f28:	8082                	ret

0000000000017f2a <_vfiprintf_r>:
   17f2a:	7105                	addi	sp,sp,-480
   17f2c:	f756                	sd	s5,424(sp)
   17f2e:	eb62                	sd	s8,400(sp)
   17f30:	feee                	sd	s11,376(sp)
   17f32:	ef86                	sd	ra,472(sp)
   17f34:	eba2                	sd	s0,464(sp)
   17f36:	e7a6                	sd	s1,456(sp)
   17f38:	e3ca                	sd	s2,448(sp)
   17f3a:	ff4e                	sd	s3,440(sp)
   17f3c:	fb52                	sd	s4,432(sp)
   17f3e:	f35a                	sd	s6,416(sp)
   17f40:	ef5e                	sd	s7,408(sp)
   17f42:	e766                	sd	s9,392(sp)
   17f44:	e36a                	sd	s10,384(sp)
   17f46:	e42a                	sd	a0,8(sp)
   17f48:	8aae                	mv	s5,a1
   17f4a:	8db2                	mv	s11,a2
   17f4c:	8c36                	mv	s8,a3
   17f4e:	c501                	beqz	a0,17f56 <_vfiprintf_r+0x2c>
   17f50:	493c                	lw	a5,80(a0)
   17f52:	36078163          	beqz	a5,182b4 <_vfiprintf_r+0x38a>
   17f56:	010a9783          	lh	a5,16(s5)
   17f5a:	03279713          	slli	a4,a5,0x32
   17f5e:	02074163          	bltz	a4,17f80 <_vfiprintf_r+0x56>
   17f62:	0acaa703          	lw	a4,172(s5)
   17f66:	6689                	lui	a3,0x2
   17f68:	8fd5                	or	a5,a5,a3
   17f6a:	76f9                	lui	a3,0xffffe
   17f6c:	0107979b          	slliw	a5,a5,0x10
   17f70:	16fd                	addi	a3,a3,-1 # ffffffffffffdfff <__BSS_END__+0xfffffffffffde88f>
   17f72:	4107d79b          	sraiw	a5,a5,0x10
   17f76:	8f75                	and	a4,a4,a3
   17f78:	00fa9823          	sh	a5,16(s5)
   17f7c:	0aeaa623          	sw	a4,172(s5)
   17f80:	0087f713          	andi	a4,a5,8
   17f84:	c761                	beqz	a4,1804c <_vfiprintf_r+0x122>
   17f86:	018ab703          	ld	a4,24(s5)
   17f8a:	c369                	beqz	a4,1804c <_vfiprintf_r+0x122>
   17f8c:	8be9                	andi	a5,a5,26
   17f8e:	4729                	li	a4,10
   17f90:	0ce78a63          	beq	a5,a4,18064 <_vfiprintf_r+0x13a>
   17f94:	67f5                	lui	a5,0x1d
   17f96:	1984                	addi	s1,sp,240
   17f98:	fe878793          	addi	a5,a5,-24 # 1cfe8 <blanks.1+0x10>
   17f9c:	6bf5                	lui	s7,0x1d
   17f9e:	f8a6                	sd	s1,112(sp)
   17fa0:	e102                	sd	zero,128(sp)
   17fa2:	dc82                	sw	zero,120(sp)
   17fa4:	8726                	mv	a4,s1
   17fa6:	f002                	sd	zero,32(sp)
   17fa8:	e482                	sd	zero,72(sp)
   17faa:	e882                	sd	zero,80(sp)
   17fac:	ec82                	sd	zero,88(sp)
   17fae:	e802                	sd	zero,16(sp)
   17fb0:	f43e                	sd	a5,40(sp)
   17fb2:	4441                	li	s0,16
   17fb4:	158b8b93          	addi	s7,s7,344 # 1d158 <zeroes.0>
   17fb8:	000dc783          	lbu	a5,0(s11)
   17fbc:	cfe1                	beqz	a5,18094 <_vfiprintf_r+0x16a>
   17fbe:	896e                	mv	s2,s11
   17fc0:	02500693          	li	a3,37
   17fc4:	26d78c63          	beq	a5,a3,1823c <_vfiprintf_r+0x312>
   17fc8:	00194783          	lbu	a5,1(s2)
   17fcc:	0905                	addi	s2,s2,1
   17fce:	fbfd                	bnez	a5,17fc4 <_vfiprintf_r+0x9a>
   17fd0:	41b909bb          	subw	s3,s2,s11
   17fd4:	0c098063          	beqz	s3,18094 <_vfiprintf_r+0x16a>
   17fd8:	57e6                	lw	a5,120(sp)
   17fda:	668a                	ld	a3,128(sp)
   17fdc:	01b73023          	sd	s11,0(a4)
   17fe0:	0017861b          	addiw	a2,a5,1
   17fe4:	96ce                	add	a3,a3,s3
   17fe6:	01373423          	sd	s3,8(a4)
   17fea:	e136                	sd	a3,128(sp)
   17fec:	dcb2                	sw	a2,120(sp)
   17fee:	479d                	li	a5,7
   17ff0:	0741                	addi	a4,a4,16
   17ff2:	00c7db63          	bge	a5,a2,18008 <_vfiprintf_r+0xde>
   17ff6:	080685e3          	beqz	a3,18880 <_vfiprintf_r+0x956>
   17ffa:	6522                	ld	a0,8(sp)
   17ffc:	1890                	addi	a2,sp,112
   17ffe:	85d6                	mv	a1,s5
   18000:	e79ff0ef          	jal	ra,17e78 <__sprint_r.part.0>
   18004:	e959                	bnez	a0,1809a <_vfiprintf_r+0x170>
   18006:	8726                	mv	a4,s1
   18008:	66c2                	ld	a3,16(sp)
   1800a:	00094783          	lbu	a5,0(s2)
   1800e:	013686bb          	addw	a3,a3,s3
   18012:	e836                	sd	a3,16(sp)
   18014:	c3c1                	beqz	a5,18094 <_vfiprintf_r+0x16a>
   18016:	00194783          	lbu	a5,1(s2)
   1801a:	00190d93          	addi	s11,s2,1
   1801e:	060103a3          	sb	zero,103(sp)
   18022:	56fd                	li	a3,-1
   18024:	4a01                	li	s4,0
   18026:	4c81                	li	s9,0
   18028:	05a00913          	li	s2,90
   1802c:	0d85                	addi	s11,s11,1
   1802e:	2781                	sext.w	a5,a5
   18030:	fe07861b          	addiw	a2,a5,-32
   18034:	0006059b          	sext.w	a1,a2
   18038:	0cb96263          	bltu	s2,a1,180fc <_vfiprintf_r+0x1d2>
   1803c:	02061593          	slli	a1,a2,0x20
   18040:	01e5d613          	srli	a2,a1,0x1e
   18044:	75a2                	ld	a1,40(sp)
   18046:	962e                	add	a2,a2,a1
   18048:	4210                	lw	a2,0(a2)
   1804a:	8602                	jr	a2
   1804c:	6522                	ld	a0,8(sp)
   1804e:	85d6                	mv	a1,s5
   18050:	f39f90ef          	jal	ra,11f88 <__swsetup_r>
   18054:	30051fe3          	bnez	a0,18b72 <_vfiprintf_r+0xc48>
   18058:	010a9783          	lh	a5,16(s5)
   1805c:	4729                	li	a4,10
   1805e:	8be9                	andi	a5,a5,26
   18060:	f2e79ae3          	bne	a5,a4,17f94 <_vfiprintf_r+0x6a>
   18064:	012a9783          	lh	a5,18(s5)
   18068:	f207c6e3          	bltz	a5,17f94 <_vfiprintf_r+0x6a>
   1806c:	645e                	ld	s0,464(sp)
   1806e:	6522                	ld	a0,8(sp)
   18070:	60fe                	ld	ra,472(sp)
   18072:	64be                	ld	s1,456(sp)
   18074:	691e                	ld	s2,448(sp)
   18076:	79fa                	ld	s3,440(sp)
   18078:	7a5a                	ld	s4,432(sp)
   1807a:	7b1a                	ld	s6,416(sp)
   1807c:	6bfa                	ld	s7,408(sp)
   1807e:	6cba                	ld	s9,392(sp)
   18080:	6d1a                	ld	s10,384(sp)
   18082:	86e2                	mv	a3,s8
   18084:	866e                	mv	a2,s11
   18086:	6c5a                	ld	s8,400(sp)
   18088:	7df6                	ld	s11,376(sp)
   1808a:	85d6                	mv	a1,s5
   1808c:	7aba                	ld	s5,424(sp)
   1808e:	613d                	addi	sp,sp,480
   18090:	31d0006f          	j	18bac <__sbprintf>
   18094:	678a                	ld	a5,128(sp)
   18096:	28079de3          	bnez	a5,18b30 <_vfiprintf_r+0xc06>
   1809a:	010ad783          	lhu	a5,16(s5)
   1809e:	0407f793          	andi	a5,a5,64
   180a2:	2c0798e3          	bnez	a5,18b72 <_vfiprintf_r+0xc48>
   180a6:	60fe                	ld	ra,472(sp)
   180a8:	645e                	ld	s0,464(sp)
   180aa:	6542                	ld	a0,16(sp)
   180ac:	64be                	ld	s1,456(sp)
   180ae:	691e                	ld	s2,448(sp)
   180b0:	79fa                	ld	s3,440(sp)
   180b2:	7a5a                	ld	s4,432(sp)
   180b4:	7aba                	ld	s5,424(sp)
   180b6:	7b1a                	ld	s6,416(sp)
   180b8:	6bfa                	ld	s7,408(sp)
   180ba:	6c5a                	ld	s8,400(sp)
   180bc:	6cba                	ld	s9,392(sp)
   180be:	6d1a                	ld	s10,384(sp)
   180c0:	7df6                	ld	s11,376(sp)
   180c2:	613d                	addi	sp,sp,480
   180c4:	8082                	ret
   180c6:	4a01                	li	s4,0
   180c8:	48a5                	li	a7,9
   180ca:	000dc583          	lbu	a1,0(s11)
   180ce:	002a161b          	slliw	a2,s4,0x2
   180d2:	0146063b          	addw	a2,a2,s4
   180d6:	fd07879b          	addiw	a5,a5,-48
   180da:	0016161b          	slliw	a2,a2,0x1
   180de:	fd05851b          	addiw	a0,a1,-48
   180e2:	00c78a3b          	addw	s4,a5,a2
   180e6:	0d85                	addi	s11,s11,1
   180e8:	0005879b          	sext.w	a5,a1
   180ec:	fca8ffe3          	bgeu	a7,a0,180ca <_vfiprintf_r+0x1a0>
   180f0:	fe07861b          	addiw	a2,a5,-32
   180f4:	0006059b          	sext.w	a1,a2
   180f8:	f4b972e3          	bgeu	s2,a1,1803c <_vfiprintf_r+0x112>
   180fc:	dfc1                	beqz	a5,18094 <_vfiprintf_r+0x16a>
   180fe:	08f10423          	sb	a5,136(sp)
   18102:	060103a3          	sb	zero,103(sp)
   18106:	4985                	li	s3,1
   18108:	4905                	li	s2,1
   1810a:	08810b13          	addi	s6,sp,136
   1810e:	4681                	li	a3,0
   18110:	002cff13          	andi	t5,s9,2
   18114:	000f0363          	beqz	t5,1811a <_vfiprintf_r+0x1f0>
   18118:	2989                	addiw	s3,s3,2
   1811a:	5666                	lw	a2,120(sp)
   1811c:	084cff93          	andi	t6,s9,132
   18120:	678a                	ld	a5,128(sp)
   18122:	0016051b          	addiw	a0,a2,1
   18126:	85aa                	mv	a1,a0
   18128:	000f9663          	bnez	t6,18134 <_vfiprintf_r+0x20a>
   1812c:	413a0d3b          	subw	s10,s4,s3
   18130:	5fa04863          	bgtz	s10,18720 <_vfiprintf_r+0x7f6>
   18134:	06714583          	lbu	a1,103(sp)
   18138:	cd99                	beqz	a1,18156 <_vfiprintf_r+0x22c>
   1813a:	06710613          	addi	a2,sp,103
   1813e:	0785                	addi	a5,a5,1
   18140:	e310                	sd	a2,0(a4)
   18142:	4605                	li	a2,1
   18144:	e710                	sd	a2,8(a4)
   18146:	e13e                	sd	a5,128(sp)
   18148:	dcaa                	sw	a0,120(sp)
   1814a:	461d                	li	a2,7
   1814c:	54a64f63          	blt	a2,a0,186aa <_vfiprintf_r+0x780>
   18150:	862a                	mv	a2,a0
   18152:	0741                	addi	a4,a4,16
   18154:	2505                	addiw	a0,a0,1
   18156:	020f0d63          	beqz	t5,18190 <_vfiprintf_r+0x266>
   1815a:	10b0                	addi	a2,sp,104
   1815c:	0789                	addi	a5,a5,2
   1815e:	e310                	sd	a2,0(a4)
   18160:	4609                	li	a2,2
   18162:	e710                	sd	a2,8(a4)
   18164:	e13e                	sd	a5,128(sp)
   18166:	dcaa                	sw	a0,120(sp)
   18168:	461d                	li	a2,7
   1816a:	56a65c63          	bge	a2,a0,186e2 <_vfiprintf_r+0x7b8>
   1816e:	70078d63          	beqz	a5,18888 <_vfiprintf_r+0x95e>
   18172:	6522                	ld	a0,8(sp)
   18174:	1890                	addi	a2,sp,112
   18176:	85d6                	mv	a1,s5
   18178:	f836                	sd	a3,48(sp)
   1817a:	ec7e                	sd	t6,24(sp)
   1817c:	cfdff0ef          	jal	ra,17e78 <__sprint_r.part.0>
   18180:	fd09                	bnez	a0,1809a <_vfiprintf_r+0x170>
   18182:	5666                	lw	a2,120(sp)
   18184:	678a                	ld	a5,128(sp)
   18186:	76c2                	ld	a3,48(sp)
   18188:	6fe2                	ld	t6,24(sp)
   1818a:	8726                	mv	a4,s1
   1818c:	0016051b          	addiw	a0,a2,1
   18190:	08000593          	li	a1,128
   18194:	3ebf8363          	beq	t6,a1,1857a <_vfiprintf_r+0x650>
   18198:	41268d3b          	subw	s10,a3,s2
   1819c:	49a04363          	bgtz	s10,18622 <_vfiprintf_r+0x6f8>
   181a0:	97ca                	add	a5,a5,s2
   181a2:	01673023          	sd	s6,0(a4)
   181a6:	01273423          	sd	s2,8(a4)
   181aa:	e13e                	sd	a5,128(sp)
   181ac:	dcaa                	sw	a0,120(sp)
   181ae:	469d                	li	a3,7
   181b0:	3ca6d363          	bge	a3,a0,18576 <_vfiprintf_r+0x64c>
   181b4:	60078063          	beqz	a5,187b4 <_vfiprintf_r+0x88a>
   181b8:	6522                	ld	a0,8(sp)
   181ba:	1890                	addi	a2,sp,112
   181bc:	85d6                	mv	a1,s5
   181be:	cbbff0ef          	jal	ra,17e78 <__sprint_r.part.0>
   181c2:	ec051ce3          	bnez	a0,1809a <_vfiprintf_r+0x170>
   181c6:	678a                	ld	a5,128(sp)
   181c8:	8726                	mv	a4,s1
   181ca:	004cf313          	andi	t1,s9,4
   181ce:	00030663          	beqz	t1,181da <_vfiprintf_r+0x2b0>
   181d2:	413a093b          	subw	s2,s4,s3
   181d6:	5f204963          	bgtz	s2,187c8 <_vfiprintf_r+0x89e>
   181da:	8752                	mv	a4,s4
   181dc:	013a5363          	bge	s4,s3,181e2 <_vfiprintf_r+0x2b8>
   181e0:	874e                	mv	a4,s3
   181e2:	66c2                	ld	a3,16(sp)
   181e4:	9f35                	addw	a4,a4,a3
   181e6:	e83a                	sd	a4,16(sp)
   181e8:	4a079563          	bnez	a5,18692 <_vfiprintf_r+0x768>
   181ec:	dc82                	sw	zero,120(sp)
   181ee:	8726                	mv	a4,s1
   181f0:	b3e1                	j	17fb8 <_vfiprintf_r+0x8e>
   181f2:	010ce313          	ori	t1,s9,16
   181f6:	000dc783          	lbu	a5,0(s11)
   181fa:	00030c9b          	sext.w	s9,t1
   181fe:	b53d                	j	1802c <_vfiprintf_r+0x102>
   18200:	010ce313          	ori	t1,s9,16
   18204:	00030c9b          	sext.w	s9,t1
   18208:	020cf793          	andi	a5,s9,32
   1820c:	008c0d13          	addi	s10,s8,8
   18210:	cf8d                	beqz	a5,1824a <_vfiprintf_r+0x320>
   18212:	000c3783          	ld	a5,0(s8)
   18216:	89be                	mv	s3,a5
   18218:	0407c963          	bltz	a5,1826a <_vfiprintf_r+0x340>
   1821c:	57fd                	li	a5,-1
   1821e:	06f68363          	beq	a3,a5,18284 <_vfiprintf_r+0x35a>
   18222:	f7fcf313          	andi	t1,s9,-129
   18226:	00030c9b          	sext.w	s9,t1
   1822a:	04099d63          	bnez	s3,18284 <_vfiprintf_r+0x35a>
   1822e:	120691e3          	bnez	a3,18b50 <_vfiprintf_r+0xc26>
   18232:	4901                	li	s2,0
   18234:	8c6a                	mv	s8,s10
   18236:	0ec10b13          	addi	s6,sp,236
   1823a:	a0bd                	j	182a8 <_vfiprintf_r+0x37e>
   1823c:	41b909bb          	subw	s3,s2,s11
   18240:	d8099ce3          	bnez	s3,17fd8 <_vfiprintf_r+0xae>
   18244:	00094783          	lbu	a5,0(s2)
   18248:	b3f1                	j	18014 <_vfiprintf_r+0xea>
   1824a:	010cf793          	andi	a5,s9,16
   1824e:	f3f1                	bnez	a5,18212 <_vfiprintf_r+0x2e8>
   18250:	040cf793          	andi	a5,s9,64
   18254:	000c2983          	lw	s3,0(s8)
   18258:	060788e3          	beqz	a5,18ac8 <_vfiprintf_r+0xb9e>
   1825c:	0109999b          	slliw	s3,s3,0x10
   18260:	4109d99b          	sraiw	s3,s3,0x10
   18264:	87ce                	mv	a5,s3
   18266:	fa07dbe3          	bgez	a5,1821c <_vfiprintf_r+0x2f2>
   1826a:	02d00793          	li	a5,45
   1826e:	06f103a3          	sb	a5,103(sp)
   18272:	57fd                	li	a5,-1
   18274:	413009b3          	neg	s3,s3
   18278:	00f68663          	beq	a3,a5,18284 <_vfiprintf_r+0x35a>
   1827c:	f7fcf313          	andi	t1,s9,-129
   18280:	00030c9b          	sext.w	s9,t1
   18284:	47a5                	li	a5,9
   18286:	6337ef63          	bltu	a5,s3,188c4 <_vfiprintf_r+0x99a>
   1828a:	0309879b          	addiw	a5,s3,48
   1828e:	0ff7f793          	zext.b	a5,a5
   18292:	8c6a                	mv	s8,s10
   18294:	0ef105a3          	sb	a5,235(sp)
   18298:	0006899b          	sext.w	s3,a3
   1829c:	00d04363          	bgtz	a3,182a2 <_vfiprintf_r+0x378>
   182a0:	4985                	li	s3,1
   182a2:	4905                	li	s2,1
   182a4:	0eb10b13          	addi	s6,sp,235
   182a8:	06714783          	lbu	a5,103(sp)
   182ac:	e60782e3          	beqz	a5,18110 <_vfiprintf_r+0x1e6>
   182b0:	2985                	addiw	s3,s3,1
   182b2:	bdb9                	j	18110 <_vfiprintf_r+0x1e6>
   182b4:	ad2fa0ef          	jal	ra,12586 <__sinit>
   182b8:	b979                	j	17f56 <_vfiprintf_r+0x2c>
   182ba:	000c3b03          	ld	s6,0(s8)
   182be:	060103a3          	sb	zero,103(sp)
   182c2:	0c21                	addi	s8,s8,8
   182c4:	7c0b0963          	beqz	s6,18a96 <_vfiprintf_r+0xb6c>
   182c8:	57fd                	li	a5,-1
   182ca:	72f68763          	beq	a3,a5,189f8 <_vfiprintf_r+0xace>
   182ce:	8636                	mv	a2,a3
   182d0:	4581                	li	a1,0
   182d2:	855a                	mv	a0,s6
   182d4:	f83a                	sd	a4,48(sp)
   182d6:	ec36                	sd	a3,24(sp)
   182d8:	fcdfc0ef          	jal	ra,152a4 <memchr>
   182dc:	66e2                	ld	a3,24(sp)
   182de:	7742                	ld	a4,48(sp)
   182e0:	04050fe3          	beqz	a0,18b3e <_vfiprintf_r+0xc14>
   182e4:	4165093b          	subw	s2,a0,s6
   182e8:	fff94993          	not	s3,s2
   182ec:	43f9d993          	srai	s3,s3,0x3f
   182f0:	0129f9b3          	and	s3,s3,s2
   182f4:	4681                	li	a3,0
   182f6:	bf4d                	j	182a8 <_vfiprintf_r+0x37e>
   182f8:	000c2783          	lw	a5,0(s8)
   182fc:	060103a3          	sb	zero,103(sp)
   18300:	0c21                	addi	s8,s8,8
   18302:	08f10423          	sb	a5,136(sp)
   18306:	4985                	li	s3,1
   18308:	4905                	li	s2,1
   1830a:	08810b13          	addi	s6,sp,136
   1830e:	b501                	j	1810e <_vfiprintf_r+0x1e4>
   18310:	000c2a03          	lw	s4,0(s8)
   18314:	0c21                	addi	s8,s8,8
   18316:	080a5e63          	bgez	s4,183b2 <_vfiprintf_r+0x488>
   1831a:	41400a3b          	negw	s4,s4
   1831e:	004ce313          	ori	t1,s9,4
   18322:	000dc783          	lbu	a5,0(s11)
   18326:	00030c9b          	sext.w	s9,t1
   1832a:	b309                	j	1802c <_vfiprintf_r+0x102>
   1832c:	02b00613          	li	a2,43
   18330:	000dc783          	lbu	a5,0(s11)
   18334:	06c103a3          	sb	a2,103(sp)
   18338:	b9d5                	j	1802c <_vfiprintf_r+0x102>
   1833a:	080ce313          	ori	t1,s9,128
   1833e:	000dc783          	lbu	a5,0(s11)
   18342:	00030c9b          	sext.w	s9,t1
   18346:	b1dd                	j	1802c <_vfiprintf_r+0x102>
   18348:	000dc783          	lbu	a5,0(s11)
   1834c:	02a00693          	li	a3,42
   18350:	001d8613          	addi	a2,s11,1
   18354:	02d787e3          	beq	a5,a3,18b82 <_vfiprintf_r+0xc58>
   18358:	fd07859b          	addiw	a1,a5,-48
   1835c:	48a5                	li	a7,9
   1835e:	8db2                	mv	s11,a2
   18360:	4681                	li	a3,0
   18362:	4525                	li	a0,9
   18364:	ccb8e6e3          	bltu	a7,a1,18030 <_vfiprintf_r+0x106>
   18368:	000dc783          	lbu	a5,0(s11)
   1836c:	0026961b          	slliw	a2,a3,0x2
   18370:	9eb1                	addw	a3,a3,a2
   18372:	0016969b          	slliw	a3,a3,0x1
   18376:	9ead                	addw	a3,a3,a1
   18378:	fd07859b          	addiw	a1,a5,-48
   1837c:	0d85                	addi	s11,s11,1
   1837e:	feb575e3          	bgeu	a0,a1,18368 <_vfiprintf_r+0x43e>
   18382:	b17d                	j	18030 <_vfiprintf_r+0x106>
   18384:	69a2                	ld	s3,8(sp)
   18386:	f83a                	sd	a4,48(sp)
   18388:	ec36                	sd	a3,24(sp)
   1838a:	854e                	mv	a0,s3
   1838c:	f84fc0ef          	jal	ra,14b10 <_localeconv_r>
   18390:	651c                	ld	a5,8(a0)
   18392:	853e                	mv	a0,a5
   18394:	ecbe                	sd	a5,88(sp)
   18396:	f09fd0ef          	jal	ra,1629e <strlen>
   1839a:	87aa                	mv	a5,a0
   1839c:	854e                	mv	a0,s3
   1839e:	e8be                	sd	a5,80(sp)
   183a0:	89be                	mv	s3,a5
   183a2:	f6efc0ef          	jal	ra,14b10 <_localeconv_r>
   183a6:	6910                	ld	a2,16(a0)
   183a8:	66e2                	ld	a3,24(sp)
   183aa:	7742                	ld	a4,48(sp)
   183ac:	e4b2                	sd	a2,72(sp)
   183ae:	58099363          	bnez	s3,18934 <_vfiprintf_r+0xa0a>
   183b2:	000dc783          	lbu	a5,0(s11)
   183b6:	b99d                	j	1802c <_vfiprintf_r+0x102>
   183b8:	001ce313          	ori	t1,s9,1
   183bc:	000dc783          	lbu	a5,0(s11)
   183c0:	00030c9b          	sext.w	s9,t1
   183c4:	b1a5                	j	1802c <_vfiprintf_r+0x102>
   183c6:	06714603          	lbu	a2,103(sp)
   183ca:	000dc783          	lbu	a5,0(s11)
   183ce:	c4061fe3          	bnez	a2,1802c <_vfiprintf_r+0x102>
   183d2:	02000613          	li	a2,32
   183d6:	06c103a3          	sb	a2,103(sp)
   183da:	b989                	j	1802c <_vfiprintf_r+0x102>
   183dc:	010ce793          	ori	a5,s9,16
   183e0:	2781                	sext.w	a5,a5
   183e2:	0207f613          	andi	a2,a5,32
   183e6:	008c0513          	addi	a0,s8,8
   183ea:	e609                	bnez	a2,183f4 <_vfiprintf_r+0x4ca>
   183ec:	0107f613          	andi	a2,a5,16
   183f0:	56060063          	beqz	a2,18950 <_vfiprintf_r+0xa26>
   183f4:	000c3603          	ld	a2,0(s8)
   183f8:	bff7f313          	andi	t1,a5,-1025
   183fc:	060103a3          	sb	zero,103(sp)
   18400:	55fd                	li	a1,-1
   18402:	00030c9b          	sext.w	s9,t1
   18406:	8c2a                	mv	s8,a0
   18408:	0ab68263          	beq	a3,a1,184ac <_vfiprintf_r+0x582>
   1840c:	b7f7f793          	andi	a5,a5,-1153
   18410:	2781                	sext.w	a5,a5
   18412:	64061b63          	bnez	a2,18a68 <_vfiprintf_r+0xb3e>
   18416:	8966                	mv	s2,s9
   18418:	8cbe                	mv	s9,a5
   1841a:	e2d1                	bnez	a3,1849e <_vfiprintf_r+0x574>
   1841c:	48061f63          	bnez	a2,188ba <_vfiprintf_r+0x990>
   18420:	00197913          	andi	s2,s2,1
   18424:	4e090f63          	beqz	s2,18922 <_vfiprintf_r+0x9f8>
   18428:	03000793          	li	a5,48
   1842c:	0ef105a3          	sb	a5,235(sp)
   18430:	89ca                	mv	s3,s2
   18432:	0eb10b13          	addi	s6,sp,235
   18436:	bd8d                	j	182a8 <_vfiprintf_r+0x37e>
   18438:	000dc783          	lbu	a5,0(s11)
   1843c:	06c00613          	li	a2,108
   18440:	64c78263          	beq	a5,a2,18a84 <_vfiprintf_r+0xb5a>
   18444:	010ce313          	ori	t1,s9,16
   18448:	00030c9b          	sext.w	s9,t1
   1844c:	b6c5                	j	1802c <_vfiprintf_r+0x102>
   1844e:	000dc783          	lbu	a5,0(s11)
   18452:	06800613          	li	a2,104
   18456:	60c78e63          	beq	a5,a2,18a72 <_vfiprintf_r+0xb48>
   1845a:	040ce313          	ori	t1,s9,64
   1845e:	00030c9b          	sext.w	s9,t1
   18462:	b6e9                	j	1802c <_vfiprintf_r+0x102>
   18464:	010ce913          	ori	s2,s9,16
   18468:	2901                	sext.w	s2,s2
   1846a:	02097793          	andi	a5,s2,32
   1846e:	008c0d13          	addi	s10,s8,8
   18472:	e789                	bnez	a5,1847c <_vfiprintf_r+0x552>
   18474:	01097793          	andi	a5,s2,16
   18478:	4e078563          	beqz	a5,18962 <_vfiprintf_r+0xa38>
   1847c:	000c3983          	ld	s3,0(s8)
   18480:	060103a3          	sb	zero,103(sp)
   18484:	57fd                	li	a5,-1
   18486:	8cca                	mv	s9,s2
   18488:	def68ee3          	beq	a3,a5,18284 <_vfiprintf_r+0x35a>
   1848c:	f7f97313          	andi	t1,s2,-129
   18490:	00030c9b          	sext.w	s9,t1
   18494:	de0998e3          	bnez	s3,18284 <_vfiprintf_r+0x35a>
   18498:	8c6a                	mv	s8,s10
   1849a:	4605                	li	a2,1
   1849c:	d2c1                	beqz	a3,1841c <_vfiprintf_r+0x4f2>
   1849e:	4785                	li	a5,1
   184a0:	6af60963          	beq	a2,a5,18b52 <_vfiprintf_r+0xc28>
   184a4:	4789                	li	a5,2
   184a6:	60f60363          	beq	a2,a5,18aac <_vfiprintf_r+0xb82>
   184aa:	4601                	li	a2,0
   184ac:	0ec10913          	addi	s2,sp,236
   184b0:	8b4a                	mv	s6,s2
   184b2:	00767793          	andi	a5,a2,7
   184b6:	03078793          	addi	a5,a5,48
   184ba:	fefb0fa3          	sb	a5,-1(s6)
   184be:	820d                	srli	a2,a2,0x3
   184c0:	85da                	mv	a1,s6
   184c2:	1b7d                	addi	s6,s6,-1
   184c4:	f67d                	bnez	a2,184b2 <_vfiprintf_r+0x588>
   184c6:	001cf613          	andi	a2,s9,1
   184ca:	24060263          	beqz	a2,1870e <_vfiprintf_r+0x7e4>
   184ce:	03000613          	li	a2,48
   184d2:	22c78e63          	beq	a5,a2,1870e <_vfiprintf_r+0x7e4>
   184d6:	15f9                	addi	a1,a1,-2
   184d8:	40b9093b          	subw	s2,s2,a1
   184dc:	fecb0fa3          	sb	a2,-1(s6)
   184e0:	0009099b          	sext.w	s3,s2
   184e4:	48d94e63          	blt	s2,a3,18980 <_vfiprintf_r+0xa56>
   184e8:	8b2e                	mv	s6,a1
   184ea:	bb7d                	j	182a8 <_vfiprintf_r+0x37e>
   184ec:	020ce313          	ori	t1,s9,32
   184f0:	000dc783          	lbu	a5,0(s11)
   184f4:	00030c9b          	sext.w	s9,t1
   184f8:	be15                	j	1802c <_vfiprintf_r+0x102>
   184fa:	77e1                	lui	a5,0xffff8
   184fc:	8307c793          	xori	a5,a5,-2000
   18500:	06f11423          	sh	a5,104(sp)
   18504:	67f1                	lui	a5,0x1c
   18506:	002ce313          	ori	t1,s9,2
   1850a:	6d078793          	addi	a5,a5,1744 # 1c6d0 <__clzdi2+0xa0>
   1850e:	000c3603          	ld	a2,0(s8)
   18512:	00030c9b          	sext.w	s9,t1
   18516:	0c21                	addi	s8,s8,8
   18518:	f03e                	sd	a5,32(sp)
   1851a:	060103a3          	sb	zero,103(sp)
   1851e:	57fd                	li	a5,-1
   18520:	1cf68963          	beq	a3,a5,186f2 <_vfiprintf_r+0x7c8>
   18524:	f7fcf793          	andi	a5,s9,-129
   18528:	2781                	sext.w	a5,a5
   1852a:	1c061063          	bnez	a2,186ea <_vfiprintf_r+0x7c0>
   1852e:	8966                	mv	s2,s9
   18530:	4609                	li	a2,2
   18532:	8cbe                	mv	s9,a5
   18534:	b5dd                	j	1841a <_vfiprintf_r+0x4f0>
   18536:	020cf793          	andi	a5,s9,32
   1853a:	000c3683          	ld	a3,0(s8)
   1853e:	e38d                	bnez	a5,18560 <_vfiprintf_r+0x636>
   18540:	010cf793          	andi	a5,s9,16
   18544:	ef91                	bnez	a5,18560 <_vfiprintf_r+0x636>
   18546:	040cf793          	andi	a5,s9,64
   1854a:	5c079063          	bnez	a5,18b0a <_vfiprintf_r+0xbe0>
   1854e:	200cf313          	andi	t1,s9,512
   18552:	67c2                	ld	a5,16(sp)
   18554:	62030363          	beqz	t1,18b7a <_vfiprintf_r+0xc50>
   18558:	00f68023          	sb	a5,0(a3)
   1855c:	0c21                	addi	s8,s8,8
   1855e:	bca9                	j	17fb8 <_vfiprintf_r+0x8e>
   18560:	67c2                	ld	a5,16(sp)
   18562:	0c21                	addi	s8,s8,8
   18564:	e29c                	sd	a5,0(a3)
   18566:	bc89                	j	17fb8 <_vfiprintf_r+0x8e>
   18568:	4705                	li	a4,1
   1856a:	dcba                	sw	a4,120(sp)
   1856c:	87ca                	mv	a5,s2
   1856e:	f9da                	sd	s6,240(sp)
   18570:	fdca                	sd	s2,248(sp)
   18572:	e14a                	sd	s2,128(sp)
   18574:	8726                	mv	a4,s1
   18576:	0741                	addi	a4,a4,16
   18578:	b989                	j	181ca <_vfiprintf_r+0x2a0>
   1857a:	413a0d3b          	subw	s10,s4,s3
   1857e:	c1a05de3          	blez	s10,18198 <_vfiprintf_r+0x26e>
   18582:	45c1                	li	a1,16
   18584:	5fa5d163          	bge	a1,s10,18b66 <_vfiprintf_r+0xc3c>
   18588:	65f5                	lui	a1,0x1d
   1858a:	15858593          	addi	a1,a1,344 # 1d158 <zeroes.0>
   1858e:	ec2e                	sd	a1,24(sp)
   18590:	4ec1                	li	t4,16
   18592:	4f1d                	li	t5,7
   18594:	a801                	j	185a4 <_vfiprintf_r+0x67a>
   18596:	0026059b          	addiw	a1,a2,2
   1859a:	0741                	addi	a4,a4,16
   1859c:	862a                	mv	a2,a0
   1859e:	3d41                	addiw	s10,s10,-16
   185a0:	05aed363          	bge	t4,s10,185e6 <_vfiprintf_r+0x6bc>
   185a4:	6562                	ld	a0,24(sp)
   185a6:	0016059b          	addiw	a1,a2,1
   185aa:	07c1                	addi	a5,a5,16
   185ac:	e308                	sd	a0,0(a4)
   185ae:	01d73423          	sd	t4,8(a4)
   185b2:	e13e                	sd	a5,128(sp)
   185b4:	0005851b          	sext.w	a0,a1
   185b8:	dcae                	sw	a1,120(sp)
   185ba:	fcaf5ee3          	bge	t5,a0,18596 <_vfiprintf_r+0x66c>
   185be:	c3f5                	beqz	a5,186a2 <_vfiprintf_r+0x778>
   185c0:	6522                	ld	a0,8(sp)
   185c2:	1890                	addi	a2,sp,112
   185c4:	85d6                	mv	a1,s5
   185c6:	f836                	sd	a3,48(sp)
   185c8:	8b1ff0ef          	jal	ra,17e78 <__sprint_r.part.0>
   185cc:	ac0517e3          	bnez	a0,1809a <_vfiprintf_r+0x170>
   185d0:	5666                	lw	a2,120(sp)
   185d2:	4ec1                	li	t4,16
   185d4:	3d41                	addiw	s10,s10,-16
   185d6:	678a                	ld	a5,128(sp)
   185d8:	76c2                	ld	a3,48(sp)
   185da:	8726                	mv	a4,s1
   185dc:	0016059b          	addiw	a1,a2,1
   185e0:	4f1d                	li	t5,7
   185e2:	fdaec1e3          	blt	t4,s10,185a4 <_vfiprintf_r+0x67a>
   185e6:	6662                	ld	a2,24(sp)
   185e8:	97ea                	add	a5,a5,s10
   185ea:	01a73423          	sd	s10,8(a4)
   185ee:	e310                	sd	a2,0(a4)
   185f0:	e13e                	sd	a5,128(sp)
   185f2:	dcae                	sw	a1,120(sp)
   185f4:	461d                	li	a2,7
   185f6:	32b65a63          	bge	a2,a1,1892a <_vfiprintf_r+0xa00>
   185fa:	4e078c63          	beqz	a5,18af2 <_vfiprintf_r+0xbc8>
   185fe:	6522                	ld	a0,8(sp)
   18600:	1890                	addi	a2,sp,112
   18602:	85d6                	mv	a1,s5
   18604:	ec36                	sd	a3,24(sp)
   18606:	873ff0ef          	jal	ra,17e78 <__sprint_r.part.0>
   1860a:	a80518e3          	bnez	a0,1809a <_vfiprintf_r+0x170>
   1860e:	66e2                	ld	a3,24(sp)
   18610:	5666                	lw	a2,120(sp)
   18612:	678a                	ld	a5,128(sp)
   18614:	41268d3b          	subw	s10,a3,s2
   18618:	8726                	mv	a4,s1
   1861a:	0016051b          	addiw	a0,a2,1
   1861e:	b9a051e3          	blez	s10,181a0 <_vfiprintf_r+0x276>
   18622:	4da45363          	bge	s0,s10,18ae8 <_vfiprintf_r+0xbbe>
   18626:	ec5e                	sd	s7,24(sp)
   18628:	4e9d                	li	t4,7
   1862a:	a801                	j	1863a <_vfiprintf_r+0x710>
   1862c:	0026051b          	addiw	a0,a2,2
   18630:	0741                	addi	a4,a4,16
   18632:	8672                	mv	a2,t3
   18634:	3d41                	addiw	s10,s10,-16
   18636:	03a45d63          	bge	s0,s10,18670 <_vfiprintf_r+0x746>
   1863a:	00160e1b          	addiw	t3,a2,1
   1863e:	07c1                	addi	a5,a5,16
   18640:	01773023          	sd	s7,0(a4)
   18644:	e700                	sd	s0,8(a4)
   18646:	e13e                	sd	a5,128(sp)
   18648:	dcf2                	sw	t3,120(sp)
   1864a:	ffced1e3          	bge	t4,t3,1862c <_vfiprintf_r+0x702>
   1864e:	cf95                	beqz	a5,1868a <_vfiprintf_r+0x760>
   18650:	6522                	ld	a0,8(sp)
   18652:	1890                	addi	a2,sp,112
   18654:	85d6                	mv	a1,s5
   18656:	823ff0ef          	jal	ra,17e78 <__sprint_r.part.0>
   1865a:	a40510e3          	bnez	a0,1809a <_vfiprintf_r+0x170>
   1865e:	5666                	lw	a2,120(sp)
   18660:	3d41                	addiw	s10,s10,-16
   18662:	678a                	ld	a5,128(sp)
   18664:	8726                	mv	a4,s1
   18666:	0016051b          	addiw	a0,a2,1
   1866a:	4e9d                	li	t4,7
   1866c:	fda447e3          	blt	s0,s10,1863a <_vfiprintf_r+0x710>
   18670:	66e2                	ld	a3,24(sp)
   18672:	97ea                	add	a5,a5,s10
   18674:	01a73423          	sd	s10,8(a4)
   18678:	e314                	sd	a3,0(a4)
   1867a:	e13e                	sd	a5,128(sp)
   1867c:	dcaa                	sw	a0,120(sp)
   1867e:	469d                	li	a3,7
   18680:	1ea6c263          	blt	a3,a0,18864 <_vfiprintf_r+0x93a>
   18684:	0741                	addi	a4,a4,16
   18686:	2505                	addiw	a0,a0,1
   18688:	be21                	j	181a0 <_vfiprintf_r+0x276>
   1868a:	4505                	li	a0,1
   1868c:	4601                	li	a2,0
   1868e:	8726                	mv	a4,s1
   18690:	b755                	j	18634 <_vfiprintf_r+0x70a>
   18692:	6522                	ld	a0,8(sp)
   18694:	1890                	addi	a2,sp,112
   18696:	85d6                	mv	a1,s5
   18698:	fe0ff0ef          	jal	ra,17e78 <__sprint_r.part.0>
   1869c:	b40508e3          	beqz	a0,181ec <_vfiprintf_r+0x2c2>
   186a0:	baed                	j	1809a <_vfiprintf_r+0x170>
   186a2:	4585                	li	a1,1
   186a4:	4601                	li	a2,0
   186a6:	8726                	mv	a4,s1
   186a8:	bddd                	j	1859e <_vfiprintf_r+0x674>
   186aa:	c785                	beqz	a5,186d2 <_vfiprintf_r+0x7a8>
   186ac:	6522                	ld	a0,8(sp)
   186ae:	1890                	addi	a2,sp,112
   186b0:	85d6                	mv	a1,s5
   186b2:	fc36                	sd	a3,56(sp)
   186b4:	f87e                	sd	t6,48(sp)
   186b6:	ec7a                	sd	t5,24(sp)
   186b8:	fc0ff0ef          	jal	ra,17e78 <__sprint_r.part.0>
   186bc:	9c051fe3          	bnez	a0,1809a <_vfiprintf_r+0x170>
   186c0:	5666                	lw	a2,120(sp)
   186c2:	678a                	ld	a5,128(sp)
   186c4:	76e2                	ld	a3,56(sp)
   186c6:	7fc2                	ld	t6,48(sp)
   186c8:	6f62                	ld	t5,24(sp)
   186ca:	8726                	mv	a4,s1
   186cc:	0016051b          	addiw	a0,a2,1
   186d0:	b459                	j	18156 <_vfiprintf_r+0x22c>
   186d2:	2a0f0263          	beqz	t5,18976 <_vfiprintf_r+0xa4c>
   186d6:	10bc                	addi	a5,sp,104
   186d8:	f9be                	sd	a5,240(sp)
   186da:	4789                	li	a5,2
   186dc:	fdbe                	sd	a5,248(sp)
   186de:	4505                	li	a0,1
   186e0:	8726                	mv	a4,s1
   186e2:	862a                	mv	a2,a0
   186e4:	0741                	addi	a4,a4,16
   186e6:	2505                	addiw	a0,a0,1
   186e8:	b465                	j	18190 <_vfiprintf_r+0x266>
   186ea:	8cbe                	mv	s9,a5
   186ec:	4789                	li	a5,2
   186ee:	da078fe3          	beqz	a5,184ac <_vfiprintf_r+0x582>
   186f2:	0ec10913          	addi	s2,sp,236
   186f6:	8b4a                	mv	s6,s2
   186f8:	7582                	ld	a1,32(sp)
   186fa:	00f67793          	andi	a5,a2,15
   186fe:	1b7d                	addi	s6,s6,-1
   18700:	97ae                	add	a5,a5,a1
   18702:	0007c783          	lbu	a5,0(a5)
   18706:	8211                	srli	a2,a2,0x4
   18708:	00fb0023          	sb	a5,0(s6)
   1870c:	f675                	bnez	a2,186f8 <_vfiprintf_r+0x7ce>
   1870e:	4169093b          	subw	s2,s2,s6
   18712:	0009099b          	sext.w	s3,s2
   18716:	b8d959e3          	bge	s2,a3,182a8 <_vfiprintf_r+0x37e>
   1871a:	0006899b          	sext.w	s3,a3
   1871e:	b669                	j	182a8 <_vfiprintf_r+0x37e>
   18720:	4e41                	li	t3,16
   18722:	43ae5363          	bge	t3,s10,18b48 <_vfiprintf_r+0xc1e>
   18726:	6e75                	lui	t3,0x1d
   18728:	168e0e13          	addi	t3,t3,360 # 1d168 <blanks.1>
   1872c:	4ec1                	li	t4,16
   1872e:	429d                	li	t0,7
   18730:	a811                	j	18744 <_vfiprintf_r+0x81a>
   18732:	0026059b          	addiw	a1,a2,2
   18736:	0741                	addi	a4,a4,16
   18738:	862a                	mv	a2,a0
   1873a:	3d41                	addiw	s10,s10,-16
   1873c:	05aed963          	bge	t4,s10,1878e <_vfiprintf_r+0x864>
   18740:	0016059b          	addiw	a1,a2,1
   18744:	07c1                	addi	a5,a5,16
   18746:	01c73023          	sd	t3,0(a4)
   1874a:	01d73423          	sd	t4,8(a4)
   1874e:	e13e                	sd	a5,128(sp)
   18750:	0005851b          	sext.w	a0,a1
   18754:	dcae                	sw	a1,120(sp)
   18756:	fca2dee3          	bge	t0,a0,18732 <_vfiprintf_r+0x808>
   1875a:	cba9                	beqz	a5,187ac <_vfiprintf_r+0x882>
   1875c:	6522                	ld	a0,8(sp)
   1875e:	1890                	addi	a2,sp,112
   18760:	85d6                	mv	a1,s5
   18762:	e0f2                	sd	t3,64(sp)
   18764:	fc36                	sd	a3,56(sp)
   18766:	f87e                	sd	t6,48(sp)
   18768:	ec7a                	sd	t5,24(sp)
   1876a:	f0eff0ef          	jal	ra,17e78 <__sprint_r.part.0>
   1876e:	920516e3          	bnez	a0,1809a <_vfiprintf_r+0x170>
   18772:	5666                	lw	a2,120(sp)
   18774:	4ec1                	li	t4,16
   18776:	3d41                	addiw	s10,s10,-16
   18778:	678a                	ld	a5,128(sp)
   1877a:	6e06                	ld	t3,64(sp)
   1877c:	76e2                	ld	a3,56(sp)
   1877e:	7fc2                	ld	t6,48(sp)
   18780:	6f62                	ld	t5,24(sp)
   18782:	8726                	mv	a4,s1
   18784:	0016059b          	addiw	a1,a2,1
   18788:	429d                	li	t0,7
   1878a:	fbaecbe3          	blt	t4,s10,18740 <_vfiprintf_r+0x816>
   1878e:	97ea                	add	a5,a5,s10
   18790:	01c73023          	sd	t3,0(a4)
   18794:	01a73423          	sd	s10,8(a4)
   18798:	e13e                	sd	a5,128(sp)
   1879a:	dcae                	sw	a1,120(sp)
   1879c:	461d                	li	a2,7
   1879e:	0eb64963          	blt	a2,a1,18890 <_vfiprintf_r+0x966>
   187a2:	0741                	addi	a4,a4,16
   187a4:	0015851b          	addiw	a0,a1,1
   187a8:	862e                	mv	a2,a1
   187aa:	b269                	j	18134 <_vfiprintf_r+0x20a>
   187ac:	4601                	li	a2,0
   187ae:	4585                	li	a1,1
   187b0:	8726                	mv	a4,s1
   187b2:	b761                	j	1873a <_vfiprintf_r+0x810>
   187b4:	dc82                	sw	zero,120(sp)
   187b6:	004cf313          	andi	t1,s9,4
   187ba:	08030d63          	beqz	t1,18854 <_vfiprintf_r+0x92a>
   187be:	413a093b          	subw	s2,s4,s3
   187c2:	09205963          	blez	s2,18854 <_vfiprintf_r+0x92a>
   187c6:	8726                	mv	a4,s1
   187c8:	46c1                	li	a3,16
   187ca:	5666                	lw	a2,120(sp)
   187cc:	3926d763          	bge	a3,s2,18b5a <_vfiprintf_r+0xc30>
   187d0:	6e75                	lui	t3,0x1d
   187d2:	168e0e13          	addi	t3,t3,360 # 1d168 <blanks.1>
   187d6:	4d41                	li	s10,16
   187d8:	4b1d                	li	s6,7
   187da:	a801                	j	187ea <_vfiprintf_r+0x8c0>
   187dc:	0026069b          	addiw	a3,a2,2
   187e0:	0741                	addi	a4,a4,16
   187e2:	862e                	mv	a2,a1
   187e4:	3941                	addiw	s2,s2,-16
   187e6:	032d5f63          	bge	s10,s2,18824 <_vfiprintf_r+0x8fa>
   187ea:	0016059b          	addiw	a1,a2,1
   187ee:	07c1                	addi	a5,a5,16
   187f0:	01c73023          	sd	t3,0(a4)
   187f4:	01a73423          	sd	s10,8(a4)
   187f8:	e13e                	sd	a5,128(sp)
   187fa:	dcae                	sw	a1,120(sp)
   187fc:	febb50e3          	bge	s6,a1,187dc <_vfiprintf_r+0x8b2>
   18800:	c7b1                	beqz	a5,1884c <_vfiprintf_r+0x922>
   18802:	6522                	ld	a0,8(sp)
   18804:	1890                	addi	a2,sp,112
   18806:	85d6                	mv	a1,s5
   18808:	ec72                	sd	t3,24(sp)
   1880a:	e6eff0ef          	jal	ra,17e78 <__sprint_r.part.0>
   1880e:	880516e3          	bnez	a0,1809a <_vfiprintf_r+0x170>
   18812:	5666                	lw	a2,120(sp)
   18814:	3941                	addiw	s2,s2,-16
   18816:	678a                	ld	a5,128(sp)
   18818:	6e62                	ld	t3,24(sp)
   1881a:	8726                	mv	a4,s1
   1881c:	0016069b          	addiw	a3,a2,1
   18820:	fd2d45e3          	blt	s10,s2,187ea <_vfiprintf_r+0x8c0>
   18824:	97ca                	add	a5,a5,s2
   18826:	01c73023          	sd	t3,0(a4)
   1882a:	01273423          	sd	s2,8(a4)
   1882e:	e13e                	sd	a5,128(sp)
   18830:	dcb6                	sw	a3,120(sp)
   18832:	471d                	li	a4,7
   18834:	9ad753e3          	bge	a4,a3,181da <_vfiprintf_r+0x2b0>
   18838:	cf91                	beqz	a5,18854 <_vfiprintf_r+0x92a>
   1883a:	6522                	ld	a0,8(sp)
   1883c:	1890                	addi	a2,sp,112
   1883e:	85d6                	mv	a1,s5
   18840:	e38ff0ef          	jal	ra,17e78 <__sprint_r.part.0>
   18844:	84051be3          	bnez	a0,1809a <_vfiprintf_r+0x170>
   18848:	678a                	ld	a5,128(sp)
   1884a:	ba41                	j	181da <_vfiprintf_r+0x2b0>
   1884c:	4685                	li	a3,1
   1884e:	4601                	li	a2,0
   18850:	8726                	mv	a4,s1
   18852:	bf49                	j	187e4 <_vfiprintf_r+0x8ba>
   18854:	87d2                	mv	a5,s4
   18856:	013a5363          	bge	s4,s3,1885c <_vfiprintf_r+0x932>
   1885a:	87ce                	mv	a5,s3
   1885c:	6742                	ld	a4,16(sp)
   1885e:	9fb9                	addw	a5,a5,a4
   18860:	e83e                	sd	a5,16(sp)
   18862:	b269                	j	181ec <_vfiprintf_r+0x2c2>
   18864:	d00782e3          	beqz	a5,18568 <_vfiprintf_r+0x63e>
   18868:	6522                	ld	a0,8(sp)
   1886a:	1890                	addi	a2,sp,112
   1886c:	85d6                	mv	a1,s5
   1886e:	e0aff0ef          	jal	ra,17e78 <__sprint_r.part.0>
   18872:	820514e3          	bnez	a0,1809a <_vfiprintf_r+0x170>
   18876:	5566                	lw	a0,120(sp)
   18878:	678a                	ld	a5,128(sp)
   1887a:	8726                	mv	a4,s1
   1887c:	2505                	addiw	a0,a0,1
   1887e:	b20d                	j	181a0 <_vfiprintf_r+0x276>
   18880:	dc82                	sw	zero,120(sp)
   18882:	8726                	mv	a4,s1
   18884:	f84ff06f          	j	18008 <_vfiprintf_r+0xde>
   18888:	4505                	li	a0,1
   1888a:	4601                	li	a2,0
   1888c:	8726                	mv	a4,s1
   1888e:	b209                	j	18190 <_vfiprintf_r+0x266>
   18890:	18078363          	beqz	a5,18a16 <_vfiprintf_r+0xaec>
   18894:	6522                	ld	a0,8(sp)
   18896:	1890                	addi	a2,sp,112
   18898:	85d6                	mv	a1,s5
   1889a:	fc36                	sd	a3,56(sp)
   1889c:	f87e                	sd	t6,48(sp)
   1889e:	ec7a                	sd	t5,24(sp)
   188a0:	dd8ff0ef          	jal	ra,17e78 <__sprint_r.part.0>
   188a4:	fe051b63          	bnez	a0,1809a <_vfiprintf_r+0x170>
   188a8:	5666                	lw	a2,120(sp)
   188aa:	678a                	ld	a5,128(sp)
   188ac:	76e2                	ld	a3,56(sp)
   188ae:	7fc2                	ld	t6,48(sp)
   188b0:	6f62                	ld	t5,24(sp)
   188b2:	8726                	mv	a4,s1
   188b4:	0016051b          	addiw	a0,a2,1
   188b8:	b8b5                	j	18134 <_vfiprintf_r+0x20a>
   188ba:	4981                	li	s3,0
   188bc:	4901                	li	s2,0
   188be:	0ec10b13          	addi	s6,sp,236
   188c2:	b2dd                	j	182a8 <_vfiprintf_r+0x37e>
   188c4:	0ec10913          	addi	s2,sp,236
   188c8:	400cfe13          	andi	t3,s9,1024
   188cc:	4501                	li	a0,0
   188ce:	85ca                	mv	a1,s2
   188d0:	4c29                	li	s8,10
   188d2:	47a5                	li	a5,9
   188d4:	0ff00e93          	li	t4,255
   188d8:	a039                	j	188e6 <_vfiprintf_r+0x9bc>
   188da:	0389d633          	divu	a2,s3,s8
   188de:	0337f863          	bgeu	a5,s3,1890e <_vfiprintf_r+0x9e4>
   188e2:	89b2                	mv	s3,a2
   188e4:	85da                	mv	a1,s6
   188e6:	fff58b13          	addi	s6,a1,-1
   188ea:	2505                	addiw	a0,a0,1
   188ec:	0389f633          	remu	a2,s3,s8
   188f0:	0306061b          	addiw	a2,a2,48
   188f4:	fec58fa3          	sb	a2,-1(a1)
   188f8:	fe0e01e3          	beqz	t3,188da <_vfiprintf_r+0x9b0>
   188fc:	6626                	ld	a2,72(sp)
   188fe:	00064603          	lbu	a2,0(a2)
   18902:	fca61ce3          	bne	a2,a0,188da <_vfiprintf_r+0x9b0>
   18906:	fdd60ae3          	beq	a2,t4,188da <_vfiprintf_r+0x9b0>
   1890a:	1337e263          	bltu	a5,s3,18a2e <_vfiprintf_r+0xb04>
   1890e:	4169093b          	subw	s2,s2,s6
   18912:	0009099b          	sext.w	s3,s2
   18916:	00d95463          	bge	s2,a3,1891e <_vfiprintf_r+0x9f4>
   1891a:	0006899b          	sext.w	s3,a3
   1891e:	8c6a                	mv	s8,s10
   18920:	b261                	j	182a8 <_vfiprintf_r+0x37e>
   18922:	4981                	li	s3,0
   18924:	0ec10b13          	addi	s6,sp,236
   18928:	b241                	j	182a8 <_vfiprintf_r+0x37e>
   1892a:	0741                	addi	a4,a4,16
   1892c:	0015851b          	addiw	a0,a1,1
   18930:	862e                	mv	a2,a1
   18932:	b09d                	j	18198 <_vfiprintf_r+0x26e>
   18934:	000dc783          	lbu	a5,0(s11)
   18938:	ee060a63          	beqz	a2,1802c <_vfiprintf_r+0x102>
   1893c:	00064603          	lbu	a2,0(a2)
   18940:	ee060663          	beqz	a2,1802c <_vfiprintf_r+0x102>
   18944:	400ce313          	ori	t1,s9,1024
   18948:	00030c9b          	sext.w	s9,t1
   1894c:	ee0ff06f          	j	1802c <_vfiprintf_r+0x102>
   18950:	0407f593          	andi	a1,a5,64
   18954:	000c2603          	lw	a2,0(s8)
   18958:	16058263          	beqz	a1,18abc <_vfiprintf_r+0xb92>
   1895c:	1642                	slli	a2,a2,0x30
   1895e:	9241                	srli	a2,a2,0x30
   18960:	bc61                	j	183f8 <_vfiprintf_r+0x4ce>
   18962:	04097793          	andi	a5,s2,64
   18966:	000c2983          	lw	s3,0(s8)
   1896a:	16078963          	beqz	a5,18adc <_vfiprintf_r+0xbb2>
   1896e:	19c2                	slli	s3,s3,0x30
   18970:	0309d993          	srli	s3,s3,0x30
   18974:	b631                	j	18480 <_vfiprintf_r+0x556>
   18976:	4601                	li	a2,0
   18978:	4505                	li	a0,1
   1897a:	8726                	mv	a4,s1
   1897c:	815ff06f          	j	18190 <_vfiprintf_r+0x266>
   18980:	0006899b          	sext.w	s3,a3
   18984:	8b2e                	mv	s6,a1
   18986:	b20d                	j	182a8 <_vfiprintf_r+0x37e>
   18988:	87e6                	mv	a5,s9
   1898a:	bca1                	j	183e2 <_vfiprintf_r+0x4b8>
   1898c:	6671                	lui	a2,0x1c
   1898e:	6b860613          	addi	a2,a2,1720 # 1c6b8 <__clzdi2+0x88>
   18992:	f032                	sd	a2,32(sp)
   18994:	020cf613          	andi	a2,s9,32
   18998:	008c0513          	addi	a0,s8,8
   1899c:	ea39                	bnez	a2,189f2 <_vfiprintf_r+0xac8>
   1899e:	010cf613          	andi	a2,s9,16
   189a2:	ea21                	bnez	a2,189f2 <_vfiprintf_r+0xac8>
   189a4:	040cf593          	andi	a1,s9,64
   189a8:	000c2603          	lw	a2,0(s8)
   189ac:	10058263          	beqz	a1,18ab0 <_vfiprintf_r+0xb86>
   189b0:	1642                	slli	a2,a2,0x30
   189b2:	9241                	srli	a2,a2,0x30
   189b4:	001cf593          	andi	a1,s9,1
   189b8:	cd81                	beqz	a1,189d0 <_vfiprintf_r+0xaa6>
   189ba:	ca19                	beqz	a2,189d0 <_vfiprintf_r+0xaa6>
   189bc:	002ce313          	ori	t1,s9,2
   189c0:	03000593          	li	a1,48
   189c4:	06b10423          	sb	a1,104(sp)
   189c8:	06f104a3          	sb	a5,105(sp)
   189cc:	00030c9b          	sext.w	s9,t1
   189d0:	bffcf313          	andi	t1,s9,-1025
   189d4:	00030c9b          	sext.w	s9,t1
   189d8:	8c2a                	mv	s8,a0
   189da:	b681                	j	1851a <_vfiprintf_r+0x5f0>
   189dc:	8966                	mv	s2,s9
   189de:	b471                	j	1846a <_vfiprintf_r+0x540>
   189e0:	6671                	lui	a2,0x1c
   189e2:	6d060613          	addi	a2,a2,1744 # 1c6d0 <__clzdi2+0xa0>
   189e6:	f032                	sd	a2,32(sp)
   189e8:	020cf613          	andi	a2,s9,32
   189ec:	008c0513          	addi	a0,s8,8
   189f0:	d65d                	beqz	a2,1899e <_vfiprintf_r+0xa74>
   189f2:	000c3603          	ld	a2,0(s8)
   189f6:	bf7d                	j	189b4 <_vfiprintf_r+0xa8a>
   189f8:	855a                	mv	a0,s6
   189fa:	ec3a                	sd	a4,24(sp)
   189fc:	8a3fd0ef          	jal	ra,1629e <strlen>
   18a00:	0005091b          	sext.w	s2,a0
   18a04:	fff94993          	not	s3,s2
   18a08:	43f9d993          	srai	s3,s3,0x3f
   18a0c:	6762                	ld	a4,24(sp)
   18a0e:	0129f9b3          	and	s3,s3,s2
   18a12:	4681                	li	a3,0
   18a14:	b851                	j	182a8 <_vfiprintf_r+0x37e>
   18a16:	06714703          	lbu	a4,103(sp)
   18a1a:	c37d                	beqz	a4,18b00 <_vfiprintf_r+0xbd6>
   18a1c:	06710793          	addi	a5,sp,103
   18a20:	f9be                	sd	a5,240(sp)
   18a22:	4785                	li	a5,1
   18a24:	fdbe                	sd	a5,248(sp)
   18a26:	4505                	li	a0,1
   18a28:	8726                	mv	a4,s1
   18a2a:	f26ff06f          	j	18150 <_vfiprintf_r+0x226>
   18a2e:	67c6                	ld	a5,80(sp)
   18a30:	65e6                	ld	a1,88(sp)
   18a32:	fc72                	sd	t3,56(sp)
   18a34:	40fb0b33          	sub	s6,s6,a5
   18a38:	863e                	mv	a2,a5
   18a3a:	855a                	mv	a0,s6
   18a3c:	f83a                	sd	a4,48(sp)
   18a3e:	ec36                	sd	a3,24(sp)
   18a40:	8effd0ef          	jal	ra,1632e <strncpy>
   18a44:	67a6                	ld	a5,72(sp)
   18a46:	4629                	li	a2,10
   18a48:	02c9d633          	divu	a2,s3,a2
   18a4c:	0017c583          	lbu	a1,1(a5)
   18a50:	66e2                	ld	a3,24(sp)
   18a52:	7742                	ld	a4,48(sp)
   18a54:	00b035b3          	snez	a1,a1
   18a58:	97ae                	add	a5,a5,a1
   18a5a:	e4be                	sd	a5,72(sp)
   18a5c:	7e62                	ld	t3,56(sp)
   18a5e:	4501                	li	a0,0
   18a60:	47a5                	li	a5,9
   18a62:	0ff00e93          	li	t4,255
   18a66:	bdb5                	j	188e2 <_vfiprintf_r+0x9b8>
   18a68:	8cbe                	mv	s9,a5
   18a6a:	4781                	li	a5,0
   18a6c:	a40780e3          	beqz	a5,184ac <_vfiprintf_r+0x582>
   18a70:	b149                	j	186f2 <_vfiprintf_r+0x7c8>
   18a72:	200ce313          	ori	t1,s9,512
   18a76:	001dc783          	lbu	a5,1(s11)
   18a7a:	00030c9b          	sext.w	s9,t1
   18a7e:	0d85                	addi	s11,s11,1
   18a80:	dacff06f          	j	1802c <_vfiprintf_r+0x102>
   18a84:	020ce313          	ori	t1,s9,32
   18a88:	001dc783          	lbu	a5,1(s11)
   18a8c:	00030c9b          	sext.w	s9,t1
   18a90:	0d85                	addi	s11,s11,1
   18a92:	d9aff06f          	j	1802c <_vfiprintf_r+0x102>
   18a96:	4799                	li	a5,6
   18a98:	0006891b          	sext.w	s2,a3
   18a9c:	06d7e063          	bltu	a5,a3,18afc <_vfiprintf_r+0xbd2>
   18aa0:	68f1                	lui	a7,0x1c
   18aa2:	89ca                	mv	s3,s2
   18aa4:	6e888b13          	addi	s6,a7,1768 # 1c6e8 <__clzdi2+0xb8>
   18aa8:	e66ff06f          	j	1810e <_vfiprintf_r+0x1e4>
   18aac:	4601                	li	a2,0
   18aae:	b191                	j	186f2 <_vfiprintf_r+0x7c8>
   18ab0:	200cf593          	andi	a1,s9,512
   18ab4:	c5bd                	beqz	a1,18b22 <_vfiprintf_r+0xbf8>
   18ab6:	0ff67613          	zext.b	a2,a2
   18aba:	bded                	j	189b4 <_vfiprintf_r+0xa8a>
   18abc:	2007f593          	andi	a1,a5,512
   18ac0:	cdb1                	beqz	a1,18b1c <_vfiprintf_r+0xbf2>
   18ac2:	0ff67613          	zext.b	a2,a2
   18ac6:	ba0d                	j	183f8 <_vfiprintf_r+0x4ce>
   18ac8:	200cf793          	andi	a5,s9,512
   18acc:	c7a9                	beqz	a5,18b16 <_vfiprintf_r+0xbec>
   18ace:	0189999b          	slliw	s3,s3,0x18
   18ad2:	4189d99b          	sraiw	s3,s3,0x18
   18ad6:	87ce                	mv	a5,s3
   18ad8:	f40ff06f          	j	18218 <_vfiprintf_r+0x2ee>
   18adc:	20097793          	andi	a5,s2,512
   18ae0:	c7a1                	beqz	a5,18b28 <_vfiprintf_r+0xbfe>
   18ae2:	0ff9f993          	zext.b	s3,s3
   18ae6:	ba69                	j	18480 <_vfiprintf_r+0x556>
   18ae8:	66f5                	lui	a3,0x1d
   18aea:	15868693          	addi	a3,a3,344 # 1d158 <zeroes.0>
   18aee:	ec36                	sd	a3,24(sp)
   18af0:	b641                	j	18670 <_vfiprintf_r+0x746>
   18af2:	4505                	li	a0,1
   18af4:	4601                	li	a2,0
   18af6:	8726                	mv	a4,s1
   18af8:	ea0ff06f          	j	18198 <_vfiprintf_r+0x26e>
   18afc:	4919                	li	s2,6
   18afe:	b74d                	j	18aa0 <_vfiprintf_r+0xb76>
   18b00:	4601                	li	a2,0
   18b02:	4505                	li	a0,1
   18b04:	8726                	mv	a4,s1
   18b06:	e50ff06f          	j	18156 <_vfiprintf_r+0x22c>
   18b0a:	67c2                	ld	a5,16(sp)
   18b0c:	0c21                	addi	s8,s8,8
   18b0e:	00f69023          	sh	a5,0(a3)
   18b12:	ca6ff06f          	j	17fb8 <_vfiprintf_r+0x8e>
   18b16:	87ce                	mv	a5,s3
   18b18:	f00ff06f          	j	18218 <_vfiprintf_r+0x2ee>
   18b1c:	1602                	slli	a2,a2,0x20
   18b1e:	9201                	srli	a2,a2,0x20
   18b20:	b8e1                	j	183f8 <_vfiprintf_r+0x4ce>
   18b22:	1602                	slli	a2,a2,0x20
   18b24:	9201                	srli	a2,a2,0x20
   18b26:	b579                	j	189b4 <_vfiprintf_r+0xa8a>
   18b28:	1982                	slli	s3,s3,0x20
   18b2a:	0209d993          	srli	s3,s3,0x20
   18b2e:	ba89                	j	18480 <_vfiprintf_r+0x556>
   18b30:	6522                	ld	a0,8(sp)
   18b32:	1890                	addi	a2,sp,112
   18b34:	85d6                	mv	a1,s5
   18b36:	b42ff0ef          	jal	ra,17e78 <__sprint_r.part.0>
   18b3a:	d60ff06f          	j	1809a <_vfiprintf_r+0x170>
   18b3e:	89b6                	mv	s3,a3
   18b40:	8936                	mv	s2,a3
   18b42:	4681                	li	a3,0
   18b44:	f64ff06f          	j	182a8 <_vfiprintf_r+0x37e>
   18b48:	6e75                	lui	t3,0x1d
   18b4a:	168e0e13          	addi	t3,t3,360 # 1d168 <blanks.1>
   18b4e:	b181                	j	1878e <_vfiprintf_r+0x864>
   18b50:	8c6a                	mv	s8,s10
   18b52:	03000793          	li	a5,48
   18b56:	f3eff06f          	j	18294 <_vfiprintf_r+0x36a>
   18b5a:	6e75                	lui	t3,0x1d
   18b5c:	0016069b          	addiw	a3,a2,1
   18b60:	168e0e13          	addi	t3,t3,360 # 1d168 <blanks.1>
   18b64:	b1c1                	j	18824 <_vfiprintf_r+0x8fa>
   18b66:	6675                	lui	a2,0x1d
   18b68:	15860613          	addi	a2,a2,344 # 1d158 <zeroes.0>
   18b6c:	85aa                	mv	a1,a0
   18b6e:	ec32                	sd	a2,24(sp)
   18b70:	bc9d                	j	185e6 <_vfiprintf_r+0x6bc>
   18b72:	57fd                	li	a5,-1
   18b74:	e83e                	sd	a5,16(sp)
   18b76:	d30ff06f          	j	180a6 <_vfiprintf_r+0x17c>
   18b7a:	c29c                	sw	a5,0(a3)
   18b7c:	0c21                	addi	s8,s8,8
   18b7e:	c3aff06f          	j	17fb8 <_vfiprintf_r+0x8e>
   18b82:	000c2783          	lw	a5,0(s8)
   18b86:	0c21                	addi	s8,s8,8
   18b88:	0007869b          	sext.w	a3,a5
   18b8c:	0007d363          	bgez	a5,18b92 <_vfiprintf_r+0xc68>
   18b90:	56fd                	li	a3,-1
   18b92:	001dc783          	lbu	a5,1(s11)
   18b96:	8db2                	mv	s11,a2
   18b98:	c94ff06f          	j	1802c <_vfiprintf_r+0x102>

0000000000018b9c <vfiprintf>:
   18b9c:	87aa                	mv	a5,a0
   18b9e:	7581b503          	ld	a0,1880(gp) # 1f6c8 <_impure_ptr>
   18ba2:	86b2                	mv	a3,a2
   18ba4:	862e                	mv	a2,a1
   18ba6:	85be                	mv	a1,a5
   18ba8:	b82ff06f          	j	17f2a <_vfiprintf_r>

0000000000018bac <__sbprintf>:
   18bac:	01059783          	lh	a5,16(a1)
   18bb0:	0125d703          	lhu	a4,18(a1)
   18bb4:	0ac5a303          	lw	t1,172(a1)
   18bb8:	9bf5                	andi	a5,a5,-3
   18bba:	0107979b          	slliw	a5,a5,0x10
   18bbe:	0305b883          	ld	a7,48(a1)
   18bc2:	0405b803          	ld	a6,64(a1)
   18bc6:	0107171b          	slliw	a4,a4,0x10
   18bca:	0107d79b          	srliw	a5,a5,0x10
   18bce:	b3010113          	addi	sp,sp,-1232
   18bd2:	8fd9                	or	a5,a5,a4
   18bd4:	4c813023          	sd	s0,1216(sp)
   18bd8:	40000713          	li	a4,1024
   18bdc:	c83e                	sw	a5,16(sp)
   18bde:	842e                	mv	s0,a1
   18be0:	191c                	addi	a5,sp,176
   18be2:	858a                	mv	a1,sp
   18be4:	4a913c23          	sd	s1,1208(sp)
   18be8:	4b213823          	sd	s2,1200(sp)
   18bec:	4c113423          	sd	ra,1224(sp)
   18bf0:	892a                	mv	s2,a0
   18bf2:	d71a                	sw	t1,172(sp)
   18bf4:	f846                	sd	a7,48(sp)
   18bf6:	e0c2                	sd	a6,64(sp)
   18bf8:	e03e                	sd	a5,0(sp)
   18bfa:	ec3e                	sd	a5,24(sp)
   18bfc:	c63a                	sw	a4,12(sp)
   18bfe:	d03a                	sw	a4,32(sp)
   18c00:	d402                	sw	zero,40(sp)
   18c02:	b28ff0ef          	jal	ra,17f2a <_vfiprintf_r>
   18c06:	84aa                	mv	s1,a0
   18c08:	02055963          	bgez	a0,18c3a <__sbprintf+0x8e>
   18c0c:	01015783          	lhu	a5,16(sp)
   18c10:	0407f793          	andi	a5,a5,64
   18c14:	c799                	beqz	a5,18c22 <__sbprintf+0x76>
   18c16:	01045783          	lhu	a5,16(s0)
   18c1a:	0407e793          	ori	a5,a5,64
   18c1e:	00f41823          	sh	a5,16(s0)
   18c22:	4c813083          	ld	ra,1224(sp)
   18c26:	4c013403          	ld	s0,1216(sp)
   18c2a:	4b013903          	ld	s2,1200(sp)
   18c2e:	8526                	mv	a0,s1
   18c30:	4b813483          	ld	s1,1208(sp)
   18c34:	4d010113          	addi	sp,sp,1232
   18c38:	8082                	ret
   18c3a:	858a                	mv	a1,sp
   18c3c:	854a                	mv	a0,s2
   18c3e:	e76f90ef          	jal	ra,122b4 <_fflush_r>
   18c42:	d569                	beqz	a0,18c0c <__sbprintf+0x60>
   18c44:	54fd                	li	s1,-1
   18c46:	b7d9                	j	18c0c <__sbprintf+0x60>

0000000000018c48 <_write_r>:
   18c48:	1101                	addi	sp,sp,-32
   18c4a:	872e                	mv	a4,a1
   18c4c:	e822                	sd	s0,16(sp)
   18c4e:	e426                	sd	s1,8(sp)
   18c50:	85b2                	mv	a1,a2
   18c52:	842a                	mv	s0,a0
   18c54:	8636                	mv	a2,a3
   18c56:	853a                	mv	a0,a4
   18c58:	ec06                	sd	ra,24(sp)
   18c5a:	7801a823          	sw	zero,1936(gp) # 1f700 <errno>
   18c5e:	3c0020ef          	jal	ra,1b01e <_write>
   18c62:	57fd                	li	a5,-1
   18c64:	00f50763          	beq	a0,a5,18c72 <_write_r+0x2a>
   18c68:	60e2                	ld	ra,24(sp)
   18c6a:	6442                	ld	s0,16(sp)
   18c6c:	64a2                	ld	s1,8(sp)
   18c6e:	6105                	addi	sp,sp,32
   18c70:	8082                	ret
   18c72:	7901a783          	lw	a5,1936(gp) # 1f700 <errno>
   18c76:	dbed                	beqz	a5,18c68 <_write_r+0x20>
   18c78:	60e2                	ld	ra,24(sp)
   18c7a:	c01c                	sw	a5,0(s0)
   18c7c:	6442                	ld	s0,16(sp)
   18c7e:	64a2                	ld	s1,8(sp)
   18c80:	6105                	addi	sp,sp,32
   18c82:	8082                	ret

0000000000018c84 <__register_exitproc>:
   18c84:	7481b703          	ld	a4,1864(gp) # 1f6b8 <_global_impure_ptr>
   18c88:	1f873783          	ld	a5,504(a4)
   18c8c:	c3b1                	beqz	a5,18cd0 <__register_exitproc+0x4c>
   18c8e:	4798                	lw	a4,8(a5)
   18c90:	487d                	li	a6,31
   18c92:	06e84263          	blt	a6,a4,18cf6 <__register_exitproc+0x72>
   18c96:	c505                	beqz	a0,18cbe <__register_exitproc+0x3a>
   18c98:	00371813          	slli	a6,a4,0x3
   18c9c:	983e                	add	a6,a6,a5
   18c9e:	10c83823          	sd	a2,272(a6)
   18ca2:	3107a883          	lw	a7,784(a5)
   18ca6:	4605                	li	a2,1
   18ca8:	00e6163b          	sllw	a2,a2,a4
   18cac:	00c8e8b3          	or	a7,a7,a2
   18cb0:	3117a823          	sw	a7,784(a5)
   18cb4:	20d83823          	sd	a3,528(a6)
   18cb8:	4689                	li	a3,2
   18cba:	02d50063          	beq	a0,a3,18cda <__register_exitproc+0x56>
   18cbe:	00270693          	addi	a3,a4,2
   18cc2:	068e                	slli	a3,a3,0x3
   18cc4:	2705                	addiw	a4,a4,1
   18cc6:	c798                	sw	a4,8(a5)
   18cc8:	97b6                	add	a5,a5,a3
   18cca:	e38c                	sd	a1,0(a5)
   18ccc:	4501                	li	a0,0
   18cce:	8082                	ret
   18cd0:	20070793          	addi	a5,a4,512
   18cd4:	1ef73c23          	sd	a5,504(a4)
   18cd8:	bf5d                	j	18c8e <__register_exitproc+0xa>
   18cda:	3147a683          	lw	a3,788(a5)
   18cde:	4501                	li	a0,0
   18ce0:	8ed1                	or	a3,a3,a2
   18ce2:	30d7aa23          	sw	a3,788(a5)
   18ce6:	00270693          	addi	a3,a4,2
   18cea:	068e                	slli	a3,a3,0x3
   18cec:	2705                	addiw	a4,a4,1
   18cee:	c798                	sw	a4,8(a5)
   18cf0:	97b6                	add	a5,a5,a3
   18cf2:	e38c                	sd	a1,0(a5)
   18cf4:	8082                	ret
   18cf6:	557d                	li	a0,-1
   18cf8:	8082                	ret

0000000000018cfa <__assert_func>:
   18cfa:	7581b703          	ld	a4,1880(gp) # 1f6c8 <_impure_ptr>
   18cfe:	1141                	addi	sp,sp,-16
   18d00:	87b6                	mv	a5,a3
   18d02:	8832                	mv	a6,a2
   18d04:	e406                	sd	ra,8(sp)
   18d06:	01873883          	ld	a7,24(a4)
   18d0a:	86aa                	mv	a3,a0
   18d0c:	872e                	mv	a4,a1
   18d0e:	863e                	mv	a2,a5
   18d10:	00080d63          	beqz	a6,18d2a <__assert_func+0x30>
   18d14:	67f5                	lui	a5,0x1d
   18d16:	17878793          	addi	a5,a5,376 # 1d178 <blanks.1+0x10>
   18d1a:	65f5                	lui	a1,0x1d
   18d1c:	18858593          	addi	a1,a1,392 # 1d188 <blanks.1+0x20>
   18d20:	8546                	mv	a0,a7
   18d22:	1e0000ef          	jal	ra,18f02 <fiprintf>
   18d26:	613010ef          	jal	ra,1ab38 <abort>
   18d2a:	6871                	lui	a6,0x1c
   18d2c:	6c880793          	addi	a5,a6,1736 # 1c6c8 <__clzdi2+0x98>
   18d30:	6c880813          	addi	a6,a6,1736
   18d34:	b7dd                	j	18d1a <__assert_func+0x20>

0000000000018d36 <__assert>:
   18d36:	1141                	addi	sp,sp,-16
   18d38:	86b2                	mv	a3,a2
   18d3a:	4601                	li	a2,0
   18d3c:	e406                	sd	ra,8(sp)
   18d3e:	fbdff0ef          	jal	ra,18cfa <__assert_func>

0000000000018d42 <_calloc_r>:
   18d42:	02c5b7b3          	mulhu	a5,a1,a2
   18d46:	1141                	addi	sp,sp,-16
   18d48:	e406                	sd	ra,8(sp)
   18d4a:	e022                	sd	s0,0(sp)
   18d4c:	02c585b3          	mul	a1,a1,a2
   18d50:	efb5                	bnez	a5,18dcc <_calloc_r+0x8a>
   18d52:	f67fb0ef          	jal	ra,14cb8 <_malloc_r>
   18d56:	842a                	mv	s0,a0
   18d58:	cd35                	beqz	a0,18dd4 <_calloc_r+0x92>
   18d5a:	ff853603          	ld	a2,-8(a0)
   18d5e:	04800713          	li	a4,72
   18d62:	9a71                	andi	a2,a2,-4
   18d64:	1661                	addi	a2,a2,-8
   18d66:	04c76263          	bltu	a4,a2,18daa <_calloc_r+0x68>
   18d6a:	02700693          	li	a3,39
   18d6e:	87aa                	mv	a5,a0
   18d70:	02c6f263          	bgeu	a3,a2,18d94 <_calloc_r+0x52>
   18d74:	00053023          	sd	zero,0(a0)
   18d78:	00053423          	sd	zero,8(a0)
   18d7c:	03700793          	li	a5,55
   18d80:	02c7fd63          	bgeu	a5,a2,18dba <_calloc_r+0x78>
   18d84:	00053823          	sd	zero,16(a0)
   18d88:	00053c23          	sd	zero,24(a0)
   18d8c:	02050793          	addi	a5,a0,32
   18d90:	04e60863          	beq	a2,a4,18de0 <_calloc_r+0x9e>
   18d94:	0007b023          	sd	zero,0(a5)
   18d98:	0007b423          	sd	zero,8(a5)
   18d9c:	0007b823          	sd	zero,16(a5)
   18da0:	60a2                	ld	ra,8(sp)
   18da2:	8522                	mv	a0,s0
   18da4:	6402                	ld	s0,0(sp)
   18da6:	0141                	addi	sp,sp,16
   18da8:	8082                	ret
   18daa:	4581                	li	a1,0
   18dac:	c8ef70ef          	jal	ra,1023a <memset>
   18db0:	60a2                	ld	ra,8(sp)
   18db2:	8522                	mv	a0,s0
   18db4:	6402                	ld	s0,0(sp)
   18db6:	0141                	addi	sp,sp,16
   18db8:	8082                	ret
   18dba:	01050793          	addi	a5,a0,16
   18dbe:	0007b023          	sd	zero,0(a5)
   18dc2:	0007b423          	sd	zero,8(a5)
   18dc6:	0007b823          	sd	zero,16(a5)
   18dca:	bfd9                	j	18da0 <_calloc_r+0x5e>
   18dcc:	058000ef          	jal	ra,18e24 <__errno>
   18dd0:	47b1                	li	a5,12
   18dd2:	c11c                	sw	a5,0(a0)
   18dd4:	4401                	li	s0,0
   18dd6:	60a2                	ld	ra,8(sp)
   18dd8:	8522                	mv	a0,s0
   18dda:	6402                	ld	s0,0(sp)
   18ddc:	0141                	addi	sp,sp,16
   18dde:	8082                	ret
   18de0:	02053023          	sd	zero,32(a0)
   18de4:	03050793          	addi	a5,a0,48
   18de8:	02053423          	sd	zero,40(a0)
   18dec:	b765                	j	18d94 <_calloc_r+0x52>

0000000000018dee <_close_r>:
   18dee:	1101                	addi	sp,sp,-32
   18df0:	e822                	sd	s0,16(sp)
   18df2:	e426                	sd	s1,8(sp)
   18df4:	842a                	mv	s0,a0
   18df6:	852e                	mv	a0,a1
   18df8:	ec06                	sd	ra,24(sp)
   18dfa:	7801a823          	sw	zero,1936(gp) # 1f700 <errno>
   18dfe:	0a8020ef          	jal	ra,1aea6 <_close>
   18e02:	57fd                	li	a5,-1
   18e04:	00f50763          	beq	a0,a5,18e12 <_close_r+0x24>
   18e08:	60e2                	ld	ra,24(sp)
   18e0a:	6442                	ld	s0,16(sp)
   18e0c:	64a2                	ld	s1,8(sp)
   18e0e:	6105                	addi	sp,sp,32
   18e10:	8082                	ret
   18e12:	7901a783          	lw	a5,1936(gp) # 1f700 <errno>
   18e16:	dbed                	beqz	a5,18e08 <_close_r+0x1a>
   18e18:	60e2                	ld	ra,24(sp)
   18e1a:	c01c                	sw	a5,0(s0)
   18e1c:	6442                	ld	s0,16(sp)
   18e1e:	64a2                	ld	s1,8(sp)
   18e20:	6105                	addi	sp,sp,32
   18e22:	8082                	ret

0000000000018e24 <__errno>:
   18e24:	7581b503          	ld	a0,1880(gp) # 1f6c8 <_impure_ptr>
   18e28:	8082                	ret

0000000000018e2a <_fclose_r>:
   18e2a:	1101                	addi	sp,sp,-32
   18e2c:	ec06                	sd	ra,24(sp)
   18e2e:	e822                	sd	s0,16(sp)
   18e30:	e426                	sd	s1,8(sp)
   18e32:	e04a                	sd	s2,0(sp)
   18e34:	c989                	beqz	a1,18e46 <_fclose_r+0x1c>
   18e36:	842e                	mv	s0,a1
   18e38:	84aa                	mv	s1,a0
   18e3a:	c119                	beqz	a0,18e40 <_fclose_r+0x16>
   18e3c:	493c                	lw	a5,80(a0)
   18e3e:	cfa5                	beqz	a5,18eb6 <_fclose_r+0x8c>
   18e40:	01041783          	lh	a5,16(s0)
   18e44:	eb89                	bnez	a5,18e56 <_fclose_r+0x2c>
   18e46:	60e2                	ld	ra,24(sp)
   18e48:	6442                	ld	s0,16(sp)
   18e4a:	4901                	li	s2,0
   18e4c:	64a2                	ld	s1,8(sp)
   18e4e:	854a                	mv	a0,s2
   18e50:	6902                	ld	s2,0(sp)
   18e52:	6105                	addi	sp,sp,32
   18e54:	8082                	ret
   18e56:	85a2                	mv	a1,s0
   18e58:	8526                	mv	a0,s1
   18e5a:	ad8f90ef          	jal	ra,12132 <__sflush_r>
   18e5e:	683c                	ld	a5,80(s0)
   18e60:	892a                	mv	s2,a0
   18e62:	c791                	beqz	a5,18e6e <_fclose_r+0x44>
   18e64:	780c                	ld	a1,48(s0)
   18e66:	8526                	mv	a0,s1
   18e68:	9782                	jalr	a5
   18e6a:	04054c63          	bltz	a0,18ec2 <_fclose_r+0x98>
   18e6e:	01045783          	lhu	a5,16(s0)
   18e72:	0807f793          	andi	a5,a5,128
   18e76:	efa1                	bnez	a5,18ece <_fclose_r+0xa4>
   18e78:	6c2c                	ld	a1,88(s0)
   18e7a:	c991                	beqz	a1,18e8e <_fclose_r+0x64>
   18e7c:	07440793          	addi	a5,s0,116
   18e80:	00f58563          	beq	a1,a5,18e8a <_fclose_r+0x60>
   18e84:	8526                	mv	a0,s1
   18e86:	82ff90ef          	jal	ra,126b4 <_free_r>
   18e8a:	04043c23          	sd	zero,88(s0)
   18e8e:	7c2c                	ld	a1,120(s0)
   18e90:	c591                	beqz	a1,18e9c <_fclose_r+0x72>
   18e92:	8526                	mv	a0,s1
   18e94:	821f90ef          	jal	ra,126b4 <_free_r>
   18e98:	06043c23          	sd	zero,120(s0)
   18e9c:	ef2f90ef          	jal	ra,1258e <__sfp_lock_acquire>
   18ea0:	00041823          	sh	zero,16(s0)
   18ea4:	eecf90ef          	jal	ra,12590 <__sfp_lock_release>
   18ea8:	60e2                	ld	ra,24(sp)
   18eaa:	6442                	ld	s0,16(sp)
   18eac:	64a2                	ld	s1,8(sp)
   18eae:	854a                	mv	a0,s2
   18eb0:	6902                	ld	s2,0(sp)
   18eb2:	6105                	addi	sp,sp,32
   18eb4:	8082                	ret
   18eb6:	ed0f90ef          	jal	ra,12586 <__sinit>
   18eba:	01041783          	lh	a5,16(s0)
   18ebe:	d7c1                	beqz	a5,18e46 <_fclose_r+0x1c>
   18ec0:	bf59                	j	18e56 <_fclose_r+0x2c>
   18ec2:	01045783          	lhu	a5,16(s0)
   18ec6:	597d                	li	s2,-1
   18ec8:	0807f793          	andi	a5,a5,128
   18ecc:	d7d5                	beqz	a5,18e78 <_fclose_r+0x4e>
   18ece:	6c0c                	ld	a1,24(s0)
   18ed0:	8526                	mv	a0,s1
   18ed2:	fe2f90ef          	jal	ra,126b4 <_free_r>
   18ed6:	b74d                	j	18e78 <_fclose_r+0x4e>

0000000000018ed8 <fclose>:
   18ed8:	85aa                	mv	a1,a0
   18eda:	7581b503          	ld	a0,1880(gp) # 1f6c8 <_impure_ptr>
   18ede:	f4dff06f          	j	18e2a <_fclose_r>

0000000000018ee2 <_fiprintf_r>:
   18ee2:	715d                	addi	sp,sp,-80
   18ee4:	02810313          	addi	t1,sp,40
   18ee8:	f436                	sd	a3,40(sp)
   18eea:	869a                	mv	a3,t1
   18eec:	ec06                	sd	ra,24(sp)
   18eee:	f83a                	sd	a4,48(sp)
   18ef0:	fc3e                	sd	a5,56(sp)
   18ef2:	e0c2                	sd	a6,64(sp)
   18ef4:	e4c6                	sd	a7,72(sp)
   18ef6:	e41a                	sd	t1,8(sp)
   18ef8:	832ff0ef          	jal	ra,17f2a <_vfiprintf_r>
   18efc:	60e2                	ld	ra,24(sp)
   18efe:	6161                	addi	sp,sp,80
   18f00:	8082                	ret

0000000000018f02 <fiprintf>:
   18f02:	8e2a                	mv	t3,a0
   18f04:	715d                	addi	sp,sp,-80
   18f06:	7581b503          	ld	a0,1880(gp) # 1f6c8 <_impure_ptr>
   18f0a:	02010313          	addi	t1,sp,32
   18f0e:	f032                	sd	a2,32(sp)
   18f10:	f436                	sd	a3,40(sp)
   18f12:	862e                	mv	a2,a1
   18f14:	869a                	mv	a3,t1
   18f16:	85f2                	mv	a1,t3
   18f18:	ec06                	sd	ra,24(sp)
   18f1a:	f83a                	sd	a4,48(sp)
   18f1c:	fc3e                	sd	a5,56(sp)
   18f1e:	e0c2                	sd	a6,64(sp)
   18f20:	e4c6                	sd	a7,72(sp)
   18f22:	e41a                	sd	t1,8(sp)
   18f24:	806ff0ef          	jal	ra,17f2a <_vfiprintf_r>
   18f28:	60e2                	ld	ra,24(sp)
   18f2a:	6161                	addi	sp,sp,80
   18f2c:	8082                	ret

0000000000018f2e <__fputwc>:
   18f2e:	7179                	addi	sp,sp,-48
   18f30:	f022                	sd	s0,32(sp)
   18f32:	ec26                	sd	s1,24(sp)
   18f34:	e84a                	sd	s2,16(sp)
   18f36:	f406                	sd	ra,40(sp)
   18f38:	892a                	mv	s2,a0
   18f3a:	84ae                	mv	s1,a1
   18f3c:	8432                	mv	s0,a2
   18f3e:	4f4000ef          	jal	ra,19432 <__locale_mb_cur_max>
   18f42:	4785                	li	a5,1
   18f44:	00f51b63          	bne	a0,a5,18f5a <__fputwc+0x2c>
   18f48:	fff4879b          	addiw	a5,s1,-1
   18f4c:	0fe00713          	li	a4,254
   18f50:	00f76563          	bltu	a4,a5,18f5a <__fputwc+0x2c>
   18f54:	00910423          	sb	s1,8(sp)
   18f58:	a821                	j	18f70 <__fputwc+0x42>
   18f5a:	0a440693          	addi	a3,s0,164
   18f5e:	8626                	mv	a2,s1
   18f60:	002c                	addi	a1,sp,8
   18f62:	854a                	mv	a0,s2
   18f64:	315010ef          	jal	ra,1aa78 <_wcrtomb_r>
   18f68:	57fd                	li	a5,-1
   18f6a:	04f50d63          	beq	a0,a5,18fc4 <__fputwc+0x96>
   18f6e:	c50d                	beqz	a0,18f98 <__fputwc+0x6a>
   18f70:	445c                	lw	a5,12(s0)
   18f72:	00814583          	lbu	a1,8(sp)
   18f76:	fff7871b          	addiw	a4,a5,-1
   18f7a:	c458                	sw	a4,12(s0)
   18f7c:	00075863          	bgez	a4,18f8c <__fputwc+0x5e>
   18f80:	541c                	lw	a5,40(s0)
   18f82:	02f74363          	blt	a4,a5,18fa8 <__fputwc+0x7a>
   18f86:	47a9                	li	a5,10
   18f88:	02f58063          	beq	a1,a5,18fa8 <__fputwc+0x7a>
   18f8c:	601c                	ld	a5,0(s0)
   18f8e:	00178713          	addi	a4,a5,1
   18f92:	e018                	sd	a4,0(s0)
   18f94:	00b78023          	sb	a1,0(a5)
   18f98:	70a2                	ld	ra,40(sp)
   18f9a:	7402                	ld	s0,32(sp)
   18f9c:	6942                	ld	s2,16(sp)
   18f9e:	0004851b          	sext.w	a0,s1
   18fa2:	64e2                	ld	s1,24(sp)
   18fa4:	6145                	addi	sp,sp,48
   18fa6:	8082                	ret
   18fa8:	8622                	mv	a2,s0
   18faa:	854a                	mv	a0,s2
   18fac:	1cd010ef          	jal	ra,1a978 <__swbuf_r>
   18fb0:	57fd                	li	a5,-1
   18fb2:	fef513e3          	bne	a0,a5,18f98 <__fputwc+0x6a>
   18fb6:	557d                	li	a0,-1
   18fb8:	70a2                	ld	ra,40(sp)
   18fba:	7402                	ld	s0,32(sp)
   18fbc:	64e2                	ld	s1,24(sp)
   18fbe:	6942                	ld	s2,16(sp)
   18fc0:	6145                	addi	sp,sp,48
   18fc2:	8082                	ret
   18fc4:	01045783          	lhu	a5,16(s0)
   18fc8:	557d                	li	a0,-1
   18fca:	0407e793          	ori	a5,a5,64
   18fce:	00f41823          	sh	a5,16(s0)
   18fd2:	b7dd                	j	18fb8 <__fputwc+0x8a>

0000000000018fd4 <_fputwc_r>:
   18fd4:	01061783          	lh	a5,16(a2)
   18fd8:	03279713          	slli	a4,a5,0x32
   18fdc:	00074c63          	bltz	a4,18ff4 <_fputwc_r+0x20>
   18fe0:	0ac62703          	lw	a4,172(a2)
   18fe4:	6689                	lui	a3,0x2
   18fe6:	8fd5                	or	a5,a5,a3
   18fe8:	6689                	lui	a3,0x2
   18fea:	8f55                	or	a4,a4,a3
   18fec:	00f61823          	sh	a5,16(a2)
   18ff0:	0ae62623          	sw	a4,172(a2)
   18ff4:	f3bff06f          	j	18f2e <__fputwc>

0000000000018ff8 <fputwc>:
   18ff8:	1101                	addi	sp,sp,-32
   18ffa:	e822                	sd	s0,16(sp)
   18ffc:	7581b403          	ld	s0,1880(gp) # 1f6c8 <_impure_ptr>
   19000:	ec06                	sd	ra,24(sp)
   19002:	862e                	mv	a2,a1
   19004:	85aa                	mv	a1,a0
   19006:	c019                	beqz	s0,1900c <fputwc+0x14>
   19008:	483c                	lw	a5,80(s0)
   1900a:	c79d                	beqz	a5,19038 <fputwc+0x40>
   1900c:	01061783          	lh	a5,16(a2)
   19010:	03279713          	slli	a4,a5,0x32
   19014:	00074c63          	bltz	a4,1902c <fputwc+0x34>
   19018:	0ac62703          	lw	a4,172(a2)
   1901c:	6689                	lui	a3,0x2
   1901e:	8fd5                	or	a5,a5,a3
   19020:	6689                	lui	a3,0x2
   19022:	8f55                	or	a4,a4,a3
   19024:	00f61823          	sh	a5,16(a2)
   19028:	0ae62623          	sw	a4,172(a2)
   1902c:	8522                	mv	a0,s0
   1902e:	6442                	ld	s0,16(sp)
   19030:	60e2                	ld	ra,24(sp)
   19032:	6105                	addi	sp,sp,32
   19034:	efbff06f          	j	18f2e <__fputwc>
   19038:	e02a                	sd	a0,0(sp)
   1903a:	8522                	mv	a0,s0
   1903c:	e432                	sd	a2,8(sp)
   1903e:	d48f90ef          	jal	ra,12586 <__sinit>
   19042:	6622                	ld	a2,8(sp)
   19044:	6582                	ld	a1,0(sp)
   19046:	b7d9                	j	1900c <fputwc+0x14>

0000000000019048 <_fstat_r>:
   19048:	1101                	addi	sp,sp,-32
   1904a:	872e                	mv	a4,a1
   1904c:	e822                	sd	s0,16(sp)
   1904e:	e426                	sd	s1,8(sp)
   19050:	842a                	mv	s0,a0
   19052:	85b2                	mv	a1,a2
   19054:	853a                	mv	a0,a4
   19056:	ec06                	sd	ra,24(sp)
   19058:	7801a823          	sw	zero,1936(gp) # 1f700 <errno>
   1905c:	699010ef          	jal	ra,1aef4 <_fstat>
   19060:	57fd                	li	a5,-1
   19062:	00f50763          	beq	a0,a5,19070 <_fstat_r+0x28>
   19066:	60e2                	ld	ra,24(sp)
   19068:	6442                	ld	s0,16(sp)
   1906a:	64a2                	ld	s1,8(sp)
   1906c:	6105                	addi	sp,sp,32
   1906e:	8082                	ret
   19070:	7901a783          	lw	a5,1936(gp) # 1f700 <errno>
   19074:	dbed                	beqz	a5,19066 <_fstat_r+0x1e>
   19076:	60e2                	ld	ra,24(sp)
   19078:	c01c                	sw	a5,0(s0)
   1907a:	6442                	ld	s0,16(sp)
   1907c:	64a2                	ld	s1,8(sp)
   1907e:	6105                	addi	sp,sp,32
   19080:	8082                	ret

0000000000019082 <__sfvwrite_r>:
   19082:	6a1c                	ld	a5,16(a2)
   19084:	1a078a63          	beqz	a5,19238 <__sfvwrite_r+0x1b6>
   19088:	01059703          	lh	a4,16(a1)
   1908c:	711d                	addi	sp,sp,-96
   1908e:	e8a2                	sd	s0,80(sp)
   19090:	f852                	sd	s4,48(sp)
   19092:	f05a                	sd	s6,32(sp)
   19094:	ec86                	sd	ra,88(sp)
   19096:	e4a6                	sd	s1,72(sp)
   19098:	e0ca                	sd	s2,64(sp)
   1909a:	fc4e                	sd	s3,56(sp)
   1909c:	f456                	sd	s5,40(sp)
   1909e:	ec5e                	sd	s7,24(sp)
   190a0:	e862                	sd	s8,16(sp)
   190a2:	e466                	sd	s9,8(sp)
   190a4:	00877793          	andi	a5,a4,8
   190a8:	8b32                	mv	s6,a2
   190aa:	8a2a                	mv	s4,a0
   190ac:	842e                	mv	s0,a1
   190ae:	c3b5                	beqz	a5,19112 <__sfvwrite_r+0x90>
   190b0:	6d9c                	ld	a5,24(a1)
   190b2:	c3a5                	beqz	a5,19112 <__sfvwrite_r+0x90>
   190b4:	00277793          	andi	a5,a4,2
   190b8:	000b3483          	ld	s1,0(s6)
   190bc:	cba5                	beqz	a5,1912c <__sfvwrite_r+0xaa>
   190be:	603c                	ld	a5,64(s0)
   190c0:	780c                	ld	a1,48(s0)
   190c2:	80000ab7          	lui	s5,0x80000
   190c6:	4981                	li	s3,0
   190c8:	4901                	li	s2,0
   190ca:	c00aca93          	xori	s5,s5,-1024
   190ce:	864e                	mv	a2,s3
   190d0:	8552                	mv	a0,s4
   190d2:	02090a63          	beqz	s2,19106 <__sfvwrite_r+0x84>
   190d6:	86ca                	mv	a3,s2
   190d8:	012af363          	bgeu	s5,s2,190de <__sfvwrite_r+0x5c>
   190dc:	86d6                	mv	a3,s5
   190de:	2681                	sext.w	a3,a3
   190e0:	9782                	jalr	a5
   190e2:	14a05363          	blez	a0,19228 <__sfvwrite_r+0x1a6>
   190e6:	010b3783          	ld	a5,16(s6)
   190ea:	99aa                	add	s3,s3,a0
   190ec:	40a90933          	sub	s2,s2,a0
   190f0:	8f89                	sub	a5,a5,a0
   190f2:	00fb3823          	sd	a5,16(s6)
   190f6:	10078663          	beqz	a5,19202 <__sfvwrite_r+0x180>
   190fa:	603c                	ld	a5,64(s0)
   190fc:	780c                	ld	a1,48(s0)
   190fe:	864e                	mv	a2,s3
   19100:	8552                	mv	a0,s4
   19102:	fc091ae3          	bnez	s2,190d6 <__sfvwrite_r+0x54>
   19106:	0004b983          	ld	s3,0(s1)
   1910a:	0084b903          	ld	s2,8(s1)
   1910e:	04c1                	addi	s1,s1,16
   19110:	bf7d                	j	190ce <__sfvwrite_r+0x4c>
   19112:	85a2                	mv	a1,s0
   19114:	8552                	mv	a0,s4
   19116:	e73f80ef          	jal	ra,11f88 <__swsetup_r>
   1911a:	10051d63          	bnez	a0,19234 <__sfvwrite_r+0x1b2>
   1911e:	01041703          	lh	a4,16(s0)
   19122:	000b3483          	ld	s1,0(s6)
   19126:	00277793          	andi	a5,a4,2
   1912a:	fbd1                	bnez	a5,190be <__sfvwrite_r+0x3c>
   1912c:	00177793          	andi	a5,a4,1
   19130:	eba5                	bnez	a5,191a0 <__sfvwrite_r+0x11e>
   19132:	00c42b83          	lw	s7,12(s0)
   19136:	601c                	ld	a5,0(s0)
   19138:	80000ab7          	lui	s5,0x80000
   1913c:	4c01                	li	s8,0
   1913e:	4901                	li	s2,0
   19140:	fffaca93          	not	s5,s5
   19144:	853e                	mv	a0,a5
   19146:	04090763          	beqz	s2,19194 <__sfvwrite_r+0x112>
   1914a:	20077693          	andi	a3,a4,512
   1914e:	12068963          	beqz	a3,19280 <__sfvwrite_r+0x1fe>
   19152:	19797863          	bgeu	s2,s7,192e2 <__sfvwrite_r+0x260>
   19156:	8cca                	mv	s9,s2
   19158:	8bca                	mv	s7,s2
   1915a:	865e                	mv	a2,s7
   1915c:	85e2                	mv	a1,s8
   1915e:	4ee000ef          	jal	ra,1964c <memmove>
   19162:	4458                	lw	a4,12(s0)
   19164:	601c                	ld	a5,0(s0)
   19166:	89ca                	mv	s3,s2
   19168:	4197073b          	subw	a4,a4,s9
   1916c:	97de                	add	a5,a5,s7
   1916e:	c458                	sw	a4,12(s0)
   19170:	e01c                	sd	a5,0(s0)
   19172:	4901                	li	s2,0
   19174:	010b3783          	ld	a5,16(s6)
   19178:	9c4e                	add	s8,s8,s3
   1917a:	413787b3          	sub	a5,a5,s3
   1917e:	00fb3823          	sd	a5,16(s6)
   19182:	c3c1                	beqz	a5,19202 <__sfvwrite_r+0x180>
   19184:	601c                	ld	a5,0(s0)
   19186:	01041703          	lh	a4,16(s0)
   1918a:	00c42b83          	lw	s7,12(s0)
   1918e:	853e                	mv	a0,a5
   19190:	fa091de3          	bnez	s2,1914a <__sfvwrite_r+0xc8>
   19194:	0004bc03          	ld	s8,0(s1)
   19198:	0084b903          	ld	s2,8(s1)
   1919c:	04c1                	addi	s1,s1,16
   1919e:	b75d                	j	19144 <__sfvwrite_r+0xc2>
   191a0:	4981                	li	s3,0
   191a2:	4501                	li	a0,0
   191a4:	4c81                	li	s9,0
   191a6:	4c01                	li	s8,0
   191a8:	080c0a63          	beqz	s8,1923c <__sfvwrite_r+0x1ba>
   191ac:	c145                	beqz	a0,1924c <__sfvwrite_r+0x1ca>
   191ae:	8bce                	mv	s7,s3
   191b0:	013c7363          	bgeu	s8,s3,191b6 <__sfvwrite_r+0x134>
   191b4:	8be2                	mv	s7,s8
   191b6:	6008                	ld	a0,0(s0)
   191b8:	6c18                	ld	a4,24(s0)
   191ba:	445c                	lw	a5,12(s0)
   191bc:	5014                	lw	a3,32(s0)
   191be:	895e                	mv	s2,s7
   191c0:	00a77663          	bgeu	a4,a0,191cc <__sfvwrite_r+0x14a>
   191c4:	00d78abb          	addw	s5,a5,a3
   191c8:	097acd63          	blt	s5,s7,19262 <__sfvwrite_r+0x1e0>
   191cc:	18dbc763          	blt	s7,a3,1935a <__sfvwrite_r+0x2d8>
   191d0:	603c                	ld	a5,64(s0)
   191d2:	780c                	ld	a1,48(s0)
   191d4:	8666                	mv	a2,s9
   191d6:	8552                	mv	a0,s4
   191d8:	9782                	jalr	a5
   191da:	892a                	mv	s2,a0
   191dc:	04a05663          	blez	a0,19228 <__sfvwrite_r+0x1a6>
   191e0:	0005079b          	sext.w	a5,a0
   191e4:	40f989bb          	subw	s3,s3,a5
   191e8:	4505                	li	a0,1
   191ea:	02098a63          	beqz	s3,1921e <__sfvwrite_r+0x19c>
   191ee:	010b3783          	ld	a5,16(s6)
   191f2:	9cca                	add	s9,s9,s2
   191f4:	412c0c33          	sub	s8,s8,s2
   191f8:	412787b3          	sub	a5,a5,s2
   191fc:	00fb3823          	sd	a5,16(s6)
   19200:	f7c5                	bnez	a5,191a8 <__sfvwrite_r+0x126>
   19202:	4501                	li	a0,0
   19204:	60e6                	ld	ra,88(sp)
   19206:	6446                	ld	s0,80(sp)
   19208:	64a6                	ld	s1,72(sp)
   1920a:	6906                	ld	s2,64(sp)
   1920c:	79e2                	ld	s3,56(sp)
   1920e:	7a42                	ld	s4,48(sp)
   19210:	7aa2                	ld	s5,40(sp)
   19212:	7b02                	ld	s6,32(sp)
   19214:	6be2                	ld	s7,24(sp)
   19216:	6c42                	ld	s8,16(sp)
   19218:	6ca2                	ld	s9,8(sp)
   1921a:	6125                	addi	sp,sp,96
   1921c:	8082                	ret
   1921e:	85a2                	mv	a1,s0
   19220:	8552                	mv	a0,s4
   19222:	892f90ef          	jal	ra,122b4 <_fflush_r>
   19226:	d561                	beqz	a0,191ee <__sfvwrite_r+0x16c>
   19228:	01041783          	lh	a5,16(s0)
   1922c:	0407e793          	ori	a5,a5,64
   19230:	00f41823          	sh	a5,16(s0)
   19234:	557d                	li	a0,-1
   19236:	b7f9                	j	19204 <__sfvwrite_r+0x182>
   19238:	4501                	li	a0,0
   1923a:	8082                	ret
   1923c:	0084bc03          	ld	s8,8(s1)
   19240:	87a6                	mv	a5,s1
   19242:	04c1                	addi	s1,s1,16
   19244:	fe0c0ce3          	beqz	s8,1923c <__sfvwrite_r+0x1ba>
   19248:	0007bc83          	ld	s9,0(a5)
   1924c:	8662                	mv	a2,s8
   1924e:	45a9                	li	a1,10
   19250:	8566                	mv	a0,s9
   19252:	852fc0ef          	jal	ra,152a4 <memchr>
   19256:	14050463          	beqz	a0,1939e <__sfvwrite_r+0x31c>
   1925a:	0505                	addi	a0,a0,1
   1925c:	419509bb          	subw	s3,a0,s9
   19260:	b7b9                	j	191ae <__sfvwrite_r+0x12c>
   19262:	85e6                	mv	a1,s9
   19264:	8656                	mv	a2,s5
   19266:	3e6000ef          	jal	ra,1964c <memmove>
   1926a:	601c                	ld	a5,0(s0)
   1926c:	85a2                	mv	a1,s0
   1926e:	8552                	mv	a0,s4
   19270:	97d6                	add	a5,a5,s5
   19272:	e01c                	sd	a5,0(s0)
   19274:	840f90ef          	jal	ra,122b4 <_fflush_r>
   19278:	f945                	bnez	a0,19228 <__sfvwrite_r+0x1a6>
   1927a:	87d6                	mv	a5,s5
   1927c:	8956                	mv	s2,s5
   1927e:	b79d                	j	191e4 <__sfvwrite_r+0x162>
   19280:	6c18                	ld	a4,24(s0)
   19282:	02f76763          	bltu	a4,a5,192b0 <__sfvwrite_r+0x22e>
   19286:	5018                	lw	a4,32(s0)
   19288:	02e96463          	bltu	s2,a4,192b0 <__sfvwrite_r+0x22e>
   1928c:	86ca                	mv	a3,s2
   1928e:	012af363          	bgeu	s5,s2,19294 <__sfvwrite_r+0x212>
   19292:	86d6                	mv	a3,s5
   19294:	02e6e73b          	remw	a4,a3,a4
   19298:	603c                	ld	a5,64(s0)
   1929a:	780c                	ld	a1,48(s0)
   1929c:	8662                	mv	a2,s8
   1929e:	8552                	mv	a0,s4
   192a0:	9e99                	subw	a3,a3,a4
   192a2:	9782                	jalr	a5
   192a4:	89aa                	mv	s3,a0
   192a6:	f8a051e3          	blez	a0,19228 <__sfvwrite_r+0x1a6>
   192aa:	41390933          	sub	s2,s2,s3
   192ae:	b5d9                	j	19174 <__sfvwrite_r+0xf2>
   192b0:	89de                	mv	s3,s7
   192b2:	01797363          	bgeu	s2,s7,192b8 <__sfvwrite_r+0x236>
   192b6:	89ca                	mv	s3,s2
   192b8:	853e                	mv	a0,a5
   192ba:	864e                	mv	a2,s3
   192bc:	85e2                	mv	a1,s8
   192be:	38e000ef          	jal	ra,1964c <memmove>
   192c2:	4458                	lw	a4,12(s0)
   192c4:	601c                	ld	a5,0(s0)
   192c6:	413706bb          	subw	a3,a4,s3
   192ca:	97ce                	add	a5,a5,s3
   192cc:	c454                	sw	a3,12(s0)
   192ce:	e01c                	sd	a5,0(s0)
   192d0:	fee9                	bnez	a3,192aa <__sfvwrite_r+0x228>
   192d2:	85a2                	mv	a1,s0
   192d4:	8552                	mv	a0,s4
   192d6:	fdff80ef          	jal	ra,122b4 <_fflush_r>
   192da:	f539                	bnez	a0,19228 <__sfvwrite_r+0x1a6>
   192dc:	41390933          	sub	s2,s2,s3
   192e0:	bd51                	j	19174 <__sfvwrite_r+0xf2>
   192e2:	48077693          	andi	a3,a4,1152
   192e6:	cac1                	beqz	a3,19376 <__sfvwrite_r+0x2f4>
   192e8:	5010                	lw	a2,32(s0)
   192ea:	6c0c                	ld	a1,24(s0)
   192ec:	0016169b          	slliw	a3,a2,0x1
   192f0:	9eb1                	addw	a3,a3,a2
   192f2:	8f8d                	sub	a5,a5,a1
   192f4:	01f6d99b          	srliw	s3,a3,0x1f
   192f8:	00078b9b          	sext.w	s7,a5
   192fc:	00d989bb          	addw	s3,s3,a3
   19300:	001b8693          	addi	a3,s7,1
   19304:	4019d99b          	sraiw	s3,s3,0x1
   19308:	96ca                	add	a3,a3,s2
   1930a:	00d9f563          	bgeu	s3,a3,19314 <__sfvwrite_r+0x292>
   1930e:	2785                	addiw	a5,a5,1
   19310:	012789bb          	addw	s3,a5,s2
   19314:	40077713          	andi	a4,a4,1024
   19318:	c32d                	beqz	a4,1937a <__sfvwrite_r+0x2f8>
   1931a:	85ce                	mv	a1,s3
   1931c:	8552                	mv	a0,s4
   1931e:	99bfb0ef          	jal	ra,14cb8 <_malloc_r>
   19322:	8caa                	mv	s9,a0
   19324:	c141                	beqz	a0,193a4 <__sfvwrite_r+0x322>
   19326:	6c0c                	ld	a1,24(s0)
   19328:	865e                	mv	a2,s7
   1932a:	1dc000ef          	jal	ra,19506 <memcpy>
   1932e:	01045783          	lhu	a5,16(s0)
   19332:	b7f7f793          	andi	a5,a5,-1153
   19336:	0807e793          	ori	a5,a5,128
   1933a:	00f41823          	sh	a5,16(s0)
   1933e:	017c8533          	add	a0,s9,s7
   19342:	41798bbb          	subw	s7,s3,s7
   19346:	01943c23          	sd	s9,24(s0)
   1934a:	01742623          	sw	s7,12(s0)
   1934e:	e008                	sd	a0,0(s0)
   19350:	03342023          	sw	s3,32(s0)
   19354:	8cca                	mv	s9,s2
   19356:	8bca                	mv	s7,s2
   19358:	b509                	j	1915a <__sfvwrite_r+0xd8>
   1935a:	865e                	mv	a2,s7
   1935c:	85e6                	mv	a1,s9
   1935e:	2ee000ef          	jal	ra,1964c <memmove>
   19362:	4454                	lw	a3,12(s0)
   19364:	6018                	ld	a4,0(s0)
   19366:	000b879b          	sext.w	a5,s7
   1936a:	417686bb          	subw	a3,a3,s7
   1936e:	975e                	add	a4,a4,s7
   19370:	c454                	sw	a3,12(s0)
   19372:	e018                	sd	a4,0(s0)
   19374:	bd85                	j	191e4 <__sfvwrite_r+0x162>
   19376:	8cde                	mv	s9,s7
   19378:	b3cd                	j	1915a <__sfvwrite_r+0xd8>
   1937a:	864e                	mv	a2,s3
   1937c:	8552                	mv	a0,s4
   1937e:	3e2000ef          	jal	ra,19760 <_realloc_r>
   19382:	8caa                	mv	s9,a0
   19384:	fd4d                	bnez	a0,1933e <__sfvwrite_r+0x2bc>
   19386:	6c0c                	ld	a1,24(s0)
   19388:	8552                	mv	a0,s4
   1938a:	b2af90ef          	jal	ra,126b4 <_free_r>
   1938e:	01041783          	lh	a5,16(s0)
   19392:	4731                	li	a4,12
   19394:	00ea2023          	sw	a4,0(s4)
   19398:	f7f7f793          	andi	a5,a5,-129
   1939c:	bd41                	j	1922c <__sfvwrite_r+0x1aa>
   1939e:	001c099b          	addiw	s3,s8,1
   193a2:	b531                	j	191ae <__sfvwrite_r+0x12c>
   193a4:	4731                	li	a4,12
   193a6:	01041783          	lh	a5,16(s0)
   193aa:	00ea2023          	sw	a4,0(s4)
   193ae:	bdbd                	j	1922c <__sfvwrite_r+0x1aa>

00000000000193b0 <_isatty_r>:
   193b0:	1101                	addi	sp,sp,-32
   193b2:	e822                	sd	s0,16(sp)
   193b4:	e426                	sd	s1,8(sp)
   193b6:	842a                	mv	s0,a0
   193b8:	852e                	mv	a0,a1
   193ba:	ec06                	sd	ra,24(sp)
   193bc:	7801a823          	sw	zero,1936(gp) # 1f700 <errno>
   193c0:	379010ef          	jal	ra,1af38 <_isatty>
   193c4:	57fd                	li	a5,-1
   193c6:	00f50763          	beq	a0,a5,193d4 <_isatty_r+0x24>
   193ca:	60e2                	ld	ra,24(sp)
   193cc:	6442                	ld	s0,16(sp)
   193ce:	64a2                	ld	s1,8(sp)
   193d0:	6105                	addi	sp,sp,32
   193d2:	8082                	ret
   193d4:	7901a783          	lw	a5,1936(gp) # 1f700 <errno>
   193d8:	dbed                	beqz	a5,193ca <_isatty_r+0x1a>
   193da:	60e2                	ld	ra,24(sp)
   193dc:	c01c                	sw	a5,0(s0)
   193de:	6442                	ld	s0,16(sp)
   193e0:	64a2                	ld	s1,8(sp)
   193e2:	6105                	addi	sp,sp,32
   193e4:	8082                	ret

00000000000193e6 <_setlocale_r>:
   193e6:	1101                	addi	sp,sp,-32
   193e8:	ec06                	sd	ra,24(sp)
   193ea:	e822                	sd	s0,16(sp)
   193ec:	e426                	sd	s1,8(sp)
   193ee:	c20d                	beqz	a2,19410 <_setlocale_r+0x2a>
   193f0:	65f5                	lui	a1,0x1d
   193f2:	1c058593          	addi	a1,a1,448 # 1d1c0 <blanks.1+0x58>
   193f6:	8532                	mv	a0,a2
   193f8:	8432                	mv	s0,a2
   193fa:	065000ef          	jal	ra,19c5e <strcmp>
   193fe:	64f5                	lui	s1,0x1d
   19400:	e911                	bnez	a0,19414 <_setlocale_r+0x2e>
   19402:	1b848513          	addi	a0,s1,440 # 1d1b8 <blanks.1+0x50>
   19406:	60e2                	ld	ra,24(sp)
   19408:	6442                	ld	s0,16(sp)
   1940a:	64a2                	ld	s1,8(sp)
   1940c:	6105                	addi	sp,sp,32
   1940e:	8082                	ret
   19410:	64f5                	lui	s1,0x1d
   19412:	bfc5                	j	19402 <_setlocale_r+0x1c>
   19414:	1b848593          	addi	a1,s1,440 # 1d1b8 <blanks.1+0x50>
   19418:	8522                	mv	a0,s0
   1941a:	045000ef          	jal	ra,19c5e <strcmp>
   1941e:	d175                	beqz	a0,19402 <_setlocale_r+0x1c>
   19420:	65f1                	lui	a1,0x1c
   19422:	6c858593          	addi	a1,a1,1736 # 1c6c8 <__clzdi2+0x98>
   19426:	8522                	mv	a0,s0
   19428:	037000ef          	jal	ra,19c5e <strcmp>
   1942c:	d979                	beqz	a0,19402 <_setlocale_r+0x1c>
   1942e:	4501                	li	a0,0
   19430:	bfd9                	j	19406 <_setlocale_r+0x20>

0000000000019432 <__locale_mb_cur_max>:
   19432:	6c81c503          	lbu	a0,1736(gp) # 1f638 <__global_locale+0x160>
   19436:	8082                	ret

0000000000019438 <setlocale>:
   19438:	1101                	addi	sp,sp,-32
   1943a:	ec06                	sd	ra,24(sp)
   1943c:	e822                	sd	s0,16(sp)
   1943e:	e426                	sd	s1,8(sp)
   19440:	c18d                	beqz	a1,19462 <setlocale+0x2a>
   19442:	842e                	mv	s0,a1
   19444:	65f5                	lui	a1,0x1d
   19446:	1c058593          	addi	a1,a1,448 # 1d1c0 <blanks.1+0x58>
   1944a:	8522                	mv	a0,s0
   1944c:	013000ef          	jal	ra,19c5e <strcmp>
   19450:	64f5                	lui	s1,0x1d
   19452:	e911                	bnez	a0,19466 <setlocale+0x2e>
   19454:	1b848513          	addi	a0,s1,440 # 1d1b8 <blanks.1+0x50>
   19458:	60e2                	ld	ra,24(sp)
   1945a:	6442                	ld	s0,16(sp)
   1945c:	64a2                	ld	s1,8(sp)
   1945e:	6105                	addi	sp,sp,32
   19460:	8082                	ret
   19462:	64f5                	lui	s1,0x1d
   19464:	bfc5                	j	19454 <setlocale+0x1c>
   19466:	1b848593          	addi	a1,s1,440 # 1d1b8 <blanks.1+0x50>
   1946a:	8522                	mv	a0,s0
   1946c:	7f2000ef          	jal	ra,19c5e <strcmp>
   19470:	d175                	beqz	a0,19454 <setlocale+0x1c>
   19472:	65f1                	lui	a1,0x1c
   19474:	6c858593          	addi	a1,a1,1736 # 1c6c8 <__clzdi2+0x98>
   19478:	8522                	mv	a0,s0
   1947a:	7e4000ef          	jal	ra,19c5e <strcmp>
   1947e:	d979                	beqz	a0,19454 <setlocale+0x1c>
   19480:	4501                	li	a0,0
   19482:	bfd9                	j	19458 <setlocale+0x20>

0000000000019484 <_lseek_r>:
   19484:	1101                	addi	sp,sp,-32
   19486:	872e                	mv	a4,a1
   19488:	e822                	sd	s0,16(sp)
   1948a:	e426                	sd	s1,8(sp)
   1948c:	85b2                	mv	a1,a2
   1948e:	842a                	mv	s0,a0
   19490:	8636                	mv	a2,a3
   19492:	853a                	mv	a0,a4
   19494:	ec06                	sd	ra,24(sp)
   19496:	7801a823          	sw	zero,1936(gp) # 1f700 <errno>
   1949a:	2d9010ef          	jal	ra,1af72 <_lseek>
   1949e:	57fd                	li	a5,-1
   194a0:	00f50763          	beq	a0,a5,194ae <_lseek_r+0x2a>
   194a4:	60e2                	ld	ra,24(sp)
   194a6:	6442                	ld	s0,16(sp)
   194a8:	64a2                	ld	s1,8(sp)
   194aa:	6105                	addi	sp,sp,32
   194ac:	8082                	ret
   194ae:	7901a783          	lw	a5,1936(gp) # 1f700 <errno>
   194b2:	dbed                	beqz	a5,194a4 <_lseek_r+0x20>
   194b4:	60e2                	ld	ra,24(sp)
   194b6:	c01c                	sw	a5,0(s0)
   194b8:	6442                	ld	s0,16(sp)
   194ba:	64a2                	ld	s1,8(sp)
   194bc:	6105                	addi	sp,sp,32
   194be:	8082                	ret

00000000000194c0 <_mbtowc_r>:
   194c0:	6501b783          	ld	a5,1616(gp) # 1f5c0 <__global_locale+0xe8>
   194c4:	8782                	jr	a5

00000000000194c6 <__ascii_mbtowc>:
   194c6:	c999                	beqz	a1,194dc <__ascii_mbtowc+0x16>
   194c8:	c61d                	beqz	a2,194f6 <__ascii_mbtowc+0x30>
   194ca:	ca95                	beqz	a3,194fe <__ascii_mbtowc+0x38>
   194cc:	00064783          	lbu	a5,0(a2)
   194d0:	c19c                	sw	a5,0(a1)
   194d2:	00064503          	lbu	a0,0(a2)
   194d6:	00a03533          	snez	a0,a0
   194da:	8082                	ret
   194dc:	1141                	addi	sp,sp,-16
   194de:	006c                	addi	a1,sp,12
   194e0:	ce09                	beqz	a2,194fa <__ascii_mbtowc+0x34>
   194e2:	c285                	beqz	a3,19502 <__ascii_mbtowc+0x3c>
   194e4:	00064783          	lbu	a5,0(a2)
   194e8:	c19c                	sw	a5,0(a1)
   194ea:	00064503          	lbu	a0,0(a2)
   194ee:	00a03533          	snez	a0,a0
   194f2:	0141                	addi	sp,sp,16
   194f4:	8082                	ret
   194f6:	4501                	li	a0,0
   194f8:	8082                	ret
   194fa:	4501                	li	a0,0
   194fc:	bfdd                	j	194f2 <__ascii_mbtowc+0x2c>
   194fe:	5579                	li	a0,-2
   19500:	8082                	ret
   19502:	5579                	li	a0,-2
   19504:	b7fd                	j	194f2 <__ascii_mbtowc+0x2c>

0000000000019506 <memcpy>:
   19506:	00b547b3          	xor	a5,a0,a1
   1950a:	8b9d                	andi	a5,a5,7
   1950c:	00c508b3          	add	a7,a0,a2
   19510:	e7b1                	bnez	a5,1955c <memcpy+0x56>
   19512:	479d                	li	a5,7
   19514:	04c7f463          	bgeu	a5,a2,1955c <memcpy+0x56>
   19518:	00757793          	andi	a5,a0,7
   1951c:	872a                	mv	a4,a0
   1951e:	ebb9                	bnez	a5,19574 <memcpy+0x6e>
   19520:	ff88f613          	andi	a2,a7,-8
   19524:	40e606b3          	sub	a3,a2,a4
   19528:	04000793          	li	a5,64
   1952c:	06d7c863          	blt	a5,a3,1959c <memcpy+0x96>
   19530:	86ae                	mv	a3,a1
   19532:	87ba                	mv	a5,a4
   19534:	02c77163          	bgeu	a4,a2,19556 <memcpy+0x50>
   19538:	0006b803          	ld	a6,0(a3) # 2000 <exit-0xe0e8>
   1953c:	07a1                	addi	a5,a5,8
   1953e:	06a1                	addi	a3,a3,8
   19540:	ff07bc23          	sd	a6,-8(a5)
   19544:	fec7eae3          	bltu	a5,a2,19538 <memcpy+0x32>
   19548:	fff60793          	addi	a5,a2,-1
   1954c:	8f99                	sub	a5,a5,a4
   1954e:	9be1                	andi	a5,a5,-8
   19550:	07a1                	addi	a5,a5,8
   19552:	973e                	add	a4,a4,a5
   19554:	95be                	add	a1,a1,a5
   19556:	01176663          	bltu	a4,a7,19562 <memcpy+0x5c>
   1955a:	8082                	ret
   1955c:	872a                	mv	a4,a0
   1955e:	03157e63          	bgeu	a0,a7,1959a <memcpy+0x94>
   19562:	0005c783          	lbu	a5,0(a1)
   19566:	0705                	addi	a4,a4,1
   19568:	0585                	addi	a1,a1,1
   1956a:	fef70fa3          	sb	a5,-1(a4)
   1956e:	fee89ae3          	bne	a7,a4,19562 <memcpy+0x5c>
   19572:	8082                	ret
   19574:	0005c683          	lbu	a3,0(a1)
   19578:	0705                	addi	a4,a4,1
   1957a:	00777793          	andi	a5,a4,7
   1957e:	fed70fa3          	sb	a3,-1(a4)
   19582:	0585                	addi	a1,a1,1
   19584:	dfd1                	beqz	a5,19520 <memcpy+0x1a>
   19586:	0005c683          	lbu	a3,0(a1)
   1958a:	0705                	addi	a4,a4,1
   1958c:	00777793          	andi	a5,a4,7
   19590:	fed70fa3          	sb	a3,-1(a4)
   19594:	0585                	addi	a1,a1,1
   19596:	fff9                	bnez	a5,19574 <memcpy+0x6e>
   19598:	b761                	j	19520 <memcpy+0x1a>
   1959a:	8082                	ret
   1959c:	1141                	addi	sp,sp,-16
   1959e:	e422                	sd	s0,8(sp)
   195a0:	04000413          	li	s0,64
   195a4:	0005b383          	ld	t2,0(a1)
   195a8:	0085b283          	ld	t0,8(a1)
   195ac:	0105bf83          	ld	t6,16(a1)
   195b0:	0185bf03          	ld	t5,24(a1)
   195b4:	0205be83          	ld	t4,32(a1)
   195b8:	0285be03          	ld	t3,40(a1)
   195bc:	0305b303          	ld	t1,48(a1)
   195c0:	0385b803          	ld	a6,56(a1)
   195c4:	61b4                	ld	a3,64(a1)
   195c6:	04870713          	addi	a4,a4,72
   195ca:	40e607b3          	sub	a5,a2,a4
   195ce:	fa773c23          	sd	t2,-72(a4)
   195d2:	fc573023          	sd	t0,-64(a4)
   195d6:	fdf73423          	sd	t6,-56(a4)
   195da:	fde73823          	sd	t5,-48(a4)
   195de:	fdd73c23          	sd	t4,-40(a4)
   195e2:	ffc73023          	sd	t3,-32(a4)
   195e6:	fe673423          	sd	t1,-24(a4)
   195ea:	ff073823          	sd	a6,-16(a4)
   195ee:	fed73c23          	sd	a3,-8(a4)
   195f2:	04858593          	addi	a1,a1,72
   195f6:	faf447e3          	blt	s0,a5,195a4 <memcpy+0x9e>
   195fa:	86ae                	mv	a3,a1
   195fc:	87ba                	mv	a5,a4
   195fe:	02c77163          	bgeu	a4,a2,19620 <memcpy+0x11a>
   19602:	0006b803          	ld	a6,0(a3)
   19606:	07a1                	addi	a5,a5,8
   19608:	06a1                	addi	a3,a3,8
   1960a:	ff07bc23          	sd	a6,-8(a5)
   1960e:	fec7eae3          	bltu	a5,a2,19602 <memcpy+0xfc>
   19612:	fff60793          	addi	a5,a2,-1
   19616:	8f99                	sub	a5,a5,a4
   19618:	9be1                	andi	a5,a5,-8
   1961a:	07a1                	addi	a5,a5,8
   1961c:	973e                	add	a4,a4,a5
   1961e:	95be                	add	a1,a1,a5
   19620:	01176563          	bltu	a4,a7,1962a <memcpy+0x124>
   19624:	6422                	ld	s0,8(sp)
   19626:	0141                	addi	sp,sp,16
   19628:	8082                	ret
   1962a:	0005c783          	lbu	a5,0(a1)
   1962e:	0705                	addi	a4,a4,1
   19630:	0585                	addi	a1,a1,1
   19632:	fef70fa3          	sb	a5,-1(a4)
   19636:	fee887e3          	beq	a7,a4,19624 <memcpy+0x11e>
   1963a:	0005c783          	lbu	a5,0(a1)
   1963e:	0705                	addi	a4,a4,1
   19640:	0585                	addi	a1,a1,1
   19642:	fef70fa3          	sb	a5,-1(a4)
   19646:	fee892e3          	bne	a7,a4,1962a <memcpy+0x124>
   1964a:	bfe9                	j	19624 <memcpy+0x11e>

000000000001964c <memmove>:
   1964c:	02a5f263          	bgeu	a1,a0,19670 <memmove+0x24>
   19650:	00c58733          	add	a4,a1,a2
   19654:	00e57e63          	bgeu	a0,a4,19670 <memmove+0x24>
   19658:	00c507b3          	add	a5,a0,a2
   1965c:	ca1d                	beqz	a2,19692 <memmove+0x46>
   1965e:	fff74683          	lbu	a3,-1(a4)
   19662:	17fd                	addi	a5,a5,-1
   19664:	177d                	addi	a4,a4,-1
   19666:	00d78023          	sb	a3,0(a5)
   1966a:	fef51ae3          	bne	a0,a5,1965e <memmove+0x12>
   1966e:	8082                	ret
   19670:	47fd                	li	a5,31
   19672:	02c7e163          	bltu	a5,a2,19694 <memmove+0x48>
   19676:	87aa                	mv	a5,a0
   19678:	fff60693          	addi	a3,a2,-1
   1967c:	c24d                	beqz	a2,1971e <memmove+0xd2>
   1967e:	0685                	addi	a3,a3,1
   19680:	96be                	add	a3,a3,a5
   19682:	0005c703          	lbu	a4,0(a1)
   19686:	0785                	addi	a5,a5,1
   19688:	0585                	addi	a1,a1,1
   1968a:	fee78fa3          	sb	a4,-1(a5)
   1968e:	fed79ae3          	bne	a5,a3,19682 <memmove+0x36>
   19692:	8082                	ret
   19694:	00b567b3          	or	a5,a0,a1
   19698:	8b9d                	andi	a5,a5,7
   1969a:	efb5                	bnez	a5,19716 <memmove+0xca>
   1969c:	fe060893          	addi	a7,a2,-32
   196a0:	fe08f893          	andi	a7,a7,-32
   196a4:	02088893          	addi	a7,a7,32
   196a8:	011507b3          	add	a5,a0,a7
   196ac:	86ae                	mv	a3,a1
   196ae:	872a                	mv	a4,a0
   196b0:	0006b803          	ld	a6,0(a3)
   196b4:	02068693          	addi	a3,a3,32
   196b8:	02070713          	addi	a4,a4,32
   196bc:	ff073023          	sd	a6,-32(a4)
   196c0:	fe86b803          	ld	a6,-24(a3)
   196c4:	ff073423          	sd	a6,-24(a4)
   196c8:	ff06b803          	ld	a6,-16(a3)
   196cc:	ff073823          	sd	a6,-16(a4)
   196d0:	ff86b803          	ld	a6,-8(a3)
   196d4:	ff073c23          	sd	a6,-8(a4)
   196d8:	fcf71ce3          	bne	a4,a5,196b0 <memmove+0x64>
   196dc:	01867713          	andi	a4,a2,24
   196e0:	95c6                	add	a1,a1,a7
   196e2:	01f67813          	andi	a6,a2,31
   196e6:	cf0d                	beqz	a4,19720 <memmove+0xd4>
   196e8:	86ae                	mv	a3,a1
   196ea:	873e                	mv	a4,a5
   196ec:	01078eb3          	add	t4,a5,a6
   196f0:	4e1d                	li	t3,7
   196f2:	0006b303          	ld	t1,0(a3)
   196f6:	0721                	addi	a4,a4,8
   196f8:	40ee88b3          	sub	a7,t4,a4
   196fc:	fe673c23          	sd	t1,-8(a4)
   19700:	06a1                	addi	a3,a3,8
   19702:	ff1e68e3          	bltu	t3,a7,196f2 <memmove+0xa6>
   19706:	ff880713          	addi	a4,a6,-8
   1970a:	9b61                	andi	a4,a4,-8
   1970c:	0721                	addi	a4,a4,8
   1970e:	8a1d                	andi	a2,a2,7
   19710:	97ba                	add	a5,a5,a4
   19712:	95ba                	add	a1,a1,a4
   19714:	b795                	j	19678 <memmove+0x2c>
   19716:	fff60693          	addi	a3,a2,-1
   1971a:	87aa                	mv	a5,a0
   1971c:	b78d                	j	1967e <memmove+0x32>
   1971e:	8082                	ret
   19720:	8642                	mv	a2,a6
   19722:	bf99                	j	19678 <memmove+0x2c>

0000000000019724 <_read_r>:
   19724:	1101                	addi	sp,sp,-32
   19726:	872e                	mv	a4,a1
   19728:	e822                	sd	s0,16(sp)
   1972a:	e426                	sd	s1,8(sp)
   1972c:	85b2                	mv	a1,a2
   1972e:	842a                	mv	s0,a0
   19730:	8636                	mv	a2,a3
   19732:	853a                	mv	a0,a4
   19734:	ec06                	sd	ra,24(sp)
   19736:	7801a823          	sw	zero,1936(gp) # 1f700 <errno>
   1973a:	065010ef          	jal	ra,1af9e <_read>
   1973e:	57fd                	li	a5,-1
   19740:	00f50763          	beq	a0,a5,1974e <_read_r+0x2a>
   19744:	60e2                	ld	ra,24(sp)
   19746:	6442                	ld	s0,16(sp)
   19748:	64a2                	ld	s1,8(sp)
   1974a:	6105                	addi	sp,sp,32
   1974c:	8082                	ret
   1974e:	7901a783          	lw	a5,1936(gp) # 1f700 <errno>
   19752:	dbed                	beqz	a5,19744 <_read_r+0x20>
   19754:	60e2                	ld	ra,24(sp)
   19756:	c01c                	sw	a5,0(s0)
   19758:	6442                	ld	s0,16(sp)
   1975a:	64a2                	ld	s1,8(sp)
   1975c:	6105                	addi	sp,sp,32
   1975e:	8082                	ret

0000000000019760 <_realloc_r>:
   19760:	715d                	addi	sp,sp,-80
   19762:	f84a                	sd	s2,48(sp)
   19764:	e486                	sd	ra,72(sp)
   19766:	e0a2                	sd	s0,64(sp)
   19768:	fc26                	sd	s1,56(sp)
   1976a:	f44e                	sd	s3,40(sp)
   1976c:	f052                	sd	s4,32(sp)
   1976e:	ec56                	sd	s5,24(sp)
   19770:	e85a                	sd	s6,16(sp)
   19772:	e45e                	sd	s7,8(sp)
   19774:	e062                	sd	s8,0(sp)
   19776:	8932                	mv	s2,a2
   19778:	14058863          	beqz	a1,198c8 <_realloc_r+0x168>
   1977c:	842e                	mv	s0,a1
   1977e:	89aa                	mv	s3,a0
   19780:	bb3fb0ef          	jal	ra,15332 <__malloc_lock>
   19784:	ff843783          	ld	a5,-8(s0)
   19788:	01790493          	addi	s1,s2,23
   1978c:	02e00713          	li	a4,46
   19790:	ff040a93          	addi	s5,s0,-16
   19794:	ffc7fa13          	andi	s4,a5,-4
   19798:	0a977d63          	bgeu	a4,s1,19852 <_realloc_r+0xf2>
   1979c:	80000737          	lui	a4,0x80000
   197a0:	98c1                	andi	s1,s1,-16
   197a2:	fff74713          	not	a4,a4
   197a6:	0a976a63          	bltu	a4,s1,1985a <_realloc_r+0xfa>
   197aa:	0b24e863          	bltu	s1,s2,1985a <_realloc_r+0xfa>
   197ae:	0c9a5063          	bge	s4,s1,1986e <_realloc_r+0x10e>
   197b2:	677d                	lui	a4,0x1f
   197b4:	cc870c13          	addi	s8,a4,-824 # 1ecc8 <__malloc_av_>
   197b8:	010c3603          	ld	a2,16(s8)
   197bc:	014a86b3          	add	a3,s5,s4
   197c0:	6698                	ld	a4,8(a3)
   197c2:	14d60263          	beq	a2,a3,19906 <_realloc_r+0x1a6>
   197c6:	ffe77613          	andi	a2,a4,-2
   197ca:	9636                	add	a2,a2,a3
   197cc:	6610                	ld	a2,8(a2)
   197ce:	8a05                	andi	a2,a2,1
   197d0:	e275                	bnez	a2,198b4 <_realloc_r+0x154>
   197d2:	9b71                	andi	a4,a4,-4
   197d4:	00ea0633          	add	a2,s4,a4
   197d8:	08965663          	bge	a2,s1,19864 <_realloc_r+0x104>
   197dc:	8b85                	andi	a5,a5,1
   197de:	e38d                	bnez	a5,19800 <_realloc_r+0xa0>
   197e0:	ff043b83          	ld	s7,-16(s0)
   197e4:	417a8bb3          	sub	s7,s5,s7
   197e8:	008bb783          	ld	a5,8(s7)
   197ec:	9bf1                	andi	a5,a5,-4
   197ee:	973e                	add	a4,a4,a5
   197f0:	01470b33          	add	s6,a4,s4
   197f4:	249b5163          	bge	s6,s1,19a36 <_realloc_r+0x2d6>
   197f8:	00fa0b33          	add	s6,s4,a5
   197fc:	1c9b5663          	bge	s6,s1,199c8 <_realloc_r+0x268>
   19800:	85ca                	mv	a1,s2
   19802:	854e                	mv	a0,s3
   19804:	cb4fb0ef          	jal	ra,14cb8 <_malloc_r>
   19808:	892a                	mv	s2,a0
   1980a:	2e050563          	beqz	a0,19af4 <_realloc_r+0x394>
   1980e:	ff843783          	ld	a5,-8(s0)
   19812:	ff050713          	addi	a4,a0,-16
   19816:	9bf9                	andi	a5,a5,-2
   19818:	97d6                	add	a5,a5,s5
   1981a:	1ae78263          	beq	a5,a4,199be <_realloc_r+0x25e>
   1981e:	ff8a0613          	addi	a2,s4,-8
   19822:	04800793          	li	a5,72
   19826:	20c7e463          	bltu	a5,a2,19a2e <_realloc_r+0x2ce>
   1982a:	02700713          	li	a4,39
   1982e:	16c76b63          	bltu	a4,a2,199a4 <_realloc_r+0x244>
   19832:	87aa                	mv	a5,a0
   19834:	8722                	mv	a4,s0
   19836:	6314                	ld	a3,0(a4)
   19838:	e394                	sd	a3,0(a5)
   1983a:	6714                	ld	a3,8(a4)
   1983c:	e794                	sd	a3,8(a5)
   1983e:	6b18                	ld	a4,16(a4)
   19840:	eb98                	sd	a4,16(a5)
   19842:	854e                	mv	a0,s3
   19844:	85a2                	mv	a1,s0
   19846:	e6ff80ef          	jal	ra,126b4 <_free_r>
   1984a:	854e                	mv	a0,s3
   1984c:	ae9fb0ef          	jal	ra,15334 <__malloc_unlock>
   19850:	a0a9                	j	1989a <_realloc_r+0x13a>
   19852:	02000493          	li	s1,32
   19856:	f524fce3          	bgeu	s1,s2,197ae <_realloc_r+0x4e>
   1985a:	47b1                	li	a5,12
   1985c:	00f9a023          	sw	a5,0(s3)
   19860:	4901                	li	s2,0
   19862:	a825                	j	1989a <_realloc_r+0x13a>
   19864:	6e9c                	ld	a5,24(a3)
   19866:	6a98                	ld	a4,16(a3)
   19868:	8a32                	mv	s4,a2
   1986a:	ef1c                	sd	a5,24(a4)
   1986c:	eb98                	sd	a4,16(a5)
   1986e:	008ab783          	ld	a5,8(s5) # ffffffff80000008 <__BSS_END__+0xffffffff7ffe0898>
   19872:	409a06b3          	sub	a3,s4,s1
   19876:	467d                	li	a2,31
   19878:	8b85                	andi	a5,a5,1
   1987a:	014a8733          	add	a4,s5,s4
   1987e:	06d66363          	bltu	a2,a3,198e4 <_realloc_r+0x184>
   19882:	0147e7b3          	or	a5,a5,s4
   19886:	00fab423          	sd	a5,8(s5)
   1988a:	671c                	ld	a5,8(a4)
   1988c:	0017e793          	ori	a5,a5,1
   19890:	e71c                	sd	a5,8(a4)
   19892:	854e                	mv	a0,s3
   19894:	aa1fb0ef          	jal	ra,15334 <__malloc_unlock>
   19898:	8922                	mv	s2,s0
   1989a:	60a6                	ld	ra,72(sp)
   1989c:	6406                	ld	s0,64(sp)
   1989e:	74e2                	ld	s1,56(sp)
   198a0:	79a2                	ld	s3,40(sp)
   198a2:	7a02                	ld	s4,32(sp)
   198a4:	6ae2                	ld	s5,24(sp)
   198a6:	6b42                	ld	s6,16(sp)
   198a8:	6ba2                	ld	s7,8(sp)
   198aa:	6c02                	ld	s8,0(sp)
   198ac:	854a                	mv	a0,s2
   198ae:	7942                	ld	s2,48(sp)
   198b0:	6161                	addi	sp,sp,80
   198b2:	8082                	ret
   198b4:	8b85                	andi	a5,a5,1
   198b6:	f7a9                	bnez	a5,19800 <_realloc_r+0xa0>
   198b8:	ff043b83          	ld	s7,-16(s0)
   198bc:	417a8bb3          	sub	s7,s5,s7
   198c0:	008bb783          	ld	a5,8(s7)
   198c4:	9bf1                	andi	a5,a5,-4
   198c6:	bf0d                	j	197f8 <_realloc_r+0x98>
   198c8:	6406                	ld	s0,64(sp)
   198ca:	60a6                	ld	ra,72(sp)
   198cc:	74e2                	ld	s1,56(sp)
   198ce:	7942                	ld	s2,48(sp)
   198d0:	79a2                	ld	s3,40(sp)
   198d2:	7a02                	ld	s4,32(sp)
   198d4:	6ae2                	ld	s5,24(sp)
   198d6:	6b42                	ld	s6,16(sp)
   198d8:	6ba2                	ld	s7,8(sp)
   198da:	6c02                	ld	s8,0(sp)
   198dc:	85b2                	mv	a1,a2
   198de:	6161                	addi	sp,sp,80
   198e0:	bd8fb06f          	j	14cb8 <_malloc_r>
   198e4:	8fc5                	or	a5,a5,s1
   198e6:	00fab423          	sd	a5,8(s5)
   198ea:	009a85b3          	add	a1,s5,s1
   198ee:	0016e693          	ori	a3,a3,1
   198f2:	e594                	sd	a3,8(a1)
   198f4:	671c                	ld	a5,8(a4)
   198f6:	05c1                	addi	a1,a1,16
   198f8:	854e                	mv	a0,s3
   198fa:	0017e793          	ori	a5,a5,1
   198fe:	e71c                	sd	a5,8(a4)
   19900:	db5f80ef          	jal	ra,126b4 <_free_r>
   19904:	b779                	j	19892 <_realloc_r+0x132>
   19906:	9b71                	andi	a4,a4,-4
   19908:	014706b3          	add	a3,a4,s4
   1990c:	02048613          	addi	a2,s1,32
   19910:	1ac6da63          	bge	a3,a2,19ac4 <_realloc_r+0x364>
   19914:	8b85                	andi	a5,a5,1
   19916:	ee0795e3          	bnez	a5,19800 <_realloc_r+0xa0>
   1991a:	ff043b83          	ld	s7,-16(s0)
   1991e:	417a8bb3          	sub	s7,s5,s7
   19922:	008bb783          	ld	a5,8(s7)
   19926:	9bf1                	andi	a5,a5,-4
   19928:	973e                	add	a4,a4,a5
   1992a:	01470b33          	add	s6,a4,s4
   1992e:	eccb45e3          	blt	s6,a2,197f8 <_realloc_r+0x98>
   19932:	018bb783          	ld	a5,24(s7)
   19936:	010bb703          	ld	a4,16(s7)
   1993a:	ff8a0613          	addi	a2,s4,-8
   1993e:	04800693          	li	a3,72
   19942:	ef1c                	sd	a5,24(a4)
   19944:	eb98                	sd	a4,16(a5)
   19946:	010b8913          	addi	s2,s7,16
   1994a:	1cc6e363          	bltu	a3,a2,19b10 <_realloc_r+0x3b0>
   1994e:	02700713          	li	a4,39
   19952:	87ca                	mv	a5,s2
   19954:	00c77f63          	bgeu	a4,a2,19972 <_realloc_r+0x212>
   19958:	6018                	ld	a4,0(s0)
   1995a:	03700793          	li	a5,55
   1995e:	00ebb823          	sd	a4,16(s7)
   19962:	6418                	ld	a4,8(s0)
   19964:	00ebbc23          	sd	a4,24(s7)
   19968:	1ac7e963          	bltu	a5,a2,19b1a <_realloc_r+0x3ba>
   1996c:	0441                	addi	s0,s0,16
   1996e:	020b8793          	addi	a5,s7,32
   19972:	6018                	ld	a4,0(s0)
   19974:	e398                	sd	a4,0(a5)
   19976:	6418                	ld	a4,8(s0)
   19978:	e798                	sd	a4,8(a5)
   1997a:	6818                	ld	a4,16(s0)
   1997c:	eb98                	sd	a4,16(a5)
   1997e:	009b8733          	add	a4,s7,s1
   19982:	409b07b3          	sub	a5,s6,s1
   19986:	00ec3823          	sd	a4,16(s8)
   1998a:	0017e793          	ori	a5,a5,1
   1998e:	e71c                	sd	a5,8(a4)
   19990:	008bb783          	ld	a5,8(s7)
   19994:	854e                	mv	a0,s3
   19996:	8b85                	andi	a5,a5,1
   19998:	8fc5                	or	a5,a5,s1
   1999a:	00fbb423          	sd	a5,8(s7)
   1999e:	997fb0ef          	jal	ra,15334 <__malloc_unlock>
   199a2:	bde5                	j	1989a <_realloc_r+0x13a>
   199a4:	6014                	ld	a3,0(s0)
   199a6:	03700713          	li	a4,55
   199aa:	e114                	sd	a3,0(a0)
   199ac:	6414                	ld	a3,8(s0)
   199ae:	e514                	sd	a3,8(a0)
   199b0:	0ec76f63          	bltu	a4,a2,19aae <_realloc_r+0x34e>
   199b4:	01040713          	addi	a4,s0,16
   199b8:	01050793          	addi	a5,a0,16
   199bc:	bdad                	j	19836 <_realloc_r+0xd6>
   199be:	ff853783          	ld	a5,-8(a0)
   199c2:	9bf1                	andi	a5,a5,-4
   199c4:	9a3e                	add	s4,s4,a5
   199c6:	b565                	j	1986e <_realloc_r+0x10e>
   199c8:	018bb783          	ld	a5,24(s7)
   199cc:	010bb703          	ld	a4,16(s7)
   199d0:	ff8a0613          	addi	a2,s4,-8
   199d4:	04800693          	li	a3,72
   199d8:	ef1c                	sd	a5,24(a4)
   199da:	eb98                	sd	a4,16(a5)
   199dc:	010b8913          	addi	s2,s7,16
   199e0:	0cc6e263          	bltu	a3,a2,19aa4 <_realloc_r+0x344>
   199e4:	02700713          	li	a4,39
   199e8:	87ca                	mv	a5,s2
   199ea:	02c77863          	bgeu	a4,a2,19a1a <_realloc_r+0x2ba>
   199ee:	6018                	ld	a4,0(s0)
   199f0:	03700793          	li	a5,55
   199f4:	00ebb823          	sd	a4,16(s7)
   199f8:	6418                	ld	a4,8(s0)
   199fa:	00ebbc23          	sd	a4,24(s7)
   199fe:	0ec7f763          	bgeu	a5,a2,19aec <_realloc_r+0x38c>
   19a02:	681c                	ld	a5,16(s0)
   19a04:	02fbb023          	sd	a5,32(s7)
   19a08:	6c1c                	ld	a5,24(s0)
   19a0a:	02fbb423          	sd	a5,40(s7)
   19a0e:	06d60f63          	beq	a2,a3,19a8c <_realloc_r+0x32c>
   19a12:	02040413          	addi	s0,s0,32
   19a16:	030b8793          	addi	a5,s7,48
   19a1a:	6018                	ld	a4,0(s0)
   19a1c:	e398                	sd	a4,0(a5)
   19a1e:	6418                	ld	a4,8(s0)
   19a20:	e798                	sd	a4,8(a5)
   19a22:	6818                	ld	a4,16(s0)
   19a24:	eb98                	sd	a4,16(a5)
   19a26:	844a                	mv	s0,s2
   19a28:	8a5a                	mv	s4,s6
   19a2a:	8ade                	mv	s5,s7
   19a2c:	b589                	j	1986e <_realloc_r+0x10e>
   19a2e:	85a2                	mv	a1,s0
   19a30:	c1dff0ef          	jal	ra,1964c <memmove>
   19a34:	b539                	j	19842 <_realloc_r+0xe2>
   19a36:	6e9c                	ld	a5,24(a3)
   19a38:	6a98                	ld	a4,16(a3)
   19a3a:	ff8a0613          	addi	a2,s4,-8
   19a3e:	04800693          	li	a3,72
   19a42:	ef1c                	sd	a5,24(a4)
   19a44:	eb98                	sd	a4,16(a5)
   19a46:	010bb703          	ld	a4,16(s7)
   19a4a:	018bb783          	ld	a5,24(s7)
   19a4e:	010b8913          	addi	s2,s7,16
   19a52:	ef1c                	sd	a5,24(a4)
   19a54:	eb98                	sd	a4,16(a5)
   19a56:	04c6e763          	bltu	a3,a2,19aa4 <_realloc_r+0x344>
   19a5a:	02700713          	li	a4,39
   19a5e:	87ca                	mv	a5,s2
   19a60:	fac77de3          	bgeu	a4,a2,19a1a <_realloc_r+0x2ba>
   19a64:	6018                	ld	a4,0(s0)
   19a66:	03700793          	li	a5,55
   19a6a:	00ebb823          	sd	a4,16(s7)
   19a6e:	6418                	ld	a4,8(s0)
   19a70:	00ebbc23          	sd	a4,24(s7)
   19a74:	06c7fc63          	bgeu	a5,a2,19aec <_realloc_r+0x38c>
   19a78:	6818                	ld	a4,16(s0)
   19a7a:	04800793          	li	a5,72
   19a7e:	02ebb023          	sd	a4,32(s7)
   19a82:	6c18                	ld	a4,24(s0)
   19a84:	02ebb423          	sd	a4,40(s7)
   19a88:	f8f615e3          	bne	a2,a5,19a12 <_realloc_r+0x2b2>
   19a8c:	7018                	ld	a4,32(s0)
   19a8e:	040b8793          	addi	a5,s7,64
   19a92:	03040413          	addi	s0,s0,48
   19a96:	02ebb823          	sd	a4,48(s7)
   19a9a:	ff843703          	ld	a4,-8(s0)
   19a9e:	02ebbc23          	sd	a4,56(s7)
   19aa2:	bfa5                	j	19a1a <_realloc_r+0x2ba>
   19aa4:	85a2                	mv	a1,s0
   19aa6:	854a                	mv	a0,s2
   19aa8:	ba5ff0ef          	jal	ra,1964c <memmove>
   19aac:	bfad                	j	19a26 <_realloc_r+0x2c6>
   19aae:	6818                	ld	a4,16(s0)
   19ab0:	e918                	sd	a4,16(a0)
   19ab2:	6c18                	ld	a4,24(s0)
   19ab4:	ed18                	sd	a4,24(a0)
   19ab6:	04f60463          	beq	a2,a5,19afe <_realloc_r+0x39e>
   19aba:	02040713          	addi	a4,s0,32
   19abe:	02050793          	addi	a5,a0,32
   19ac2:	bb95                	j	19836 <_realloc_r+0xd6>
   19ac4:	9aa6                	add	s5,s5,s1
   19ac6:	409687b3          	sub	a5,a3,s1
   19aca:	015c3823          	sd	s5,16(s8)
   19ace:	0017e793          	ori	a5,a5,1
   19ad2:	00fab423          	sd	a5,8(s5)
   19ad6:	ff843783          	ld	a5,-8(s0)
   19ada:	854e                	mv	a0,s3
   19adc:	8922                	mv	s2,s0
   19ade:	8b85                	andi	a5,a5,1
   19ae0:	8fc5                	or	a5,a5,s1
   19ae2:	fef43c23          	sd	a5,-8(s0)
   19ae6:	84ffb0ef          	jal	ra,15334 <__malloc_unlock>
   19aea:	bb45                	j	1989a <_realloc_r+0x13a>
   19aec:	0441                	addi	s0,s0,16
   19aee:	020b8793          	addi	a5,s7,32
   19af2:	b725                	j	19a1a <_realloc_r+0x2ba>
   19af4:	854e                	mv	a0,s3
   19af6:	83ffb0ef          	jal	ra,15334 <__malloc_unlock>
   19afa:	4901                	li	s2,0
   19afc:	bb79                	j	1989a <_realloc_r+0x13a>
   19afe:	7014                	ld	a3,32(s0)
   19b00:	03040713          	addi	a4,s0,48
   19b04:	03050793          	addi	a5,a0,48
   19b08:	f114                	sd	a3,32(a0)
   19b0a:	7414                	ld	a3,40(s0)
   19b0c:	f514                	sd	a3,40(a0)
   19b0e:	b325                	j	19836 <_realloc_r+0xd6>
   19b10:	85a2                	mv	a1,s0
   19b12:	854a                	mv	a0,s2
   19b14:	b39ff0ef          	jal	ra,1964c <memmove>
   19b18:	b59d                	j	1997e <_realloc_r+0x21e>
   19b1a:	681c                	ld	a5,16(s0)
   19b1c:	02fbb023          	sd	a5,32(s7)
   19b20:	6c1c                	ld	a5,24(s0)
   19b22:	02fbb423          	sd	a5,40(s7)
   19b26:	00d60763          	beq	a2,a3,19b34 <_realloc_r+0x3d4>
   19b2a:	02040413          	addi	s0,s0,32
   19b2e:	030b8793          	addi	a5,s7,48
   19b32:	b581                	j	19972 <_realloc_r+0x212>
   19b34:	7018                	ld	a4,32(s0)
   19b36:	040b8793          	addi	a5,s7,64
   19b3a:	03040413          	addi	s0,s0,48
   19b3e:	02ebb823          	sd	a4,48(s7)
   19b42:	ff843703          	ld	a4,-8(s0)
   19b46:	02ebbc23          	sd	a4,56(s7)
   19b4a:	b525                	j	19972 <_realloc_r+0x212>

0000000000019b4c <cleanup_glue>:
   19b4c:	7179                	addi	sp,sp,-48
   19b4e:	e84a                	sd	s2,16(sp)
   19b50:	0005b903          	ld	s2,0(a1)
   19b54:	f022                	sd	s0,32(sp)
   19b56:	ec26                	sd	s1,24(sp)
   19b58:	f406                	sd	ra,40(sp)
   19b5a:	e44e                	sd	s3,8(sp)
   19b5c:	e052                	sd	s4,0(sp)
   19b5e:	842e                	mv	s0,a1
   19b60:	84aa                	mv	s1,a0
   19b62:	02090b63          	beqz	s2,19b98 <cleanup_glue+0x4c>
   19b66:	00093983          	ld	s3,0(s2)
   19b6a:	02098363          	beqz	s3,19b90 <cleanup_glue+0x44>
   19b6e:	0009ba03          	ld	s4,0(s3)
   19b72:	000a0b63          	beqz	s4,19b88 <cleanup_glue+0x3c>
   19b76:	000a3583          	ld	a1,0(s4)
   19b7a:	c199                	beqz	a1,19b80 <cleanup_glue+0x34>
   19b7c:	fd1ff0ef          	jal	ra,19b4c <cleanup_glue>
   19b80:	85d2                	mv	a1,s4
   19b82:	8526                	mv	a0,s1
   19b84:	b31f80ef          	jal	ra,126b4 <_free_r>
   19b88:	85ce                	mv	a1,s3
   19b8a:	8526                	mv	a0,s1
   19b8c:	b29f80ef          	jal	ra,126b4 <_free_r>
   19b90:	85ca                	mv	a1,s2
   19b92:	8526                	mv	a0,s1
   19b94:	b21f80ef          	jal	ra,126b4 <_free_r>
   19b98:	85a2                	mv	a1,s0
   19b9a:	7402                	ld	s0,32(sp)
   19b9c:	70a2                	ld	ra,40(sp)
   19b9e:	6942                	ld	s2,16(sp)
   19ba0:	69a2                	ld	s3,8(sp)
   19ba2:	6a02                	ld	s4,0(sp)
   19ba4:	8526                	mv	a0,s1
   19ba6:	64e2                	ld	s1,24(sp)
   19ba8:	6145                	addi	sp,sp,48
   19baa:	b0bf806f          	j	126b4 <_free_r>

0000000000019bae <_reclaim_reent>:
   19bae:	7581b783          	ld	a5,1880(gp) # 1f6c8 <_impure_ptr>
   19bb2:	0aa78563          	beq	a5,a0,19c5c <_reclaim_reent+0xae>
   19bb6:	7d2c                	ld	a1,120(a0)
   19bb8:	7179                	addi	sp,sp,-48
   19bba:	ec26                	sd	s1,24(sp)
   19bbc:	f406                	sd	ra,40(sp)
   19bbe:	f022                	sd	s0,32(sp)
   19bc0:	e84a                	sd	s2,16(sp)
   19bc2:	e44e                	sd	s3,8(sp)
   19bc4:	84aa                	mv	s1,a0
   19bc6:	c58d                	beqz	a1,19bf0 <_reclaim_reent+0x42>
   19bc8:	4901                	li	s2,0
   19bca:	20000993          	li	s3,512
   19bce:	012587b3          	add	a5,a1,s2
   19bd2:	6380                	ld	s0,0(a5)
   19bd4:	c801                	beqz	s0,19be4 <_reclaim_reent+0x36>
   19bd6:	85a2                	mv	a1,s0
   19bd8:	6000                	ld	s0,0(s0)
   19bda:	8526                	mv	a0,s1
   19bdc:	ad9f80ef          	jal	ra,126b4 <_free_r>
   19be0:	f87d                	bnez	s0,19bd6 <_reclaim_reent+0x28>
   19be2:	7cac                	ld	a1,120(s1)
   19be4:	0921                	addi	s2,s2,8
   19be6:	ff3914e3          	bne	s2,s3,19bce <_reclaim_reent+0x20>
   19bea:	8526                	mv	a0,s1
   19bec:	ac9f80ef          	jal	ra,126b4 <_free_r>
   19bf0:	70ac                	ld	a1,96(s1)
   19bf2:	c581                	beqz	a1,19bfa <_reclaim_reent+0x4c>
   19bf4:	8526                	mv	a0,s1
   19bf6:	abff80ef          	jal	ra,126b4 <_free_r>
   19bfa:	1f84b403          	ld	s0,504(s1)
   19bfe:	cc01                	beqz	s0,19c16 <_reclaim_reent+0x68>
   19c00:	20048913          	addi	s2,s1,512
   19c04:	01240963          	beq	s0,s2,19c16 <_reclaim_reent+0x68>
   19c08:	85a2                	mv	a1,s0
   19c0a:	6000                	ld	s0,0(s0)
   19c0c:	8526                	mv	a0,s1
   19c0e:	aa7f80ef          	jal	ra,126b4 <_free_r>
   19c12:	fe891be3          	bne	s2,s0,19c08 <_reclaim_reent+0x5a>
   19c16:	64cc                	ld	a1,136(s1)
   19c18:	c581                	beqz	a1,19c20 <_reclaim_reent+0x72>
   19c1a:	8526                	mv	a0,s1
   19c1c:	a99f80ef          	jal	ra,126b4 <_free_r>
   19c20:	48bc                	lw	a5,80(s1)
   19c22:	c795                	beqz	a5,19c4e <_reclaim_reent+0xa0>
   19c24:	6cbc                	ld	a5,88(s1)
   19c26:	8526                	mv	a0,s1
   19c28:	9782                	jalr	a5
   19c2a:	5204b403          	ld	s0,1312(s1)
   19c2e:	c005                	beqz	s0,19c4e <_reclaim_reent+0xa0>
   19c30:	600c                	ld	a1,0(s0)
   19c32:	c581                	beqz	a1,19c3a <_reclaim_reent+0x8c>
   19c34:	8526                	mv	a0,s1
   19c36:	f17ff0ef          	jal	ra,19b4c <cleanup_glue>
   19c3a:	85a2                	mv	a1,s0
   19c3c:	7402                	ld	s0,32(sp)
   19c3e:	70a2                	ld	ra,40(sp)
   19c40:	6942                	ld	s2,16(sp)
   19c42:	69a2                	ld	s3,8(sp)
   19c44:	8526                	mv	a0,s1
   19c46:	64e2                	ld	s1,24(sp)
   19c48:	6145                	addi	sp,sp,48
   19c4a:	a6bf806f          	j	126b4 <_free_r>
   19c4e:	70a2                	ld	ra,40(sp)
   19c50:	7402                	ld	s0,32(sp)
   19c52:	64e2                	ld	s1,24(sp)
   19c54:	6942                	ld	s2,16(sp)
   19c56:	69a2                	ld	s3,8(sp)
   19c58:	6145                	addi	sp,sp,48
   19c5a:	8082                	ret
   19c5c:	8082                	ret

0000000000019c5e <strcmp>:
   19c5e:	00b56733          	or	a4,a0,a1
   19c62:	53fd                	li	t2,-1
   19c64:	8b1d                	andi	a4,a4,7
   19c66:	eb4d                	bnez	a4,19d18 <strcmp+0xba>
   19c68:	00006797          	auipc	a5,0x6
   19c6c:	a407b783          	ld	a5,-1472(a5) # 1f6a8 <mask>
   19c70:	6110                	ld	a2,0(a0)
   19c72:	6194                	ld	a3,0(a1)
   19c74:	00f672b3          	and	t0,a2,a5
   19c78:	00f66333          	or	t1,a2,a5
   19c7c:	92be                	add	t0,t0,a5
   19c7e:	0062e2b3          	or	t0,t0,t1
   19c82:	0a729963          	bne	t0,t2,19d34 <strcmp+0xd6>
   19c86:	02d61e63          	bne	a2,a3,19cc2 <strcmp+0x64>
   19c8a:	6510                	ld	a2,8(a0)
   19c8c:	6594                	ld	a3,8(a1)
   19c8e:	00f672b3          	and	t0,a2,a5
   19c92:	00f66333          	or	t1,a2,a5
   19c96:	92be                	add	t0,t0,a5
   19c98:	0062e2b3          	or	t0,t0,t1
   19c9c:	08729a63          	bne	t0,t2,19d30 <strcmp+0xd2>
   19ca0:	02d61163          	bne	a2,a3,19cc2 <strcmp+0x64>
   19ca4:	6910                	ld	a2,16(a0)
   19ca6:	6994                	ld	a3,16(a1)
   19ca8:	00f672b3          	and	t0,a2,a5
   19cac:	00f66333          	or	t1,a2,a5
   19cb0:	92be                	add	t0,t0,a5
   19cb2:	0062e2b3          	or	t0,t0,t1
   19cb6:	08729363          	bne	t0,t2,19d3c <strcmp+0xde>
   19cba:	0561                	addi	a0,a0,24
   19cbc:	05e1                	addi	a1,a1,24
   19cbe:	fad609e3          	beq	a2,a3,19c70 <strcmp+0x12>
   19cc2:	03061713          	slli	a4,a2,0x30
   19cc6:	03069793          	slli	a5,a3,0x30
   19cca:	02f71863          	bne	a4,a5,19cfa <strcmp+0x9c>
   19cce:	02061713          	slli	a4,a2,0x20
   19cd2:	02069793          	slli	a5,a3,0x20
   19cd6:	02f71263          	bne	a4,a5,19cfa <strcmp+0x9c>
   19cda:	01061713          	slli	a4,a2,0x10
   19cde:	01069793          	slli	a5,a3,0x10
   19ce2:	00f71c63          	bne	a4,a5,19cfa <strcmp+0x9c>
   19ce6:	03065713          	srli	a4,a2,0x30
   19cea:	0306d793          	srli	a5,a3,0x30
   19cee:	40f70533          	sub	a0,a4,a5
   19cf2:	0ff57593          	zext.b	a1,a0
   19cf6:	e991                	bnez	a1,19d0a <strcmp+0xac>
   19cf8:	8082                	ret
   19cfa:	9341                	srli	a4,a4,0x30
   19cfc:	93c1                	srli	a5,a5,0x30
   19cfe:	40f70533          	sub	a0,a4,a5
   19d02:	0ff57593          	zext.b	a1,a0
   19d06:	e191                	bnez	a1,19d0a <strcmp+0xac>
   19d08:	8082                	ret
   19d0a:	0ff77713          	zext.b	a4,a4
   19d0e:	0ff7f793          	zext.b	a5,a5
   19d12:	40f70533          	sub	a0,a4,a5
   19d16:	8082                	ret
   19d18:	00054603          	lbu	a2,0(a0)
   19d1c:	0005c683          	lbu	a3,0(a1)
   19d20:	0505                	addi	a0,a0,1
   19d22:	0585                	addi	a1,a1,1
   19d24:	00d61363          	bne	a2,a3,19d2a <strcmp+0xcc>
   19d28:	fa65                	bnez	a2,19d18 <strcmp+0xba>
   19d2a:	40d60533          	sub	a0,a2,a3
   19d2e:	8082                	ret
   19d30:	0521                	addi	a0,a0,8
   19d32:	05a1                	addi	a1,a1,8
   19d34:	fed612e3          	bne	a2,a3,19d18 <strcmp+0xba>
   19d38:	4501                	li	a0,0
   19d3a:	8082                	ret
   19d3c:	0541                	addi	a0,a0,16
   19d3e:	05c1                	addi	a1,a1,16
   19d40:	fcd61ce3          	bne	a2,a3,19d18 <strcmp+0xba>
   19d44:	4501                	li	a0,0
   19d46:	8082                	ret

0000000000019d48 <__ssprint_r>:
   19d48:	6a1c                	ld	a5,16(a2)
   19d4a:	715d                	addi	sp,sp,-80
   19d4c:	f44e                	sd	s3,40(sp)
   19d4e:	ec56                	sd	s5,24(sp)
   19d50:	e486                	sd	ra,72(sp)
   19d52:	e0a2                	sd	s0,64(sp)
   19d54:	fc26                	sd	s1,56(sp)
   19d56:	f84a                	sd	s2,48(sp)
   19d58:	f052                	sd	s4,32(sp)
   19d5a:	e85a                	sd	s6,16(sp)
   19d5c:	e45e                	sd	s7,8(sp)
   19d5e:	e062                	sd	s8,0(sp)
   19d60:	00063983          	ld	s3,0(a2)
   19d64:	8ab2                	mv	s5,a2
   19d66:	10078d63          	beqz	a5,19e80 <__ssprint_r+0x138>
   19d6a:	45d8                	lw	a4,12(a1)
   19d6c:	619c                	ld	a5,0(a1)
   19d6e:	8b2a                	mv	s6,a0
   19d70:	84ae                	mv	s1,a1
   19d72:	4a01                	li	s4,0
   19d74:	4401                	li	s0,0
   19d76:	893a                	mv	s2,a4
   19d78:	853e                	mv	a0,a5
   19d7a:	c029                	beqz	s0,19dbc <__ssprint_r+0x74>
   19d7c:	04e47663          	bgeu	s0,a4,19dc8 <__ssprint_r+0x80>
   19d80:	0004071b          	sext.w	a4,s0
   19d84:	893a                	mv	s2,a4
   19d86:	8bba                	mv	s7,a4
   19d88:	853e                	mv	a0,a5
   19d8a:	85d2                	mv	a1,s4
   19d8c:	864a                	mv	a2,s2
   19d8e:	8bfff0ef          	jal	ra,1964c <memmove>
   19d92:	44d4                	lw	a3,12(s1)
   19d94:	609c                	ld	a5,0(s1)
   19d96:	010ab703          	ld	a4,16(s5)
   19d9a:	412686bb          	subw	a3,a3,s2
   19d9e:	97ca                	add	a5,a5,s2
   19da0:	c4d4                	sw	a3,12(s1)
   19da2:	e09c                	sd	a5,0(s1)
   19da4:	41770733          	sub	a4,a4,s7
   19da8:	00eab823          	sd	a4,16(s5)
   19dac:	9a5e                	add	s4,s4,s7
   19dae:	41740433          	sub	s0,s0,s7
   19db2:	c779                	beqz	a4,19e80 <__ssprint_r+0x138>
   19db4:	44d8                	lw	a4,12(s1)
   19db6:	853e                	mv	a0,a5
   19db8:	893a                	mv	s2,a4
   19dba:	f069                	bnez	s0,19d7c <__ssprint_r+0x34>
   19dbc:	0009ba03          	ld	s4,0(s3)
   19dc0:	0089b403          	ld	s0,8(s3)
   19dc4:	09c1                	addi	s3,s3,16
   19dc6:	bf45                	j	19d76 <__ssprint_r+0x2e>
   19dc8:	01049703          	lh	a4,16(s1)
   19dcc:	00040b9b          	sext.w	s7,s0
   19dd0:	48077693          	andi	a3,a4,1152
   19dd4:	dadd                	beqz	a3,19d8a <__ssprint_r+0x42>
   19dd6:	5090                	lw	a2,32(s1)
   19dd8:	6c8c                	ld	a1,24(s1)
   19dda:	0016169b          	slliw	a3,a2,0x1
   19dde:	9eb1                	addw	a3,a3,a2
   19de0:	8f8d                	sub	a5,a5,a1
   19de2:	01f6d91b          	srliw	s2,a3,0x1f
   19de6:	00078b9b          	sext.w	s7,a5
   19dea:	00d9093b          	addw	s2,s2,a3
   19dee:	001b8693          	addi	a3,s7,1
   19df2:	4019591b          	sraiw	s2,s2,0x1
   19df6:	96a2                	add	a3,a3,s0
   19df8:	00d97563          	bgeu	s2,a3,19e02 <__ssprint_r+0xba>
   19dfc:	2785                	addiw	a5,a5,1
   19dfe:	0087893b          	addw	s2,a5,s0
   19e02:	40077713          	andi	a4,a4,1024
   19e06:	c731                	beqz	a4,19e52 <__ssprint_r+0x10a>
   19e08:	85ca                	mv	a1,s2
   19e0a:	855a                	mv	a0,s6
   19e0c:	eadfa0ef          	jal	ra,14cb8 <_malloc_r>
   19e10:	8c2a                	mv	s8,a0
   19e12:	c931                	beqz	a0,19e66 <__ssprint_r+0x11e>
   19e14:	6c8c                	ld	a1,24(s1)
   19e16:	865e                	mv	a2,s7
   19e18:	eeeff0ef          	jal	ra,19506 <memcpy>
   19e1c:	0104d783          	lhu	a5,16(s1)
   19e20:	b7f7f793          	andi	a5,a5,-1153
   19e24:	0807e793          	ori	a5,a5,128
   19e28:	00f49823          	sh	a5,16(s1)
   19e2c:	017c0533          	add	a0,s8,s7
   19e30:	41790bbb          	subw	s7,s2,s7
   19e34:	0004071b          	sext.w	a4,s0
   19e38:	0324a023          	sw	s2,32(s1)
   19e3c:	0174a623          	sw	s7,12(s1)
   19e40:	0184bc23          	sd	s8,24(s1)
   19e44:	e088                	sd	a0,0(s1)
   19e46:	893a                	mv	s2,a4
   19e48:	8bba                	mv	s7,a4
   19e4a:	87aa                	mv	a5,a0
   19e4c:	f2e47fe3          	bgeu	s0,a4,19d8a <__ssprint_r+0x42>
   19e50:	bf15                	j	19d84 <__ssprint_r+0x3c>
   19e52:	864a                	mv	a2,s2
   19e54:	855a                	mv	a0,s6
   19e56:	90bff0ef          	jal	ra,19760 <_realloc_r>
   19e5a:	8c2a                	mv	s8,a0
   19e5c:	f961                	bnez	a0,19e2c <__ssprint_r+0xe4>
   19e5e:	6c8c                	ld	a1,24(s1)
   19e60:	855a                	mv	a0,s6
   19e62:	853f80ef          	jal	ra,126b4 <_free_r>
   19e66:	0104d783          	lhu	a5,16(s1)
   19e6a:	4731                	li	a4,12
   19e6c:	00eb2023          	sw	a4,0(s6)
   19e70:	0407e793          	ori	a5,a5,64
   19e74:	00f49823          	sh	a5,16(s1)
   19e78:	000ab823          	sd	zero,16(s5)
   19e7c:	557d                	li	a0,-1
   19e7e:	a011                	j	19e82 <__ssprint_r+0x13a>
   19e80:	4501                	li	a0,0
   19e82:	60a6                	ld	ra,72(sp)
   19e84:	6406                	ld	s0,64(sp)
   19e86:	000aa423          	sw	zero,8(s5)
   19e8a:	74e2                	ld	s1,56(sp)
   19e8c:	7942                	ld	s2,48(sp)
   19e8e:	79a2                	ld	s3,40(sp)
   19e90:	7a02                	ld	s4,32(sp)
   19e92:	6ae2                	ld	s5,24(sp)
   19e94:	6b42                	ld	s6,16(sp)
   19e96:	6ba2                	ld	s7,8(sp)
   19e98:	6c02                	ld	s8,0(sp)
   19e9a:	6161                	addi	sp,sp,80
   19e9c:	8082                	ret

0000000000019e9e <_svfiprintf_r>:
   19e9e:	0105d783          	lhu	a5,16(a1)
   19ea2:	7105                	addi	sp,sp,-480
   19ea4:	eb62                	sd	s8,400(sp)
   19ea6:	feee                	sd	s11,376(sp)
   19ea8:	ef86                	sd	ra,472(sp)
   19eaa:	eba2                	sd	s0,464(sp)
   19eac:	e7a6                	sd	s1,456(sp)
   19eae:	e3ca                	sd	s2,448(sp)
   19eb0:	ff4e                	sd	s3,440(sp)
   19eb2:	fb52                	sd	s4,432(sp)
   19eb4:	f756                	sd	s5,424(sp)
   19eb6:	f35a                	sd	s6,416(sp)
   19eb8:	ef5e                	sd	s7,408(sp)
   19eba:	e766                	sd	s9,392(sp)
   19ebc:	e36a                	sd	s10,384(sp)
   19ebe:	e42e                	sd	a1,8(sp)
   19ec0:	0807f793          	andi	a5,a5,128
   19ec4:	e82a                	sd	a0,16(sp)
   19ec6:	8db2                	mv	s11,a2
   19ec8:	8c36                	mv	s8,a3
   19eca:	c781                	beqz	a5,19ed2 <_svfiprintf_r+0x34>
   19ecc:	6d9c                	ld	a5,24(a1)
   19ece:	140783e3          	beqz	a5,1a814 <_svfiprintf_r+0x976>
   19ed2:	66f5                	lui	a3,0x1d
   19ed4:	0f010a93          	addi	s5,sp,240
   19ed8:	1cc68693          	addi	a3,a3,460 # 1d1cc <blanks.1+0x64>
   19edc:	6bf5                	lui	s7,0x1d
   19ede:	f8d6                	sd	s5,112(sp)
   19ee0:	e102                	sd	zero,128(sp)
   19ee2:	dc82                	sw	zero,120(sp)
   19ee4:	4701                	li	a4,0
   19ee6:	87d6                	mv	a5,s5
   19ee8:	f402                	sd	zero,40(sp)
   19eea:	e482                	sd	zero,72(sp)
   19eec:	ec82                	sd	zero,88(sp)
   19eee:	e882                	sd	zero,80(sp)
   19ef0:	ec02                	sd	zero,24(sp)
   19ef2:	f836                	sd	a3,48(sp)
   19ef4:	4441                	li	s0,16
   19ef6:	338b8b93          	addi	s7,s7,824 # 1d338 <zeroes.0>
   19efa:	000dc683          	lbu	a3,0(s11)
   19efe:	16068c63          	beqz	a3,1a076 <_svfiprintf_r+0x1d8>
   19f02:	84ee                	mv	s1,s11
   19f04:	02500613          	li	a2,37
   19f08:	20c68363          	beq	a3,a2,1a10e <_svfiprintf_r+0x270>
   19f0c:	0014c683          	lbu	a3,1(s1)
   19f10:	0485                	addi	s1,s1,1
   19f12:	fafd                	bnez	a3,19f08 <_svfiprintf_r+0x6a>
   19f14:	41b4893b          	subw	s2,s1,s11
   19f18:	14090f63          	beqz	s2,1a076 <_svfiprintf_r+0x1d8>
   19f1c:	56e6                	lw	a3,120(sp)
   19f1e:	974a                	add	a4,a4,s2
   19f20:	01b7b023          	sd	s11,0(a5)
   19f24:	0016861b          	addiw	a2,a3,1
   19f28:	0127b423          	sd	s2,8(a5)
   19f2c:	e13a                	sd	a4,128(sp)
   19f2e:	dcb2                	sw	a2,120(sp)
   19f30:	469d                	li	a3,7
   19f32:	07c1                	addi	a5,a5,16
   19f34:	1ec6c463          	blt	a3,a2,1a11c <_svfiprintf_r+0x27e>
   19f38:	6662                	ld	a2,24(sp)
   19f3a:	0004c683          	lbu	a3,0(s1)
   19f3e:	0126063b          	addw	a2,a2,s2
   19f42:	ec32                	sd	a2,24(sp)
   19f44:	12068963          	beqz	a3,1a076 <_svfiprintf_r+0x1d8>
   19f48:	0014c603          	lbu	a2,1(s1)
   19f4c:	00148d93          	addi	s11,s1,1
   19f50:	060103a3          	sb	zero,103(sp)
   19f54:	5cfd                	li	s9,-1
   19f56:	4981                	li	s3,0
   19f58:	4b01                	li	s6,0
   19f5a:	05a00493          	li	s1,90
   19f5e:	0d85                	addi	s11,s11,1
   19f60:	2601                	sext.w	a2,a2
   19f62:	fe06059b          	addiw	a1,a2,-32
   19f66:	0005851b          	sext.w	a0,a1
   19f6a:	04a4e563          	bltu	s1,a0,19fb4 <_svfiprintf_r+0x116>
   19f6e:	76c2                	ld	a3,48(sp)
   19f70:	02059513          	slli	a0,a1,0x20
   19f74:	01e55593          	srli	a1,a0,0x1e
   19f78:	95b6                	add	a1,a1,a3
   19f7a:	418c                	lw	a1,0(a1)
   19f7c:	8582                	jr	a1
   19f7e:	4981                	li	s3,0
   19f80:	4e25                	li	t3,9
   19f82:	000dc503          	lbu	a0,0(s11)
   19f86:	0029959b          	slliw	a1,s3,0x2
   19f8a:	013585bb          	addw	a1,a1,s3
   19f8e:	fd06061b          	addiw	a2,a2,-48
   19f92:	0015959b          	slliw	a1,a1,0x1
   19f96:	fd05089b          	addiw	a7,a0,-48
   19f9a:	00b609bb          	addw	s3,a2,a1
   19f9e:	0d85                	addi	s11,s11,1
   19fa0:	0005061b          	sext.w	a2,a0
   19fa4:	fd1e7fe3          	bgeu	t3,a7,19f82 <_svfiprintf_r+0xe4>
   19fa8:	fe06059b          	addiw	a1,a2,-32
   19fac:	0005851b          	sext.w	a0,a1
   19fb0:	faa4ffe3          	bgeu	s1,a0,19f6e <_svfiprintf_r+0xd0>
   19fb4:	c269                	beqz	a2,1a076 <_svfiprintf_r+0x1d8>
   19fb6:	08c10423          	sb	a2,136(sp)
   19fba:	060103a3          	sb	zero,103(sp)
   19fbe:	4905                	li	s2,1
   19fc0:	4485                	li	s1,1
   19fc2:	08810a13          	addi	s4,sp,136
   19fc6:	4c81                	li	s9,0
   19fc8:	002b7f93          	andi	t6,s6,2
   19fcc:	000f8363          	beqz	t6,19fd2 <_svfiprintf_r+0x134>
   19fd0:	2909                	addiw	s2,s2,2
   19fd2:	084b7f13          	andi	t5,s6,132
   19fd6:	5666                	lw	a2,120(sp)
   19fd8:	000f1663          	bnez	t5,19fe4 <_svfiprintf_r+0x146>
   19fdc:	41298d3b          	subw	s10,s3,s2
   19fe0:	5ba04c63          	bgtz	s10,1a598 <_svfiprintf_r+0x6fa>
   19fe4:	06714583          	lbu	a1,103(sp)
   19fe8:	cd91                	beqz	a1,1a004 <_svfiprintf_r+0x166>
   19fea:	06710513          	addi	a0,sp,103
   19fee:	e388                	sd	a0,0(a5)
   19ff0:	2605                	addiw	a2,a2,1
   19ff2:	0705                	addi	a4,a4,1
   19ff4:	4505                	li	a0,1
   19ff6:	e788                	sd	a0,8(a5)
   19ff8:	e13a                	sd	a4,128(sp)
   19ffa:	dcb2                	sw	a2,120(sp)
   19ffc:	459d                	li	a1,7
   19ffe:	07c1                	addi	a5,a5,16
   1a000:	12c5c763          	blt	a1,a2,1a12e <_svfiprintf_r+0x290>
   1a004:	000f8e63          	beqz	t6,1a020 <_svfiprintf_r+0x182>
   1a008:	10a8                	addi	a0,sp,104
   1a00a:	e388                	sd	a0,0(a5)
   1a00c:	2605                	addiw	a2,a2,1
   1a00e:	0709                	addi	a4,a4,2
   1a010:	4509                	li	a0,2
   1a012:	e788                	sd	a0,8(a5)
   1a014:	e13a                	sd	a4,128(sp)
   1a016:	dcb2                	sw	a2,120(sp)
   1a018:	459d                	li	a1,7
   1a01a:	07c1                	addi	a5,a5,16
   1a01c:	60c5c563          	blt	a1,a2,1a626 <_svfiprintf_r+0x788>
   1a020:	08000593          	li	a1,128
   1a024:	42bf0263          	beq	t5,a1,1a448 <_svfiprintf_r+0x5aa>
   1a028:	409c8cbb          	subw	s9,s9,s1
   1a02c:	4b904363          	bgtz	s9,1a4d2 <_svfiprintf_r+0x634>
   1a030:	0016059b          	addiw	a1,a2,1
   1a034:	9726                	add	a4,a4,s1
   1a036:	0147b023          	sd	s4,0(a5)
   1a03a:	e784                	sd	s1,8(a5)
   1a03c:	e13a                	sd	a4,128(sp)
   1a03e:	dcae                	sw	a1,120(sp)
   1a040:	469d                	li	a3,7
   1a042:	07c1                	addi	a5,a5,16
   1a044:	4eb6cd63          	blt	a3,a1,1a53e <_svfiprintf_r+0x6a0>
   1a048:	004b7313          	andi	t1,s6,4
   1a04c:	00030663          	beqz	t1,1a058 <_svfiprintf_r+0x1ba>
   1a050:	412984bb          	subw	s1,s3,s2
   1a054:	5e904663          	bgtz	s1,1a640 <_svfiprintf_r+0x7a2>
   1a058:	87ce                	mv	a5,s3
   1a05a:	0129d363          	bge	s3,s2,1a060 <_svfiprintf_r+0x1c2>
   1a05e:	87ca                	mv	a5,s2
   1a060:	66e2                	ld	a3,24(sp)
   1a062:	9fb5                	addw	a5,a5,a3
   1a064:	ec3e                	sd	a5,24(sp)
   1a066:	4e071663          	bnez	a4,1a552 <_svfiprintf_r+0x6b4>
   1a06a:	000dc683          	lbu	a3,0(s11)
   1a06e:	dc82                	sw	zero,120(sp)
   1a070:	87d6                	mv	a5,s5
   1a072:	e80698e3          	bnez	a3,19f02 <_svfiprintf_r+0x64>
   1a076:	0a0718e3          	bnez	a4,1a926 <_svfiprintf_r+0xa88>
   1a07a:	67a2                	ld	a5,8(sp)
   1a07c:	0107d783          	lhu	a5,16(a5)
   1a080:	0407f793          	andi	a5,a5,64
   1a084:	0c0798e3          	bnez	a5,1a954 <_svfiprintf_r+0xab6>
   1a088:	60fe                	ld	ra,472(sp)
   1a08a:	645e                	ld	s0,464(sp)
   1a08c:	6562                	ld	a0,24(sp)
   1a08e:	64be                	ld	s1,456(sp)
   1a090:	691e                	ld	s2,448(sp)
   1a092:	79fa                	ld	s3,440(sp)
   1a094:	7a5a                	ld	s4,432(sp)
   1a096:	7aba                	ld	s5,424(sp)
   1a098:	7b1a                	ld	s6,416(sp)
   1a09a:	6bfa                	ld	s7,408(sp)
   1a09c:	6c5a                	ld	s8,400(sp)
   1a09e:	6cba                	ld	s9,392(sp)
   1a0a0:	6d1a                	ld	s10,384(sp)
   1a0a2:	7df6                	ld	s11,376(sp)
   1a0a4:	613d                	addi	sp,sp,480
   1a0a6:	8082                	ret
   1a0a8:	010b6313          	ori	t1,s6,16
   1a0ac:	000dc603          	lbu	a2,0(s11)
   1a0b0:	00030b1b          	sext.w	s6,t1
   1a0b4:	b56d                	j	19f5e <_svfiprintf_r+0xc0>
   1a0b6:	010b6313          	ori	t1,s6,16
   1a0ba:	00030b1b          	sext.w	s6,t1
   1a0be:	020b7613          	andi	a2,s6,32
   1a0c2:	008c0d13          	addi	s10,s8,8
   1a0c6:	c251                	beqz	a2,1a14a <_svfiprintf_r+0x2ac>
   1a0c8:	000c3603          	ld	a2,0(s8)
   1a0cc:	8932                	mv	s2,a2
   1a0ce:	08064e63          	bltz	a2,1a16a <_svfiprintf_r+0x2cc>
   1a0d2:	567d                	li	a2,-1
   1a0d4:	0acc8863          	beq	s9,a2,1a184 <_svfiprintf_r+0x2e6>
   1a0d8:	f7fb7313          	andi	t1,s6,-129
   1a0dc:	00030b1b          	sext.w	s6,t1
   1a0e0:	0a091263          	bnez	s2,1a184 <_svfiprintf_r+0x2e6>
   1a0e4:	040c9ce3          	bnez	s9,1a93c <_svfiprintf_r+0xa9e>
   1a0e8:	4481                	li	s1,0
   1a0ea:	8c6a                	mv	s8,s10
   1a0ec:	0ec10a13          	addi	s4,sp,236
   1a0f0:	a865                	j	1a1a8 <_svfiprintf_r+0x30a>
   1a0f2:	000c2983          	lw	s3,0(s8)
   1a0f6:	0c21                	addi	s8,s8,8
   1a0f8:	2c09d463          	bgez	s3,1a3c0 <_svfiprintf_r+0x522>
   1a0fc:	413009bb          	negw	s3,s3
   1a100:	004b6313          	ori	t1,s6,4
   1a104:	000dc603          	lbu	a2,0(s11)
   1a108:	00030b1b          	sext.w	s6,t1
   1a10c:	bd89                	j	19f5e <_svfiprintf_r+0xc0>
   1a10e:	41b4893b          	subw	s2,s1,s11
   1a112:	e00915e3          	bnez	s2,19f1c <_svfiprintf_r+0x7e>
   1a116:	0004c683          	lbu	a3,0(s1)
   1a11a:	b52d                	j	19f44 <_svfiprintf_r+0xa6>
   1a11c:	65a2                	ld	a1,8(sp)
   1a11e:	6542                	ld	a0,16(sp)
   1a120:	1890                	addi	a2,sp,112
   1a122:	c27ff0ef          	jal	ra,19d48 <__ssprint_r>
   1a126:	f931                	bnez	a0,1a07a <_svfiprintf_r+0x1dc>
   1a128:	670a                	ld	a4,128(sp)
   1a12a:	87d6                	mv	a5,s5
   1a12c:	b531                	j	19f38 <_svfiprintf_r+0x9a>
   1a12e:	65a2                	ld	a1,8(sp)
   1a130:	6542                	ld	a0,16(sp)
   1a132:	1890                	addi	a2,sp,112
   1a134:	fc7a                	sd	t5,56(sp)
   1a136:	f07e                	sd	t6,32(sp)
   1a138:	c11ff0ef          	jal	ra,19d48 <__ssprint_r>
   1a13c:	fd1d                	bnez	a0,1a07a <_svfiprintf_r+0x1dc>
   1a13e:	670a                	ld	a4,128(sp)
   1a140:	5666                	lw	a2,120(sp)
   1a142:	7f62                	ld	t5,56(sp)
   1a144:	7f82                	ld	t6,32(sp)
   1a146:	87d6                	mv	a5,s5
   1a148:	bd75                	j	1a004 <_svfiprintf_r+0x166>
   1a14a:	010b7613          	andi	a2,s6,16
   1a14e:	fe2d                	bnez	a2,1a0c8 <_svfiprintf_r+0x22a>
   1a150:	040b7613          	andi	a2,s6,64
   1a154:	000c2903          	lw	s2,0(s8)
   1a158:	76060c63          	beqz	a2,1a8d0 <_svfiprintf_r+0xa32>
   1a15c:	0109191b          	slliw	s2,s2,0x10
   1a160:	4109591b          	sraiw	s2,s2,0x10
   1a164:	864a                	mv	a2,s2
   1a166:	f60656e3          	bgez	a2,1a0d2 <_svfiprintf_r+0x234>
   1a16a:	02d00613          	li	a2,45
   1a16e:	06c103a3          	sb	a2,103(sp)
   1a172:	567d                	li	a2,-1
   1a174:	41200933          	neg	s2,s2
   1a178:	00cc8663          	beq	s9,a2,1a184 <_svfiprintf_r+0x2e6>
   1a17c:	f7fb7313          	andi	t1,s6,-129
   1a180:	00030b1b          	sext.w	s6,t1
   1a184:	4625                	li	a2,9
   1a186:	55266663          	bltu	a2,s2,1a6d2 <_svfiprintf_r+0x834>
   1a18a:	0309061b          	addiw	a2,s2,48
   1a18e:	0ff67613          	zext.b	a2,a2
   1a192:	8c6a                	mv	s8,s10
   1a194:	0ec105a3          	sb	a2,235(sp)
   1a198:	000c891b          	sext.w	s2,s9
   1a19c:	01904363          	bgtz	s9,1a1a2 <_svfiprintf_r+0x304>
   1a1a0:	4905                	li	s2,1
   1a1a2:	4485                	li	s1,1
   1a1a4:	0eb10a13          	addi	s4,sp,235
   1a1a8:	06714603          	lbu	a2,103(sp)
   1a1ac:	e0060ee3          	beqz	a2,19fc8 <_svfiprintf_r+0x12a>
   1a1b0:	2905                	addiw	s2,s2,1
   1a1b2:	bd19                	j	19fc8 <_svfiprintf_r+0x12a>
   1a1b4:	000c3a03          	ld	s4,0(s8)
   1a1b8:	060103a3          	sb	zero,103(sp)
   1a1bc:	0c21                	addi	s8,s8,8
   1a1be:	6c0a0e63          	beqz	s4,1a89a <_svfiprintf_r+0x9fc>
   1a1c2:	567d                	li	a2,-1
   1a1c4:	fc3a                	sd	a4,56(sp)
   1a1c6:	f03e                	sd	a5,32(sp)
   1a1c8:	62cc8763          	beq	s9,a2,1a7f6 <_svfiprintf_r+0x958>
   1a1cc:	8666                	mv	a2,s9
   1a1ce:	4581                	li	a1,0
   1a1d0:	8552                	mv	a0,s4
   1a1d2:	8d2fb0ef          	jal	ra,152a4 <memchr>
   1a1d6:	7782                	ld	a5,32(sp)
   1a1d8:	7762                	ld	a4,56(sp)
   1a1da:	74050d63          	beqz	a0,1a934 <_svfiprintf_r+0xa96>
   1a1de:	414504bb          	subw	s1,a0,s4
   1a1e2:	fff4c913          	not	s2,s1
   1a1e6:	43f95913          	srai	s2,s2,0x3f
   1a1ea:	00997933          	and	s2,s2,s1
   1a1ee:	4c81                	li	s9,0
   1a1f0:	bf65                	j	1a1a8 <_svfiprintf_r+0x30a>
   1a1f2:	000c2683          	lw	a3,0(s8)
   1a1f6:	060103a3          	sb	zero,103(sp)
   1a1fa:	0c21                	addi	s8,s8,8
   1a1fc:	08d10423          	sb	a3,136(sp)
   1a200:	4905                	li	s2,1
   1a202:	4485                	li	s1,1
   1a204:	08810a13          	addi	s4,sp,136
   1a208:	bb7d                	j	19fc6 <_svfiprintf_r+0x128>
   1a20a:	020b6313          	ori	t1,s6,32
   1a20e:	000dc603          	lbu	a2,0(s11)
   1a212:	00030b1b          	sext.w	s6,t1
   1a216:	b3a1                	j	19f5e <_svfiprintf_r+0xc0>
   1a218:	7661                	lui	a2,0xffff8
   1a21a:	66f1                	lui	a3,0x1c
   1a21c:	002b6313          	ori	t1,s6,2
   1a220:	83064613          	xori	a2,a2,-2000
   1a224:	6d068693          	addi	a3,a3,1744 # 1c6d0 <__clzdi2+0xa0>
   1a228:	000c3583          	ld	a1,0(s8)
   1a22c:	00030b1b          	sext.w	s6,t1
   1a230:	06c11423          	sh	a2,104(sp)
   1a234:	0c21                	addi	s8,s8,8
   1a236:	f436                	sd	a3,40(sp)
   1a238:	060103a3          	sb	zero,103(sp)
   1a23c:	567d                	li	a2,-1
   1a23e:	32cc8763          	beq	s9,a2,1a56c <_svfiprintf_r+0x6ce>
   1a242:	f7fb7613          	andi	a2,s6,-129
   1a246:	2601                	sext.w	a2,a2
   1a248:	30059e63          	bnez	a1,1a564 <_svfiprintf_r+0x6c6>
   1a24c:	84da                	mv	s1,s6
   1a24e:	4589                	li	a1,2
   1a250:	8b32                	mv	s6,a2
   1a252:	060c9063          	bnez	s9,1a2b2 <_svfiprintf_r+0x414>
   1a256:	46059963          	bnez	a1,1a6c8 <_svfiprintf_r+0x82a>
   1a25a:	8885                	andi	s1,s1,1
   1a25c:	4c048763          	beqz	s1,1a72a <_svfiprintf_r+0x88c>
   1a260:	03000613          	li	a2,48
   1a264:	0ec105a3          	sb	a2,235(sp)
   1a268:	8926                	mv	s2,s1
   1a26a:	0eb10a13          	addi	s4,sp,235
   1a26e:	bf2d                	j	1a1a8 <_svfiprintf_r+0x30a>
   1a270:	010b6613          	ori	a2,s6,16
   1a274:	2601                	sext.w	a2,a2
   1a276:	02067593          	andi	a1,a2,32
   1a27a:	008c0513          	addi	a0,s8,8
   1a27e:	e589                	bnez	a1,1a288 <_svfiprintf_r+0x3ea>
   1a280:	01067593          	andi	a1,a2,16
   1a284:	4c058f63          	beqz	a1,1a762 <_svfiprintf_r+0x8c4>
   1a288:	000c3583          	ld	a1,0(s8)
   1a28c:	bff67313          	andi	t1,a2,-1025
   1a290:	060103a3          	sb	zero,103(sp)
   1a294:	58fd                	li	a7,-1
   1a296:	00030b1b          	sext.w	s6,t1
   1a29a:	8c2a                	mv	s8,a0
   1a29c:	031c8263          	beq	s9,a7,1a2c0 <_svfiprintf_r+0x422>
   1a2a0:	b7f67613          	andi	a2,a2,-1153
   1a2a4:	2601                	sext.w	a2,a2
   1a2a6:	5c059363          	bnez	a1,1a86c <_svfiprintf_r+0x9ce>
   1a2aa:	84da                	mv	s1,s6
   1a2ac:	8b32                	mv	s6,a2
   1a2ae:	fa0c84e3          	beqz	s9,1a256 <_svfiprintf_r+0x3b8>
   1a2b2:	4605                	li	a2,1
   1a2b4:	68c58563          	beq	a1,a2,1a93e <_svfiprintf_r+0xaa0>
   1a2b8:	4609                	li	a2,2
   1a2ba:	5ec58c63          	beq	a1,a2,1a8b2 <_svfiprintf_r+0xa14>
   1a2be:	4581                	li	a1,0
   1a2c0:	11e4                	addi	s1,sp,236
   1a2c2:	8a26                	mv	s4,s1
   1a2c4:	0075f613          	andi	a2,a1,7
   1a2c8:	03060613          	addi	a2,a2,48 # ffffffffffff8030 <__BSS_END__+0xfffffffffffd88c0>
   1a2cc:	feca0fa3          	sb	a2,-1(s4)
   1a2d0:	818d                	srli	a1,a1,0x3
   1a2d2:	8552                	mv	a0,s4
   1a2d4:	1a7d                	addi	s4,s4,-1
   1a2d6:	f5fd                	bnez	a1,1a2c4 <_svfiprintf_r+0x426>
   1a2d8:	001b7593          	andi	a1,s6,1
   1a2dc:	3c058d63          	beqz	a1,1a6b6 <_svfiprintf_r+0x818>
   1a2e0:	03000593          	li	a1,48
   1a2e4:	3cb60963          	beq	a2,a1,1a6b6 <_svfiprintf_r+0x818>
   1a2e8:	1579                	addi	a0,a0,-2
   1a2ea:	9c89                	subw	s1,s1,a0
   1a2ec:	feba0fa3          	sb	a1,-1(s4)
   1a2f0:	0004891b          	sext.w	s2,s1
   1a2f4:	4994c063          	blt	s1,s9,1a774 <_svfiprintf_r+0x8d6>
   1a2f8:	8a2a                	mv	s4,a0
   1a2fa:	b57d                	j	1a1a8 <_svfiprintf_r+0x30a>
   1a2fc:	010b6493          	ori	s1,s6,16
   1a300:	2481                	sext.w	s1,s1
   1a302:	0204f613          	andi	a2,s1,32
   1a306:	008c0d13          	addi	s10,s8,8
   1a30a:	e609                	bnez	a2,1a314 <_svfiprintf_r+0x476>
   1a30c:	0104f613          	andi	a2,s1,16
   1a310:	42060f63          	beqz	a2,1a74e <_svfiprintf_r+0x8b0>
   1a314:	000c3903          	ld	s2,0(s8)
   1a318:	060103a3          	sb	zero,103(sp)
   1a31c:	567d                	li	a2,-1
   1a31e:	8b26                	mv	s6,s1
   1a320:	e6cc82e3          	beq	s9,a2,1a184 <_svfiprintf_r+0x2e6>
   1a324:	f7f4f313          	andi	t1,s1,-129
   1a328:	00030b1b          	sext.w	s6,t1
   1a32c:	e4091ce3          	bnez	s2,1a184 <_svfiprintf_r+0x2e6>
   1a330:	8c6a                	mv	s8,s10
   1a332:	4585                	li	a1,1
   1a334:	bf39                	j	1a252 <_svfiprintf_r+0x3b4>
   1a336:	080b6313          	ori	t1,s6,128
   1a33a:	000dc603          	lbu	a2,0(s11)
   1a33e:	00030b1b          	sext.w	s6,t1
   1a342:	b931                	j	19f5e <_svfiprintf_r+0xc0>
   1a344:	000dc603          	lbu	a2,0(s11)
   1a348:	02a00693          	li	a3,42
   1a34c:	001d8593          	addi	a1,s11,1
   1a350:	60d60663          	beq	a2,a3,1a95c <_svfiprintf_r+0xabe>
   1a354:	fd06051b          	addiw	a0,a2,-48
   1a358:	4e25                	li	t3,9
   1a35a:	8dae                	mv	s11,a1
   1a35c:	4c81                	li	s9,0
   1a35e:	48a5                	li	a7,9
   1a360:	c0ae61e3          	bltu	t3,a0,19f62 <_svfiprintf_r+0xc4>
   1a364:	000dc603          	lbu	a2,0(s11)
   1a368:	002c959b          	slliw	a1,s9,0x2
   1a36c:	019586bb          	addw	a3,a1,s9
   1a370:	0016969b          	slliw	a3,a3,0x1
   1a374:	00a68cbb          	addw	s9,a3,a0
   1a378:	fd06051b          	addiw	a0,a2,-48
   1a37c:	0d85                	addi	s11,s11,1
   1a37e:	fea8f3e3          	bgeu	a7,a0,1a364 <_svfiprintf_r+0x4c6>
   1a382:	b6c5                	j	19f62 <_svfiprintf_r+0xc4>
   1a384:	02b00593          	li	a1,43
   1a388:	000dc603          	lbu	a2,0(s11)
   1a38c:	06b103a3          	sb	a1,103(sp)
   1a390:	b6f9                	j	19f5e <_svfiprintf_r+0xc0>
   1a392:	6942                	ld	s2,16(sp)
   1a394:	fc3a                	sd	a4,56(sp)
   1a396:	f03e                	sd	a5,32(sp)
   1a398:	854a                	mv	a0,s2
   1a39a:	f76fa0ef          	jal	ra,14b10 <_localeconv_r>
   1a39e:	651c                	ld	a5,8(a0)
   1a3a0:	853e                	mv	a0,a5
   1a3a2:	e8be                	sd	a5,80(sp)
   1a3a4:	efbfb0ef          	jal	ra,1629e <strlen>
   1a3a8:	862a                	mv	a2,a0
   1a3aa:	854a                	mv	a0,s2
   1a3ac:	ecb2                	sd	a2,88(sp)
   1a3ae:	8932                	mv	s2,a2
   1a3b0:	f60fa0ef          	jal	ra,14b10 <_localeconv_r>
   1a3b4:	690c                	ld	a1,16(a0)
   1a3b6:	7782                	ld	a5,32(sp)
   1a3b8:	7762                	ld	a4,56(sp)
   1a3ba:	e4ae                	sd	a1,72(sp)
   1a3bc:	36091b63          	bnez	s2,1a732 <_svfiprintf_r+0x894>
   1a3c0:	000dc603          	lbu	a2,0(s11)
   1a3c4:	be69                	j	19f5e <_svfiprintf_r+0xc0>
   1a3c6:	001b6313          	ori	t1,s6,1
   1a3ca:	000dc603          	lbu	a2,0(s11)
   1a3ce:	00030b1b          	sext.w	s6,t1
   1a3d2:	b671                	j	19f5e <_svfiprintf_r+0xc0>
   1a3d4:	06714583          	lbu	a1,103(sp)
   1a3d8:	000dc603          	lbu	a2,0(s11)
   1a3dc:	b80591e3          	bnez	a1,19f5e <_svfiprintf_r+0xc0>
   1a3e0:	02000593          	li	a1,32
   1a3e4:	06b103a3          	sb	a1,103(sp)
   1a3e8:	be9d                	j	19f5e <_svfiprintf_r+0xc0>
   1a3ea:	020b7693          	andi	a3,s6,32
   1a3ee:	000c3603          	ld	a2,0(s8)
   1a3f2:	e28d                	bnez	a3,1a414 <_svfiprintf_r+0x576>
   1a3f4:	010b7693          	andi	a3,s6,16
   1a3f8:	ee91                	bnez	a3,1a414 <_svfiprintf_r+0x576>
   1a3fa:	040b7693          	andi	a3,s6,64
   1a3fe:	50069e63          	bnez	a3,1a91a <_svfiprintf_r+0xa7c>
   1a402:	200b7313          	andi	t1,s6,512
   1a406:	66e2                	ld	a3,24(sp)
   1a408:	52030f63          	beqz	t1,1a946 <_svfiprintf_r+0xaa8>
   1a40c:	00d60023          	sb	a3,0(a2)
   1a410:	0c21                	addi	s8,s8,8
   1a412:	b4e5                	j	19efa <_svfiprintf_r+0x5c>
   1a414:	66e2                	ld	a3,24(sp)
   1a416:	0c21                	addi	s8,s8,8
   1a418:	e214                	sd	a3,0(a2)
   1a41a:	b4c5                	j	19efa <_svfiprintf_r+0x5c>
   1a41c:	000dc603          	lbu	a2,0(s11)
   1a420:	06c00593          	li	a1,108
   1a424:	46b60263          	beq	a2,a1,1a888 <_svfiprintf_r+0x9ea>
   1a428:	010b6313          	ori	t1,s6,16
   1a42c:	00030b1b          	sext.w	s6,t1
   1a430:	b63d                	j	19f5e <_svfiprintf_r+0xc0>
   1a432:	000dc603          	lbu	a2,0(s11)
   1a436:	06800593          	li	a1,104
   1a43a:	42b60e63          	beq	a2,a1,1a876 <_svfiprintf_r+0x9d8>
   1a43e:	040b6313          	ori	t1,s6,64
   1a442:	00030b1b          	sext.w	s6,t1
   1a446:	be21                	j	19f5e <_svfiprintf_r+0xc0>
   1a448:	41298d3b          	subw	s10,s3,s2
   1a44c:	bda05ee3          	blez	s10,1a028 <_svfiprintf_r+0x18a>
   1a450:	66f5                	lui	a3,0x1d
   1a452:	33868693          	addi	a3,a3,824 # 1d338 <zeroes.0>
   1a456:	45c1                	li	a1,16
   1a458:	f036                	sd	a3,32(sp)
   1a45a:	4ec1                	li	t4,16
   1a45c:	4f1d                	li	t5,7
   1a45e:	01a5c663          	blt	a1,s10,1a46a <_svfiprintf_r+0x5cc>
   1a462:	a835                	j	1a49e <_svfiprintf_r+0x600>
   1a464:	3d41                	addiw	s10,s10,-16
   1a466:	03aedc63          	bge	t4,s10,1a49e <_svfiprintf_r+0x600>
   1a46a:	7682                	ld	a3,32(sp)
   1a46c:	2605                	addiw	a2,a2,1
   1a46e:	0741                	addi	a4,a4,16
   1a470:	e394                	sd	a3,0(a5)
   1a472:	01d7b423          	sd	t4,8(a5)
   1a476:	e13a                	sd	a4,128(sp)
   1a478:	dcb2                	sw	a2,120(sp)
   1a47a:	07c1                	addi	a5,a5,16
   1a47c:	fecf54e3          	bge	t5,a2,1a464 <_svfiprintf_r+0x5c6>
   1a480:	65a2                	ld	a1,8(sp)
   1a482:	6542                	ld	a0,16(sp)
   1a484:	1890                	addi	a2,sp,112
   1a486:	8c3ff0ef          	jal	ra,19d48 <__ssprint_r>
   1a48a:	be0518e3          	bnez	a0,1a07a <_svfiprintf_r+0x1dc>
   1a48e:	4ec1                	li	t4,16
   1a490:	3d41                	addiw	s10,s10,-16
   1a492:	670a                	ld	a4,128(sp)
   1a494:	5666                	lw	a2,120(sp)
   1a496:	87d6                	mv	a5,s5
   1a498:	4f1d                	li	t5,7
   1a49a:	fdaec8e3          	blt	t4,s10,1a46a <_svfiprintf_r+0x5cc>
   1a49e:	7682                	ld	a3,32(sp)
   1a4a0:	2605                	addiw	a2,a2,1
   1a4a2:	976a                	add	a4,a4,s10
   1a4a4:	e394                	sd	a3,0(a5)
   1a4a6:	01a7b423          	sd	s10,8(a5)
   1a4aa:	e13a                	sd	a4,128(sp)
   1a4ac:	dcb2                	sw	a2,120(sp)
   1a4ae:	459d                	li	a1,7
   1a4b0:	07c1                	addi	a5,a5,16
   1a4b2:	b6c5dbe3          	bge	a1,a2,1a028 <_svfiprintf_r+0x18a>
   1a4b6:	65a2                	ld	a1,8(sp)
   1a4b8:	6542                	ld	a0,16(sp)
   1a4ba:	1890                	addi	a2,sp,112
   1a4bc:	88dff0ef          	jal	ra,19d48 <__ssprint_r>
   1a4c0:	ba051de3          	bnez	a0,1a07a <_svfiprintf_r+0x1dc>
   1a4c4:	409c8cbb          	subw	s9,s9,s1
   1a4c8:	670a                	ld	a4,128(sp)
   1a4ca:	5666                	lw	a2,120(sp)
   1a4cc:	87d6                	mv	a5,s5
   1a4ce:	b79051e3          	blez	s9,1a030 <_svfiprintf_r+0x192>
   1a4d2:	43945163          	bge	s0,s9,1a8f4 <_svfiprintf_r+0xa56>
   1a4d6:	f05e                	sd	s7,32(sp)
   1a4d8:	4d1d                	li	s10,7
   1a4da:	a021                	j	1a4e2 <_svfiprintf_r+0x644>
   1a4dc:	3cc1                	addiw	s9,s9,-16
   1a4de:	03945963          	bge	s0,s9,1a510 <_svfiprintf_r+0x672>
   1a4e2:	2605                	addiw	a2,a2,1
   1a4e4:	0741                	addi	a4,a4,16
   1a4e6:	0177b023          	sd	s7,0(a5)
   1a4ea:	e780                	sd	s0,8(a5)
   1a4ec:	e13a                	sd	a4,128(sp)
   1a4ee:	dcb2                	sw	a2,120(sp)
   1a4f0:	07c1                	addi	a5,a5,16
   1a4f2:	fecd55e3          	bge	s10,a2,1a4dc <_svfiprintf_r+0x63e>
   1a4f6:	65a2                	ld	a1,8(sp)
   1a4f8:	6542                	ld	a0,16(sp)
   1a4fa:	1890                	addi	a2,sp,112
   1a4fc:	84dff0ef          	jal	ra,19d48 <__ssprint_r>
   1a500:	b6051de3          	bnez	a0,1a07a <_svfiprintf_r+0x1dc>
   1a504:	3cc1                	addiw	s9,s9,-16
   1a506:	670a                	ld	a4,128(sp)
   1a508:	5666                	lw	a2,120(sp)
   1a50a:	87d6                	mv	a5,s5
   1a50c:	fd944be3          	blt	s0,s9,1a4e2 <_svfiprintf_r+0x644>
   1a510:	7682                	ld	a3,32(sp)
   1a512:	2605                	addiw	a2,a2,1
   1a514:	9766                	add	a4,a4,s9
   1a516:	e394                	sd	a3,0(a5)
   1a518:	0197b423          	sd	s9,8(a5)
   1a51c:	e13a                	sd	a4,128(sp)
   1a51e:	dcb2                	sw	a2,120(sp)
   1a520:	469d                	li	a3,7
   1a522:	07c1                	addi	a5,a5,16
   1a524:	b0c6d6e3          	bge	a3,a2,1a030 <_svfiprintf_r+0x192>
   1a528:	65a2                	ld	a1,8(sp)
   1a52a:	6542                	ld	a0,16(sp)
   1a52c:	1890                	addi	a2,sp,112
   1a52e:	81bff0ef          	jal	ra,19d48 <__ssprint_r>
   1a532:	b40514e3          	bnez	a0,1a07a <_svfiprintf_r+0x1dc>
   1a536:	670a                	ld	a4,128(sp)
   1a538:	5666                	lw	a2,120(sp)
   1a53a:	87d6                	mv	a5,s5
   1a53c:	bcd5                	j	1a030 <_svfiprintf_r+0x192>
   1a53e:	65a2                	ld	a1,8(sp)
   1a540:	6542                	ld	a0,16(sp)
   1a542:	1890                	addi	a2,sp,112
   1a544:	805ff0ef          	jal	ra,19d48 <__ssprint_r>
   1a548:	b20519e3          	bnez	a0,1a07a <_svfiprintf_r+0x1dc>
   1a54c:	670a                	ld	a4,128(sp)
   1a54e:	87d6                	mv	a5,s5
   1a550:	bce5                	j	1a048 <_svfiprintf_r+0x1aa>
   1a552:	65a2                	ld	a1,8(sp)
   1a554:	6542                	ld	a0,16(sp)
   1a556:	1890                	addi	a2,sp,112
   1a558:	ff0ff0ef          	jal	ra,19d48 <__ssprint_r>
   1a55c:	b0051fe3          	bnez	a0,1a07a <_svfiprintf_r+0x1dc>
   1a560:	670a                	ld	a4,128(sp)
   1a562:	b621                	j	1a06a <_svfiprintf_r+0x1cc>
   1a564:	8b32                	mv	s6,a2
   1a566:	4609                	li	a2,2
   1a568:	d4060ce3          	beqz	a2,1a2c0 <_svfiprintf_r+0x422>
   1a56c:	11e4                	addi	s1,sp,236
   1a56e:	8a26                	mv	s4,s1
   1a570:	76a2                	ld	a3,40(sp)
   1a572:	00f5f613          	andi	a2,a1,15
   1a576:	1a7d                	addi	s4,s4,-1
   1a578:	9636                	add	a2,a2,a3
   1a57a:	00064603          	lbu	a2,0(a2)
   1a57e:	8191                	srli	a1,a1,0x4
   1a580:	00ca0023          	sb	a2,0(s4)
   1a584:	f5f5                	bnez	a1,1a570 <_svfiprintf_r+0x6d2>
   1a586:	414484bb          	subw	s1,s1,s4
   1a58a:	000c891b          	sext.w	s2,s9
   1a58e:	c09cdde3          	bge	s9,s1,1a1a8 <_svfiprintf_r+0x30a>
   1a592:	0004891b          	sext.w	s2,s1
   1a596:	b909                	j	1a1a8 <_svfiprintf_r+0x30a>
   1a598:	6e75                	lui	t3,0x1d
   1a59a:	45c1                	li	a1,16
   1a59c:	348e0e13          	addi	t3,t3,840 # 1d348 <blanks.1>
   1a5a0:	4ec1                	li	t4,16
   1a5a2:	429d                	li	t0,7
   1a5a4:	01a5c663          	blt	a1,s10,1a5b0 <_svfiprintf_r+0x712>
   1a5a8:	a0a1                	j	1a5f0 <_svfiprintf_r+0x752>
   1a5aa:	3d41                	addiw	s10,s10,-16
   1a5ac:	05aed263          	bge	t4,s10,1a5f0 <_svfiprintf_r+0x752>
   1a5b0:	2605                	addiw	a2,a2,1
   1a5b2:	0741                	addi	a4,a4,16
   1a5b4:	01c7b023          	sd	t3,0(a5)
   1a5b8:	01d7b423          	sd	t4,8(a5)
   1a5bc:	e13a                	sd	a4,128(sp)
   1a5be:	dcb2                	sw	a2,120(sp)
   1a5c0:	07c1                	addi	a5,a5,16
   1a5c2:	fec2d4e3          	bge	t0,a2,1a5aa <_svfiprintf_r+0x70c>
   1a5c6:	65a2                	ld	a1,8(sp)
   1a5c8:	6542                	ld	a0,16(sp)
   1a5ca:	1890                	addi	a2,sp,112
   1a5cc:	e0f2                	sd	t3,64(sp)
   1a5ce:	fc7a                	sd	t5,56(sp)
   1a5d0:	f07e                	sd	t6,32(sp)
   1a5d2:	f76ff0ef          	jal	ra,19d48 <__ssprint_r>
   1a5d6:	aa0512e3          	bnez	a0,1a07a <_svfiprintf_r+0x1dc>
   1a5da:	4ec1                	li	t4,16
   1a5dc:	3d41                	addiw	s10,s10,-16
   1a5de:	670a                	ld	a4,128(sp)
   1a5e0:	5666                	lw	a2,120(sp)
   1a5e2:	6e06                	ld	t3,64(sp)
   1a5e4:	7f62                	ld	t5,56(sp)
   1a5e6:	7f82                	ld	t6,32(sp)
   1a5e8:	87d6                	mv	a5,s5
   1a5ea:	429d                	li	t0,7
   1a5ec:	fdaec2e3          	blt	t4,s10,1a5b0 <_svfiprintf_r+0x712>
   1a5f0:	2605                	addiw	a2,a2,1
   1a5f2:	976a                	add	a4,a4,s10
   1a5f4:	01c7b023          	sd	t3,0(a5)
   1a5f8:	01a7b423          	sd	s10,8(a5)
   1a5fc:	e13a                	sd	a4,128(sp)
   1a5fe:	dcb2                	sw	a2,120(sp)
   1a600:	459d                	li	a1,7
   1a602:	07c1                	addi	a5,a5,16
   1a604:	9ec5d0e3          	bge	a1,a2,19fe4 <_svfiprintf_r+0x146>
   1a608:	65a2                	ld	a1,8(sp)
   1a60a:	6542                	ld	a0,16(sp)
   1a60c:	1890                	addi	a2,sp,112
   1a60e:	fc7a                	sd	t5,56(sp)
   1a610:	f07e                	sd	t6,32(sp)
   1a612:	f36ff0ef          	jal	ra,19d48 <__ssprint_r>
   1a616:	a60512e3          	bnez	a0,1a07a <_svfiprintf_r+0x1dc>
   1a61a:	670a                	ld	a4,128(sp)
   1a61c:	5666                	lw	a2,120(sp)
   1a61e:	7f62                	ld	t5,56(sp)
   1a620:	7f82                	ld	t6,32(sp)
   1a622:	87d6                	mv	a5,s5
   1a624:	b2c1                	j	19fe4 <_svfiprintf_r+0x146>
   1a626:	65a2                	ld	a1,8(sp)
   1a628:	6542                	ld	a0,16(sp)
   1a62a:	1890                	addi	a2,sp,112
   1a62c:	f07a                	sd	t5,32(sp)
   1a62e:	f1aff0ef          	jal	ra,19d48 <__ssprint_r>
   1a632:	a40514e3          	bnez	a0,1a07a <_svfiprintf_r+0x1dc>
   1a636:	670a                	ld	a4,128(sp)
   1a638:	5666                	lw	a2,120(sp)
   1a63a:	7f02                	ld	t5,32(sp)
   1a63c:	87d6                	mv	a5,s5
   1a63e:	b2cd                	j	1a020 <_svfiprintf_r+0x182>
   1a640:	6e75                	lui	t3,0x1d
   1a642:	4641                	li	a2,16
   1a644:	56e6                	lw	a3,120(sp)
   1a646:	348e0e13          	addi	t3,t3,840 # 1d348 <blanks.1>
   1a64a:	4d41                	li	s10,16
   1a64c:	4a1d                	li	s4,7
   1a64e:	00964663          	blt	a2,s1,1a65a <_svfiprintf_r+0x7bc>
   1a652:	a835                	j	1a68e <_svfiprintf_r+0x7f0>
   1a654:	34c1                	addiw	s1,s1,-16
   1a656:	029d5c63          	bge	s10,s1,1a68e <_svfiprintf_r+0x7f0>
   1a65a:	2685                	addiw	a3,a3,1
   1a65c:	0741                	addi	a4,a4,16
   1a65e:	01c7b023          	sd	t3,0(a5)
   1a662:	01a7b423          	sd	s10,8(a5)
   1a666:	e13a                	sd	a4,128(sp)
   1a668:	dcb6                	sw	a3,120(sp)
   1a66a:	07c1                	addi	a5,a5,16
   1a66c:	feda54e3          	bge	s4,a3,1a654 <_svfiprintf_r+0x7b6>
   1a670:	65a2                	ld	a1,8(sp)
   1a672:	6542                	ld	a0,16(sp)
   1a674:	1890                	addi	a2,sp,112
   1a676:	f072                	sd	t3,32(sp)
   1a678:	ed0ff0ef          	jal	ra,19d48 <__ssprint_r>
   1a67c:	9e051fe3          	bnez	a0,1a07a <_svfiprintf_r+0x1dc>
   1a680:	34c1                	addiw	s1,s1,-16
   1a682:	670a                	ld	a4,128(sp)
   1a684:	56e6                	lw	a3,120(sp)
   1a686:	7e02                	ld	t3,32(sp)
   1a688:	87d6                	mv	a5,s5
   1a68a:	fc9d48e3          	blt	s10,s1,1a65a <_svfiprintf_r+0x7bc>
   1a68e:	0016861b          	addiw	a2,a3,1
   1a692:	9726                	add	a4,a4,s1
   1a694:	01c7b023          	sd	t3,0(a5)
   1a698:	e784                	sd	s1,8(a5)
   1a69a:	e13a                	sd	a4,128(sp)
   1a69c:	dcb2                	sw	a2,120(sp)
   1a69e:	479d                	li	a5,7
   1a6a0:	9ac7dce3          	bge	a5,a2,1a058 <_svfiprintf_r+0x1ba>
   1a6a4:	65a2                	ld	a1,8(sp)
   1a6a6:	6542                	ld	a0,16(sp)
   1a6a8:	1890                	addi	a2,sp,112
   1a6aa:	e9eff0ef          	jal	ra,19d48 <__ssprint_r>
   1a6ae:	9c0516e3          	bnez	a0,1a07a <_svfiprintf_r+0x1dc>
   1a6b2:	670a                	ld	a4,128(sp)
   1a6b4:	b255                	j	1a058 <_svfiprintf_r+0x1ba>
   1a6b6:	414484bb          	subw	s1,s1,s4
   1a6ba:	0004891b          	sext.w	s2,s1
   1a6be:	af94d5e3          	bge	s1,s9,1a1a8 <_svfiprintf_r+0x30a>
   1a6c2:	000c891b          	sext.w	s2,s9
   1a6c6:	b4cd                	j	1a1a8 <_svfiprintf_r+0x30a>
   1a6c8:	4901                	li	s2,0
   1a6ca:	4481                	li	s1,0
   1a6cc:	0ec10a13          	addi	s4,sp,236
   1a6d0:	bce1                	j	1a1a8 <_svfiprintf_r+0x30a>
   1a6d2:	11e4                	addi	s1,sp,236
   1a6d4:	400b7e93          	andi	t4,s6,1024
   1a6d8:	4501                	li	a0,0
   1a6da:	85a6                	mv	a1,s1
   1a6dc:	4c29                	li	s8,10
   1a6de:	4e25                	li	t3,9
   1a6e0:	0ff00f13          	li	t5,255
   1a6e4:	a039                	j	1a6f2 <_svfiprintf_r+0x854>
   1a6e6:	03895633          	divu	a2,s2,s8
   1a6ea:	032e7863          	bgeu	t3,s2,1a71a <_svfiprintf_r+0x87c>
   1a6ee:	8932                	mv	s2,a2
   1a6f0:	85d2                	mv	a1,s4
   1a6f2:	fff58a13          	addi	s4,a1,-1
   1a6f6:	2505                	addiw	a0,a0,1
   1a6f8:	03897633          	remu	a2,s2,s8
   1a6fc:	0306061b          	addiw	a2,a2,48
   1a700:	fec58fa3          	sb	a2,-1(a1)
   1a704:	fe0e81e3          	beqz	t4,1a6e6 <_svfiprintf_r+0x848>
   1a708:	66a6                	ld	a3,72(sp)
   1a70a:	0006c603          	lbu	a2,0(a3)
   1a70e:	fca61ce3          	bne	a2,a0,1a6e6 <_svfiprintf_r+0x848>
   1a712:	fde60ae3          	beq	a2,t5,1a6e6 <_svfiprintf_r+0x848>
   1a716:	112e6e63          	bltu	t3,s2,1a832 <_svfiprintf_r+0x994>
   1a71a:	414484bb          	subw	s1,s1,s4
   1a71e:	0004891b          	sext.w	s2,s1
   1a722:	0d94c663          	blt	s1,s9,1a7ee <_svfiprintf_r+0x950>
   1a726:	8c6a                	mv	s8,s10
   1a728:	b441                	j	1a1a8 <_svfiprintf_r+0x30a>
   1a72a:	4901                	li	s2,0
   1a72c:	0ec10a13          	addi	s4,sp,236
   1a730:	bca5                	j	1a1a8 <_svfiprintf_r+0x30a>
   1a732:	000dc603          	lbu	a2,0(s11)
   1a736:	820584e3          	beqz	a1,19f5e <_svfiprintf_r+0xc0>
   1a73a:	0005c583          	lbu	a1,0(a1)
   1a73e:	820580e3          	beqz	a1,19f5e <_svfiprintf_r+0xc0>
   1a742:	400b6313          	ori	t1,s6,1024
   1a746:	00030b1b          	sext.w	s6,t1
   1a74a:	815ff06f          	j	19f5e <_svfiprintf_r+0xc0>
   1a74e:	0404f613          	andi	a2,s1,64
   1a752:	000c2903          	lw	s2,0(s8)
   1a756:	16060063          	beqz	a2,1a8b6 <_svfiprintf_r+0xa18>
   1a75a:	1942                	slli	s2,s2,0x30
   1a75c:	03095913          	srli	s2,s2,0x30
   1a760:	be65                	j	1a318 <_svfiprintf_r+0x47a>
   1a762:	04067893          	andi	a7,a2,64
   1a766:	000c2583          	lw	a1,0(s8)
   1a76a:	16088e63          	beqz	a7,1a8e6 <_svfiprintf_r+0xa48>
   1a76e:	15c2                	slli	a1,a1,0x30
   1a770:	91c1                	srli	a1,a1,0x30
   1a772:	be29                	j	1a28c <_svfiprintf_r+0x3ee>
   1a774:	000c891b          	sext.w	s2,s9
   1a778:	8a2a                	mv	s4,a0
   1a77a:	b43d                	j	1a1a8 <_svfiprintf_r+0x30a>
   1a77c:	66f1                	lui	a3,0x1c
   1a77e:	6b868693          	addi	a3,a3,1720 # 1c6b8 <__clzdi2+0x88>
   1a782:	f436                	sd	a3,40(sp)
   1a784:	020b7593          	andi	a1,s6,32
   1a788:	008c0513          	addi	a0,s8,8
   1a78c:	edb1                	bnez	a1,1a7e8 <_svfiprintf_r+0x94a>
   1a78e:	010b7593          	andi	a1,s6,16
   1a792:	e9b9                	bnez	a1,1a7e8 <_svfiprintf_r+0x94a>
   1a794:	040b7893          	andi	a7,s6,64
   1a798:	000c2583          	lw	a1,0(s8)
   1a79c:	12088363          	beqz	a7,1a8c2 <_svfiprintf_r+0xa24>
   1a7a0:	15c2                	slli	a1,a1,0x30
   1a7a2:	91c1                	srli	a1,a1,0x30
   1a7a4:	001b7893          	andi	a7,s6,1
   1a7a8:	00088d63          	beqz	a7,1a7c2 <_svfiprintf_r+0x924>
   1a7ac:	c999                	beqz	a1,1a7c2 <_svfiprintf_r+0x924>
   1a7ae:	002b6313          	ori	t1,s6,2
   1a7b2:	03000893          	li	a7,48
   1a7b6:	07110423          	sb	a7,104(sp)
   1a7ba:	06c104a3          	sb	a2,105(sp)
   1a7be:	00030b1b          	sext.w	s6,t1
   1a7c2:	bffb7313          	andi	t1,s6,-1025
   1a7c6:	00030b1b          	sext.w	s6,t1
   1a7ca:	8c2a                	mv	s8,a0
   1a7cc:	b4b5                	j	1a238 <_svfiprintf_r+0x39a>
   1a7ce:	865a                	mv	a2,s6
   1a7d0:	b45d                	j	1a276 <_svfiprintf_r+0x3d8>
   1a7d2:	84da                	mv	s1,s6
   1a7d4:	b63d                	j	1a302 <_svfiprintf_r+0x464>
   1a7d6:	66f1                	lui	a3,0x1c
   1a7d8:	6d068693          	addi	a3,a3,1744 # 1c6d0 <__clzdi2+0xa0>
   1a7dc:	f436                	sd	a3,40(sp)
   1a7de:	020b7593          	andi	a1,s6,32
   1a7e2:	008c0513          	addi	a0,s8,8
   1a7e6:	d5c5                	beqz	a1,1a78e <_svfiprintf_r+0x8f0>
   1a7e8:	000c3583          	ld	a1,0(s8)
   1a7ec:	bf65                	j	1a7a4 <_svfiprintf_r+0x906>
   1a7ee:	000c891b          	sext.w	s2,s9
   1a7f2:	8c6a                	mv	s8,s10
   1a7f4:	ba55                	j	1a1a8 <_svfiprintf_r+0x30a>
   1a7f6:	8552                	mv	a0,s4
   1a7f8:	aa7fb0ef          	jal	ra,1629e <strlen>
   1a7fc:	0005049b          	sext.w	s1,a0
   1a800:	fff4c913          	not	s2,s1
   1a804:	43f95913          	srai	s2,s2,0x3f
   1a808:	7782                	ld	a5,32(sp)
   1a80a:	7762                	ld	a4,56(sp)
   1a80c:	00997933          	and	s2,s2,s1
   1a810:	4c81                	li	s9,0
   1a812:	ba59                	j	1a1a8 <_svfiprintf_r+0x30a>
   1a814:	04000593          	li	a1,64
   1a818:	ca0fa0ef          	jal	ra,14cb8 <_malloc_r>
   1a81c:	6722                	ld	a4,8(sp)
   1a81e:	e308                	sd	a0,0(a4)
   1a820:	ef08                	sd	a0,24(a4)
   1a822:	12050663          	beqz	a0,1a94e <_svfiprintf_r+0xab0>
   1a826:	6722                	ld	a4,8(sp)
   1a828:	04000793          	li	a5,64
   1a82c:	d31c                	sw	a5,32(a4)
   1a82e:	ea4ff06f          	j	19ed2 <_svfiprintf_r+0x34>
   1a832:	f03e                	sd	a5,32(sp)
   1a834:	67e6                	ld	a5,88(sp)
   1a836:	65c6                	ld	a1,80(sp)
   1a838:	e0ba                	sd	a4,64(sp)
   1a83a:	40fa0a33          	sub	s4,s4,a5
   1a83e:	863e                	mv	a2,a5
   1a840:	8552                	mv	a0,s4
   1a842:	fc76                	sd	t4,56(sp)
   1a844:	aebfb0ef          	jal	ra,1632e <strncpy>
   1a848:	67a6                	ld	a5,72(sp)
   1a84a:	4629                	li	a2,10
   1a84c:	02c95633          	divu	a2,s2,a2
   1a850:	0017c583          	lbu	a1,1(a5)
   1a854:	7ee2                	ld	t4,56(sp)
   1a856:	6706                	ld	a4,64(sp)
   1a858:	00b035b3          	snez	a1,a1
   1a85c:	97ae                	add	a5,a5,a1
   1a85e:	e4be                	sd	a5,72(sp)
   1a860:	4501                	li	a0,0
   1a862:	7782                	ld	a5,32(sp)
   1a864:	4e25                	li	t3,9
   1a866:	0ff00f13          	li	t5,255
   1a86a:	b551                	j	1a6ee <_svfiprintf_r+0x850>
   1a86c:	8b32                	mv	s6,a2
   1a86e:	4601                	li	a2,0
   1a870:	a40608e3          	beqz	a2,1a2c0 <_svfiprintf_r+0x422>
   1a874:	b9e5                	j	1a56c <_svfiprintf_r+0x6ce>
   1a876:	200b6313          	ori	t1,s6,512
   1a87a:	001dc603          	lbu	a2,1(s11)
   1a87e:	00030b1b          	sext.w	s6,t1
   1a882:	0d85                	addi	s11,s11,1
   1a884:	edaff06f          	j	19f5e <_svfiprintf_r+0xc0>
   1a888:	020b6313          	ori	t1,s6,32
   1a88c:	001dc603          	lbu	a2,1(s11)
   1a890:	00030b1b          	sext.w	s6,t1
   1a894:	0d85                	addi	s11,s11,1
   1a896:	ec8ff06f          	j	19f5e <_svfiprintf_r+0xc0>
   1a89a:	4619                	li	a2,6
   1a89c:	000c849b          	sext.w	s1,s9
   1a8a0:	01967363          	bgeu	a2,s9,1a8a6 <_svfiprintf_r+0xa08>
   1a8a4:	4499                	li	s1,6
   1a8a6:	68f1                	lui	a7,0x1c
   1a8a8:	8926                	mv	s2,s1
   1a8aa:	6e888a13          	addi	s4,a7,1768 # 1c6e8 <__clzdi2+0xb8>
   1a8ae:	f18ff06f          	j	19fc6 <_svfiprintf_r+0x128>
   1a8b2:	4581                	li	a1,0
   1a8b4:	b965                	j	1a56c <_svfiprintf_r+0x6ce>
   1a8b6:	2004f613          	andi	a2,s1,512
   1a8ba:	ce21                	beqz	a2,1a912 <_svfiprintf_r+0xa74>
   1a8bc:	0ff97913          	zext.b	s2,s2
   1a8c0:	bca1                	j	1a318 <_svfiprintf_r+0x47a>
   1a8c2:	200b7893          	andi	a7,s6,512
   1a8c6:	04088363          	beqz	a7,1a90c <_svfiprintf_r+0xa6e>
   1a8ca:	0ff5f593          	zext.b	a1,a1
   1a8ce:	bdd9                	j	1a7a4 <_svfiprintf_r+0x906>
   1a8d0:	200b7613          	andi	a2,s6,512
   1a8d4:	ca05                	beqz	a2,1a904 <_svfiprintf_r+0xa66>
   1a8d6:	0189191b          	slliw	s2,s2,0x18
   1a8da:	4189591b          	sraiw	s2,s2,0x18
   1a8de:	864a                	mv	a2,s2
   1a8e0:	fe065963          	bgez	a2,1a0d2 <_svfiprintf_r+0x234>
   1a8e4:	b059                	j	1a16a <_svfiprintf_r+0x2cc>
   1a8e6:	20067893          	andi	a7,a2,512
   1a8ea:	00088a63          	beqz	a7,1a8fe <_svfiprintf_r+0xa60>
   1a8ee:	0ff5f593          	zext.b	a1,a1
   1a8f2:	ba69                	j	1a28c <_svfiprintf_r+0x3ee>
   1a8f4:	6d75                	lui	s10,0x1d
   1a8f6:	338d0693          	addi	a3,s10,824 # 1d338 <zeroes.0>
   1a8fa:	f036                	sd	a3,32(sp)
   1a8fc:	b911                	j	1a510 <_svfiprintf_r+0x672>
   1a8fe:	1582                	slli	a1,a1,0x20
   1a900:	9181                	srli	a1,a1,0x20
   1a902:	b269                	j	1a28c <_svfiprintf_r+0x3ee>
   1a904:	864a                	mv	a2,s2
   1a906:	fc065663          	bgez	a2,1a0d2 <_svfiprintf_r+0x234>
   1a90a:	b085                	j	1a16a <_svfiprintf_r+0x2cc>
   1a90c:	1582                	slli	a1,a1,0x20
   1a90e:	9181                	srli	a1,a1,0x20
   1a910:	bd51                	j	1a7a4 <_svfiprintf_r+0x906>
   1a912:	1902                	slli	s2,s2,0x20
   1a914:	02095913          	srli	s2,s2,0x20
   1a918:	b401                	j	1a318 <_svfiprintf_r+0x47a>
   1a91a:	66e2                	ld	a3,24(sp)
   1a91c:	0c21                	addi	s8,s8,8
   1a91e:	00d61023          	sh	a3,0(a2)
   1a922:	dd8ff06f          	j	19efa <_svfiprintf_r+0x5c>
   1a926:	65a2                	ld	a1,8(sp)
   1a928:	6542                	ld	a0,16(sp)
   1a92a:	1890                	addi	a2,sp,112
   1a92c:	c1cff0ef          	jal	ra,19d48 <__ssprint_r>
   1a930:	f4aff06f          	j	1a07a <_svfiprintf_r+0x1dc>
   1a934:	8966                	mv	s2,s9
   1a936:	84e6                	mv	s1,s9
   1a938:	4c81                	li	s9,0
   1a93a:	b0bd                	j	1a1a8 <_svfiprintf_r+0x30a>
   1a93c:	8c6a                	mv	s8,s10
   1a93e:	03000613          	li	a2,48
   1a942:	853ff06f          	j	1a194 <_svfiprintf_r+0x2f6>
   1a946:	c214                	sw	a3,0(a2)
   1a948:	0c21                	addi	s8,s8,8
   1a94a:	db0ff06f          	j	19efa <_svfiprintf_r+0x5c>
   1a94e:	6742                	ld	a4,16(sp)
   1a950:	47b1                	li	a5,12
   1a952:	c31c                	sw	a5,0(a4)
   1a954:	57fd                	li	a5,-1
   1a956:	ec3e                	sd	a5,24(sp)
   1a958:	f30ff06f          	j	1a088 <_svfiprintf_r+0x1ea>
   1a95c:	000c2603          	lw	a2,0(s8)
   1a960:	0c21                	addi	s8,s8,8
   1a962:	86b2                	mv	a3,a2
   1a964:	00065363          	bgez	a2,1a96a <_svfiprintf_r+0xacc>
   1a968:	56fd                	li	a3,-1
   1a96a:	001dc603          	lbu	a2,1(s11)
   1a96e:	00068c9b          	sext.w	s9,a3
   1a972:	8dae                	mv	s11,a1
   1a974:	deaff06f          	j	19f5e <_svfiprintf_r+0xc0>

000000000001a978 <__swbuf_r>:
   1a978:	7179                	addi	sp,sp,-48
   1a97a:	f022                	sd	s0,32(sp)
   1a97c:	ec26                	sd	s1,24(sp)
   1a97e:	e84a                	sd	s2,16(sp)
   1a980:	f406                	sd	ra,40(sp)
   1a982:	e44e                	sd	s3,8(sp)
   1a984:	892a                	mv	s2,a0
   1a986:	84ae                	mv	s1,a1
   1a988:	8432                	mv	s0,a2
   1a98a:	c119                	beqz	a0,1a990 <__swbuf_r+0x18>
   1a98c:	493c                	lw	a5,80(a0)
   1a98e:	cbf9                	beqz	a5,1aa64 <__swbuf_r+0xec>
   1a990:	541c                	lw	a5,40(s0)
   1a992:	01041703          	lh	a4,16(s0)
   1a996:	c45c                	sw	a5,12(s0)
   1a998:	00877793          	andi	a5,a4,8
   1a99c:	cbb9                	beqz	a5,1a9f2 <__swbuf_r+0x7a>
   1a99e:	6c1c                	ld	a5,24(s0)
   1a9a0:	cba9                	beqz	a5,1a9f2 <__swbuf_r+0x7a>
   1a9a2:	0ff4f993          	zext.b	s3,s1
   1a9a6:	03271693          	slli	a3,a4,0x32
   1a9aa:	84ce                	mv	s1,s3
   1a9ac:	0606d263          	bgez	a3,1aa10 <__swbuf_r+0x98>
   1a9b0:	6018                	ld	a4,0(s0)
   1a9b2:	5014                	lw	a3,32(s0)
   1a9b4:	40f707bb          	subw	a5,a4,a5
   1a9b8:	06d7dd63          	bge	a5,a3,1aa32 <__swbuf_r+0xba>
   1a9bc:	4454                	lw	a3,12(s0)
   1a9be:	00170613          	addi	a2,a4,1
   1a9c2:	e010                	sd	a2,0(s0)
   1a9c4:	36fd                	addiw	a3,a3,-1
   1a9c6:	c454                	sw	a3,12(s0)
   1a9c8:	01370023          	sb	s3,0(a4)
   1a9cc:	5018                	lw	a4,32(s0)
   1a9ce:	2785                	addiw	a5,a5,1
   1a9d0:	08f70363          	beq	a4,a5,1aa56 <__swbuf_r+0xde>
   1a9d4:	01045783          	lhu	a5,16(s0)
   1a9d8:	8b85                	andi	a5,a5,1
   1a9da:	c781                	beqz	a5,1a9e2 <__swbuf_r+0x6a>
   1a9dc:	47a9                	li	a5,10
   1a9de:	06f48c63          	beq	s1,a5,1aa56 <__swbuf_r+0xde>
   1a9e2:	70a2                	ld	ra,40(sp)
   1a9e4:	7402                	ld	s0,32(sp)
   1a9e6:	6942                	ld	s2,16(sp)
   1a9e8:	69a2                	ld	s3,8(sp)
   1a9ea:	8526                	mv	a0,s1
   1a9ec:	64e2                	ld	s1,24(sp)
   1a9ee:	6145                	addi	sp,sp,48
   1a9f0:	8082                	ret
   1a9f2:	85a2                	mv	a1,s0
   1a9f4:	854a                	mv	a0,s2
   1a9f6:	d92f70ef          	jal	ra,11f88 <__swsetup_r>
   1a9fa:	e13d                	bnez	a0,1aa60 <__swbuf_r+0xe8>
   1a9fc:	01041703          	lh	a4,16(s0)
   1aa00:	0ff4f993          	zext.b	s3,s1
   1aa04:	6c1c                	ld	a5,24(s0)
   1aa06:	03271693          	slli	a3,a4,0x32
   1aa0a:	84ce                	mv	s1,s3
   1aa0c:	fa06c2e3          	bltz	a3,1a9b0 <__swbuf_r+0x38>
   1aa10:	0ac42683          	lw	a3,172(s0)
   1aa14:	6609                	lui	a2,0x2
   1aa16:	8f51                	or	a4,a4,a2
   1aa18:	7679                	lui	a2,0xffffe
   1aa1a:	167d                	addi	a2,a2,-1 # ffffffffffffdfff <__BSS_END__+0xfffffffffffde88f>
   1aa1c:	8ef1                	and	a3,a3,a2
   1aa1e:	00e41823          	sh	a4,16(s0)
   1aa22:	6018                	ld	a4,0(s0)
   1aa24:	0ad42623          	sw	a3,172(s0)
   1aa28:	5014                	lw	a3,32(s0)
   1aa2a:	40f707bb          	subw	a5,a4,a5
   1aa2e:	f8d7c7e3          	blt	a5,a3,1a9bc <__swbuf_r+0x44>
   1aa32:	85a2                	mv	a1,s0
   1aa34:	854a                	mv	a0,s2
   1aa36:	87ff70ef          	jal	ra,122b4 <_fflush_r>
   1aa3a:	e11d                	bnez	a0,1aa60 <__swbuf_r+0xe8>
   1aa3c:	6018                	ld	a4,0(s0)
   1aa3e:	4454                	lw	a3,12(s0)
   1aa40:	4785                	li	a5,1
   1aa42:	00170613          	addi	a2,a4,1
   1aa46:	36fd                	addiw	a3,a3,-1
   1aa48:	e010                	sd	a2,0(s0)
   1aa4a:	c454                	sw	a3,12(s0)
   1aa4c:	01370023          	sb	s3,0(a4)
   1aa50:	5018                	lw	a4,32(s0)
   1aa52:	f8f711e3          	bne	a4,a5,1a9d4 <__swbuf_r+0x5c>
   1aa56:	85a2                	mv	a1,s0
   1aa58:	854a                	mv	a0,s2
   1aa5a:	85bf70ef          	jal	ra,122b4 <_fflush_r>
   1aa5e:	d151                	beqz	a0,1a9e2 <__swbuf_r+0x6a>
   1aa60:	54fd                	li	s1,-1
   1aa62:	b741                	j	1a9e2 <__swbuf_r+0x6a>
   1aa64:	b23f70ef          	jal	ra,12586 <__sinit>
   1aa68:	b725                	j	1a990 <__swbuf_r+0x18>

000000000001aa6a <__swbuf>:
   1aa6a:	87aa                	mv	a5,a0
   1aa6c:	7581b503          	ld	a0,1880(gp) # 1f6c8 <_impure_ptr>
   1aa70:	862e                	mv	a2,a1
   1aa72:	85be                	mv	a1,a5
   1aa74:	f05ff06f          	j	1a978 <__swbuf_r>

000000000001aa78 <_wcrtomb_r>:
   1aa78:	7179                	addi	sp,sp,-48
   1aa7a:	f022                	sd	s0,32(sp)
   1aa7c:	ec26                	sd	s1,24(sp)
   1aa7e:	f406                	sd	ra,40(sp)
   1aa80:	6481b783          	ld	a5,1608(gp) # 1f5b8 <__global_locale+0xe0>
   1aa84:	842a                	mv	s0,a0
   1aa86:	84b6                	mv	s1,a3
   1aa88:	c991                	beqz	a1,1aa9c <_wcrtomb_r+0x24>
   1aa8a:	9782                	jalr	a5
   1aa8c:	57fd                	li	a5,-1
   1aa8e:	00f50d63          	beq	a0,a5,1aaa8 <_wcrtomb_r+0x30>
   1aa92:	70a2                	ld	ra,40(sp)
   1aa94:	7402                	ld	s0,32(sp)
   1aa96:	64e2                	ld	s1,24(sp)
   1aa98:	6145                	addi	sp,sp,48
   1aa9a:	8082                	ret
   1aa9c:	4601                	li	a2,0
   1aa9e:	858a                	mv	a1,sp
   1aaa0:	9782                	jalr	a5
   1aaa2:	57fd                	li	a5,-1
   1aaa4:	fef517e3          	bne	a0,a5,1aa92 <_wcrtomb_r+0x1a>
   1aaa8:	0004a023          	sw	zero,0(s1)
   1aaac:	08a00793          	li	a5,138
   1aab0:	70a2                	ld	ra,40(sp)
   1aab2:	c01c                	sw	a5,0(s0)
   1aab4:	7402                	ld	s0,32(sp)
   1aab6:	64e2                	ld	s1,24(sp)
   1aab8:	6145                	addi	sp,sp,48
   1aaba:	8082                	ret

000000000001aabc <wcrtomb>:
   1aabc:	7179                	addi	sp,sp,-48
   1aabe:	f022                	sd	s0,32(sp)
   1aac0:	ec26                	sd	s1,24(sp)
   1aac2:	f406                	sd	ra,40(sp)
   1aac4:	7581b483          	ld	s1,1880(gp) # 1f6c8 <_impure_ptr>
   1aac8:	6481b783          	ld	a5,1608(gp) # 1f5b8 <__global_locale+0xe0>
   1aacc:	8432                	mv	s0,a2
   1aace:	cd11                	beqz	a0,1aaea <wcrtomb+0x2e>
   1aad0:	862e                	mv	a2,a1
   1aad2:	86a2                	mv	a3,s0
   1aad4:	85aa                	mv	a1,a0
   1aad6:	8526                	mv	a0,s1
   1aad8:	9782                	jalr	a5
   1aada:	57fd                	li	a5,-1
   1aadc:	00f50f63          	beq	a0,a5,1aafa <wcrtomb+0x3e>
   1aae0:	70a2                	ld	ra,40(sp)
   1aae2:	7402                	ld	s0,32(sp)
   1aae4:	64e2                	ld	s1,24(sp)
   1aae6:	6145                	addi	sp,sp,48
   1aae8:	8082                	ret
   1aaea:	86b2                	mv	a3,a2
   1aaec:	858a                	mv	a1,sp
   1aaee:	4601                	li	a2,0
   1aaf0:	8526                	mv	a0,s1
   1aaf2:	9782                	jalr	a5
   1aaf4:	57fd                	li	a5,-1
   1aaf6:	fef515e3          	bne	a0,a5,1aae0 <wcrtomb+0x24>
   1aafa:	00042023          	sw	zero,0(s0)
   1aafe:	70a2                	ld	ra,40(sp)
   1ab00:	7402                	ld	s0,32(sp)
   1ab02:	08a00793          	li	a5,138
   1ab06:	c09c                	sw	a5,0(s1)
   1ab08:	64e2                	ld	s1,24(sp)
   1ab0a:	6145                	addi	sp,sp,48
   1ab0c:	8082                	ret

000000000001ab0e <_wctomb_r>:
   1ab0e:	6481b783          	ld	a5,1608(gp) # 1f5b8 <__global_locale+0xe0>
   1ab12:	8782                	jr	a5

000000000001ab14 <__ascii_wctomb>:
   1ab14:	0006079b          	sext.w	a5,a2
   1ab18:	cd91                	beqz	a1,1ab34 <__ascii_wctomb+0x20>
   1ab1a:	0ff00713          	li	a4,255
   1ab1e:	00f76663          	bltu	a4,a5,1ab2a <__ascii_wctomb+0x16>
   1ab22:	00c58023          	sb	a2,0(a1)
   1ab26:	4505                	li	a0,1
   1ab28:	8082                	ret
   1ab2a:	08a00793          	li	a5,138
   1ab2e:	c11c                	sw	a5,0(a0)
   1ab30:	557d                	li	a0,-1
   1ab32:	8082                	ret
   1ab34:	4501                	li	a0,0
   1ab36:	8082                	ret

000000000001ab38 <abort>:
   1ab38:	1141                	addi	sp,sp,-16
   1ab3a:	4519                	li	a0,6
   1ab3c:	e406                	sd	ra,8(sp)
   1ab3e:	196000ef          	jal	ra,1acd4 <raise>
   1ab42:	4505                	li	a0,1
   1ab44:	38e000ef          	jal	ra,1aed2 <_exit>

000000000001ab48 <_init_signal_r>:
   1ab48:	51853783          	ld	a5,1304(a0)
   1ab4c:	c399                	beqz	a5,1ab52 <_init_signal_r+0xa>
   1ab4e:	4501                	li	a0,0
   1ab50:	8082                	ret
   1ab52:	1141                	addi	sp,sp,-16
   1ab54:	10000593          	li	a1,256
   1ab58:	e022                	sd	s0,0(sp)
   1ab5a:	e406                	sd	ra,8(sp)
   1ab5c:	842a                	mv	s0,a0
   1ab5e:	95afa0ef          	jal	ra,14cb8 <_malloc_r>
   1ab62:	50a43c23          	sd	a0,1304(s0)
   1ab66:	cd09                	beqz	a0,1ab80 <_init_signal_r+0x38>
   1ab68:	10050793          	addi	a5,a0,256
   1ab6c:	00053023          	sd	zero,0(a0)
   1ab70:	0521                	addi	a0,a0,8
   1ab72:	fef51de3          	bne	a0,a5,1ab6c <_init_signal_r+0x24>
   1ab76:	4501                	li	a0,0
   1ab78:	60a2                	ld	ra,8(sp)
   1ab7a:	6402                	ld	s0,0(sp)
   1ab7c:	0141                	addi	sp,sp,16
   1ab7e:	8082                	ret
   1ab80:	557d                	li	a0,-1
   1ab82:	bfdd                	j	1ab78 <_init_signal_r+0x30>

000000000001ab84 <_signal_r>:
   1ab84:	7179                	addi	sp,sp,-48
   1ab86:	ec26                	sd	s1,24(sp)
   1ab88:	f406                	sd	ra,40(sp)
   1ab8a:	f022                	sd	s0,32(sp)
   1ab8c:	47fd                	li	a5,31
   1ab8e:	84aa                	mv	s1,a0
   1ab90:	00b7ef63          	bltu	a5,a1,1abae <_signal_r+0x2a>
   1ab94:	51853783          	ld	a5,1304(a0)
   1ab98:	842e                	mv	s0,a1
   1ab9a:	cf91                	beqz	a5,1abb6 <_signal_r+0x32>
   1ab9c:	040e                	slli	s0,s0,0x3
   1ab9e:	97a2                	add	a5,a5,s0
   1aba0:	6388                	ld	a0,0(a5)
   1aba2:	e390                	sd	a2,0(a5)
   1aba4:	70a2                	ld	ra,40(sp)
   1aba6:	7402                	ld	s0,32(sp)
   1aba8:	64e2                	ld	s1,24(sp)
   1abaa:	6145                	addi	sp,sp,48
   1abac:	8082                	ret
   1abae:	47d9                	li	a5,22
   1abb0:	c11c                	sw	a5,0(a0)
   1abb2:	557d                	li	a0,-1
   1abb4:	bfc5                	j	1aba4 <_signal_r+0x20>
   1abb6:	10000593          	li	a1,256
   1abba:	e432                	sd	a2,8(sp)
   1abbc:	8fcfa0ef          	jal	ra,14cb8 <_malloc_r>
   1abc0:	50a4bc23          	sd	a0,1304(s1)
   1abc4:	6622                	ld	a2,8(sp)
   1abc6:	87aa                	mv	a5,a0
   1abc8:	872a                	mv	a4,a0
   1abca:	10050693          	addi	a3,a0,256
   1abce:	d175                	beqz	a0,1abb2 <_signal_r+0x2e>
   1abd0:	00073023          	sd	zero,0(a4)
   1abd4:	0721                	addi	a4,a4,8
   1abd6:	fed71de3          	bne	a4,a3,1abd0 <_signal_r+0x4c>
   1abda:	b7c9                	j	1ab9c <_signal_r+0x18>

000000000001abdc <_raise_r>:
   1abdc:	1101                	addi	sp,sp,-32
   1abde:	e426                	sd	s1,8(sp)
   1abe0:	ec06                	sd	ra,24(sp)
   1abe2:	e822                	sd	s0,16(sp)
   1abe4:	47fd                	li	a5,31
   1abe6:	84aa                	mv	s1,a0
   1abe8:	04b7ee63          	bltu	a5,a1,1ac44 <_raise_r+0x68>
   1abec:	51853783          	ld	a5,1304(a0)
   1abf0:	842e                	mv	s0,a1
   1abf2:	c795                	beqz	a5,1ac1e <_raise_r+0x42>
   1abf4:	00359713          	slli	a4,a1,0x3
   1abf8:	97ba                	add	a5,a5,a4
   1abfa:	6398                	ld	a4,0(a5)
   1abfc:	c30d                	beqz	a4,1ac1e <_raise_r+0x42>
   1abfe:	4685                	li	a3,1
   1ac00:	00d70963          	beq	a4,a3,1ac12 <_raise_r+0x36>
   1ac04:	56fd                	li	a3,-1
   1ac06:	02d70763          	beq	a4,a3,1ac34 <_raise_r+0x58>
   1ac0a:	0007b023          	sd	zero,0(a5)
   1ac0e:	852e                	mv	a0,a1
   1ac10:	9702                	jalr	a4
   1ac12:	4501                	li	a0,0
   1ac14:	60e2                	ld	ra,24(sp)
   1ac16:	6442                	ld	s0,16(sp)
   1ac18:	64a2                	ld	s1,8(sp)
   1ac1a:	6105                	addi	sp,sp,32
   1ac1c:	8082                	ret
   1ac1e:	8526                	mv	a0,s1
   1ac20:	284000ef          	jal	ra,1aea4 <_getpid_r>
   1ac24:	8622                	mv	a2,s0
   1ac26:	6442                	ld	s0,16(sp)
   1ac28:	60e2                	ld	ra,24(sp)
   1ac2a:	85aa                	mv	a1,a0
   1ac2c:	8526                	mv	a0,s1
   1ac2e:	64a2                	ld	s1,8(sp)
   1ac30:	6105                	addi	sp,sp,32
   1ac32:	ac25                	j	1ae6a <_kill_r>
   1ac34:	60e2                	ld	ra,24(sp)
   1ac36:	6442                	ld	s0,16(sp)
   1ac38:	47d9                	li	a5,22
   1ac3a:	c11c                	sw	a5,0(a0)
   1ac3c:	64a2                	ld	s1,8(sp)
   1ac3e:	4505                	li	a0,1
   1ac40:	6105                	addi	sp,sp,32
   1ac42:	8082                	ret
   1ac44:	47d9                	li	a5,22
   1ac46:	c11c                	sw	a5,0(a0)
   1ac48:	557d                	li	a0,-1
   1ac4a:	b7e9                	j	1ac14 <_raise_r+0x38>

000000000001ac4c <__sigtramp_r>:
   1ac4c:	47fd                	li	a5,31
   1ac4e:	08b7e163          	bltu	a5,a1,1acd0 <__sigtramp_r+0x84>
   1ac52:	51853783          	ld	a5,1304(a0)
   1ac56:	1101                	addi	sp,sp,-32
   1ac58:	e822                	sd	s0,16(sp)
   1ac5a:	e426                	sd	s1,8(sp)
   1ac5c:	ec06                	sd	ra,24(sp)
   1ac5e:	842e                	mv	s0,a1
   1ac60:	84aa                	mv	s1,a0
   1ac62:	c7a1                	beqz	a5,1acaa <__sigtramp_r+0x5e>
   1ac64:	00341713          	slli	a4,s0,0x3
   1ac68:	97ba                	add	a5,a5,a4
   1ac6a:	6398                	ld	a4,0(a5)
   1ac6c:	c30d                	beqz	a4,1ac8e <__sigtramp_r+0x42>
   1ac6e:	56fd                	li	a3,-1
   1ac70:	02d70b63          	beq	a4,a3,1aca6 <__sigtramp_r+0x5a>
   1ac74:	4685                	li	a3,1
   1ac76:	02d70263          	beq	a4,a3,1ac9a <__sigtramp_r+0x4e>
   1ac7a:	8522                	mv	a0,s0
   1ac7c:	0007b023          	sd	zero,0(a5)
   1ac80:	9702                	jalr	a4
   1ac82:	4501                	li	a0,0
   1ac84:	60e2                	ld	ra,24(sp)
   1ac86:	6442                	ld	s0,16(sp)
   1ac88:	64a2                	ld	s1,8(sp)
   1ac8a:	6105                	addi	sp,sp,32
   1ac8c:	8082                	ret
   1ac8e:	60e2                	ld	ra,24(sp)
   1ac90:	6442                	ld	s0,16(sp)
   1ac92:	64a2                	ld	s1,8(sp)
   1ac94:	4505                	li	a0,1
   1ac96:	6105                	addi	sp,sp,32
   1ac98:	8082                	ret
   1ac9a:	60e2                	ld	ra,24(sp)
   1ac9c:	6442                	ld	s0,16(sp)
   1ac9e:	64a2                	ld	s1,8(sp)
   1aca0:	450d                	li	a0,3
   1aca2:	6105                	addi	sp,sp,32
   1aca4:	8082                	ret
   1aca6:	4509                	li	a0,2
   1aca8:	bff1                	j	1ac84 <__sigtramp_r+0x38>
   1acaa:	10000593          	li	a1,256
   1acae:	80afa0ef          	jal	ra,14cb8 <_malloc_r>
   1acb2:	50a4bc23          	sd	a0,1304(s1)
   1acb6:	87aa                	mv	a5,a0
   1acb8:	c911                	beqz	a0,1accc <__sigtramp_r+0x80>
   1acba:	872a                	mv	a4,a0
   1acbc:	10050693          	addi	a3,a0,256
   1acc0:	00073023          	sd	zero,0(a4)
   1acc4:	0721                	addi	a4,a4,8
   1acc6:	fee69de3          	bne	a3,a4,1acc0 <__sigtramp_r+0x74>
   1acca:	bf69                	j	1ac64 <__sigtramp_r+0x18>
   1accc:	557d                	li	a0,-1
   1acce:	bf5d                	j	1ac84 <__sigtramp_r+0x38>
   1acd0:	557d                	li	a0,-1
   1acd2:	8082                	ret

000000000001acd4 <raise>:
   1acd4:	1101                	addi	sp,sp,-32
   1acd6:	e426                	sd	s1,8(sp)
   1acd8:	ec06                	sd	ra,24(sp)
   1acda:	e822                	sd	s0,16(sp)
   1acdc:	47fd                	li	a5,31
   1acde:	7581b483          	ld	s1,1880(gp) # 1f6c8 <_impure_ptr>
   1ace2:	04a7ed63          	bltu	a5,a0,1ad3c <raise+0x68>
   1ace6:	5184b783          	ld	a5,1304(s1)
   1acea:	842a                	mv	s0,a0
   1acec:	c78d                	beqz	a5,1ad16 <raise+0x42>
   1acee:	00351713          	slli	a4,a0,0x3
   1acf2:	97ba                	add	a5,a5,a4
   1acf4:	6398                	ld	a4,0(a5)
   1acf6:	c305                	beqz	a4,1ad16 <raise+0x42>
   1acf8:	4685                	li	a3,1
   1acfa:	00d70863          	beq	a4,a3,1ad0a <raise+0x36>
   1acfe:	56fd                	li	a3,-1
   1ad00:	02d70663          	beq	a4,a3,1ad2c <raise+0x58>
   1ad04:	0007b023          	sd	zero,0(a5)
   1ad08:	9702                	jalr	a4
   1ad0a:	4501                	li	a0,0
   1ad0c:	60e2                	ld	ra,24(sp)
   1ad0e:	6442                	ld	s0,16(sp)
   1ad10:	64a2                	ld	s1,8(sp)
   1ad12:	6105                	addi	sp,sp,32
   1ad14:	8082                	ret
   1ad16:	8526                	mv	a0,s1
   1ad18:	18c000ef          	jal	ra,1aea4 <_getpid_r>
   1ad1c:	8622                	mv	a2,s0
   1ad1e:	6442                	ld	s0,16(sp)
   1ad20:	60e2                	ld	ra,24(sp)
   1ad22:	85aa                	mv	a1,a0
   1ad24:	8526                	mv	a0,s1
   1ad26:	64a2                	ld	s1,8(sp)
   1ad28:	6105                	addi	sp,sp,32
   1ad2a:	a281                	j	1ae6a <_kill_r>
   1ad2c:	60e2                	ld	ra,24(sp)
   1ad2e:	6442                	ld	s0,16(sp)
   1ad30:	47d9                	li	a5,22
   1ad32:	c09c                	sw	a5,0(s1)
   1ad34:	4505                	li	a0,1
   1ad36:	64a2                	ld	s1,8(sp)
   1ad38:	6105                	addi	sp,sp,32
   1ad3a:	8082                	ret
   1ad3c:	47d9                	li	a5,22
   1ad3e:	c09c                	sw	a5,0(s1)
   1ad40:	557d                	li	a0,-1
   1ad42:	b7e9                	j	1ad0c <raise+0x38>

000000000001ad44 <signal>:
   1ad44:	1101                	addi	sp,sp,-32
   1ad46:	e04a                	sd	s2,0(sp)
   1ad48:	ec06                	sd	ra,24(sp)
   1ad4a:	e822                	sd	s0,16(sp)
   1ad4c:	e426                	sd	s1,8(sp)
   1ad4e:	47fd                	li	a5,31
   1ad50:	7581b903          	ld	s2,1880(gp) # 1f6c8 <_impure_ptr>
   1ad54:	02a7e263          	bltu	a5,a0,1ad78 <signal+0x34>
   1ad58:	842a                	mv	s0,a0
   1ad5a:	51893503          	ld	a0,1304(s2)
   1ad5e:	84ae                	mv	s1,a1
   1ad60:	c10d                	beqz	a0,1ad82 <signal+0x3e>
   1ad62:	040e                	slli	s0,s0,0x3
   1ad64:	008507b3          	add	a5,a0,s0
   1ad68:	6388                	ld	a0,0(a5)
   1ad6a:	e384                	sd	s1,0(a5)
   1ad6c:	60e2                	ld	ra,24(sp)
   1ad6e:	6442                	ld	s0,16(sp)
   1ad70:	64a2                	ld	s1,8(sp)
   1ad72:	6902                	ld	s2,0(sp)
   1ad74:	6105                	addi	sp,sp,32
   1ad76:	8082                	ret
   1ad78:	47d9                	li	a5,22
   1ad7a:	00f92023          	sw	a5,0(s2)
   1ad7e:	557d                	li	a0,-1
   1ad80:	b7f5                	j	1ad6c <signal+0x28>
   1ad82:	10000593          	li	a1,256
   1ad86:	854a                	mv	a0,s2
   1ad88:	f31f90ef          	jal	ra,14cb8 <_malloc_r>
   1ad8c:	50a93c23          	sd	a0,1304(s2)
   1ad90:	87aa                	mv	a5,a0
   1ad92:	10050713          	addi	a4,a0,256
   1ad96:	d565                	beqz	a0,1ad7e <signal+0x3a>
   1ad98:	0007b023          	sd	zero,0(a5)
   1ad9c:	07a1                	addi	a5,a5,8
   1ad9e:	fee79de3          	bne	a5,a4,1ad98 <signal+0x54>
   1ada2:	b7c1                	j	1ad62 <signal+0x1e>

000000000001ada4 <_init_signal>:
   1ada4:	1141                	addi	sp,sp,-16
   1ada6:	e022                	sd	s0,0(sp)
   1ada8:	7581b403          	ld	s0,1880(gp) # 1f6c8 <_impure_ptr>
   1adac:	e406                	sd	ra,8(sp)
   1adae:	51843783          	ld	a5,1304(s0)
   1adb2:	c791                	beqz	a5,1adbe <_init_signal+0x1a>
   1adb4:	4501                	li	a0,0
   1adb6:	60a2                	ld	ra,8(sp)
   1adb8:	6402                	ld	s0,0(sp)
   1adba:	0141                	addi	sp,sp,16
   1adbc:	8082                	ret
   1adbe:	10000593          	li	a1,256
   1adc2:	8522                	mv	a0,s0
   1adc4:	ef5f90ef          	jal	ra,14cb8 <_malloc_r>
   1adc8:	50a43c23          	sd	a0,1304(s0)
   1adcc:	c909                	beqz	a0,1adde <_init_signal+0x3a>
   1adce:	10050793          	addi	a5,a0,256
   1add2:	00053023          	sd	zero,0(a0)
   1add6:	0521                	addi	a0,a0,8
   1add8:	fef51de3          	bne	a0,a5,1add2 <_init_signal+0x2e>
   1addc:	bfe1                	j	1adb4 <_init_signal+0x10>
   1adde:	557d                	li	a0,-1
   1ade0:	bfd9                	j	1adb6 <_init_signal+0x12>

000000000001ade2 <__sigtramp>:
   1ade2:	1101                	addi	sp,sp,-32
   1ade4:	e426                	sd	s1,8(sp)
   1ade6:	ec06                	sd	ra,24(sp)
   1ade8:	e822                	sd	s0,16(sp)
   1adea:	47fd                	li	a5,31
   1adec:	7581b483          	ld	s1,1880(gp) # 1f6c8 <_impure_ptr>
   1adf0:	06a7eb63          	bltu	a5,a0,1ae66 <__sigtramp+0x84>
   1adf4:	5184b783          	ld	a5,1304(s1)
   1adf8:	842a                	mv	s0,a0
   1adfa:	c7a1                	beqz	a5,1ae42 <__sigtramp+0x60>
   1adfc:	00341713          	slli	a4,s0,0x3
   1ae00:	97ba                	add	a5,a5,a4
   1ae02:	6398                	ld	a4,0(a5)
   1ae04:	c30d                	beqz	a4,1ae26 <__sigtramp+0x44>
   1ae06:	56fd                	li	a3,-1
   1ae08:	02d70b63          	beq	a4,a3,1ae3e <__sigtramp+0x5c>
   1ae0c:	4685                	li	a3,1
   1ae0e:	02d70263          	beq	a4,a3,1ae32 <__sigtramp+0x50>
   1ae12:	8522                	mv	a0,s0
   1ae14:	0007b023          	sd	zero,0(a5)
   1ae18:	9702                	jalr	a4
   1ae1a:	4501                	li	a0,0
   1ae1c:	60e2                	ld	ra,24(sp)
   1ae1e:	6442                	ld	s0,16(sp)
   1ae20:	64a2                	ld	s1,8(sp)
   1ae22:	6105                	addi	sp,sp,32
   1ae24:	8082                	ret
   1ae26:	60e2                	ld	ra,24(sp)
   1ae28:	6442                	ld	s0,16(sp)
   1ae2a:	64a2                	ld	s1,8(sp)
   1ae2c:	4505                	li	a0,1
   1ae2e:	6105                	addi	sp,sp,32
   1ae30:	8082                	ret
   1ae32:	60e2                	ld	ra,24(sp)
   1ae34:	6442                	ld	s0,16(sp)
   1ae36:	64a2                	ld	s1,8(sp)
   1ae38:	450d                	li	a0,3
   1ae3a:	6105                	addi	sp,sp,32
   1ae3c:	8082                	ret
   1ae3e:	4509                	li	a0,2
   1ae40:	bff1                	j	1ae1c <__sigtramp+0x3a>
   1ae42:	10000593          	li	a1,256
   1ae46:	8526                	mv	a0,s1
   1ae48:	e71f90ef          	jal	ra,14cb8 <_malloc_r>
   1ae4c:	50a4bc23          	sd	a0,1304(s1)
   1ae50:	87aa                	mv	a5,a0
   1ae52:	c911                	beqz	a0,1ae66 <__sigtramp+0x84>
   1ae54:	872a                	mv	a4,a0
   1ae56:	10050693          	addi	a3,a0,256
   1ae5a:	00073023          	sd	zero,0(a4)
   1ae5e:	0721                	addi	a4,a4,8
   1ae60:	fee69de3          	bne	a3,a4,1ae5a <__sigtramp+0x78>
   1ae64:	bf61                	j	1adfc <__sigtramp+0x1a>
   1ae66:	557d                	li	a0,-1
   1ae68:	bf55                	j	1ae1c <__sigtramp+0x3a>

000000000001ae6a <_kill_r>:
   1ae6a:	1101                	addi	sp,sp,-32
   1ae6c:	872e                	mv	a4,a1
   1ae6e:	e822                	sd	s0,16(sp)
   1ae70:	e426                	sd	s1,8(sp)
   1ae72:	842a                	mv	s0,a0
   1ae74:	85b2                	mv	a1,a2
   1ae76:	853a                	mv	a0,a4
   1ae78:	ec06                	sd	ra,24(sp)
   1ae7a:	7801a823          	sw	zero,1936(gp) # 1f700 <errno>
   1ae7e:	0e0000ef          	jal	ra,1af5e <_kill>
   1ae82:	57fd                	li	a5,-1
   1ae84:	00f50763          	beq	a0,a5,1ae92 <_kill_r+0x28>
   1ae88:	60e2                	ld	ra,24(sp)
   1ae8a:	6442                	ld	s0,16(sp)
   1ae8c:	64a2                	ld	s1,8(sp)
   1ae8e:	6105                	addi	sp,sp,32
   1ae90:	8082                	ret
   1ae92:	7901a783          	lw	a5,1936(gp) # 1f700 <errno>
   1ae96:	dbed                	beqz	a5,1ae88 <_kill_r+0x1e>
   1ae98:	60e2                	ld	ra,24(sp)
   1ae9a:	c01c                	sw	a5,0(s0)
   1ae9c:	6442                	ld	s0,16(sp)
   1ae9e:	64a2                	ld	s1,8(sp)
   1aea0:	6105                	addi	sp,sp,32
   1aea2:	8082                	ret

000000000001aea4 <_getpid_r>:
   1aea4:	a841                	j	1af34 <_getpid>

000000000001aea6 <_close>:
   1aea6:	1141                	addi	sp,sp,-16
   1aea8:	e406                	sd	ra,8(sp)
   1aeaa:	e022                	sd	s0,0(sp)
   1aeac:	03900893          	li	a7,57
   1aeb0:	00000073          	ecall
   1aeb4:	842a                	mv	s0,a0
   1aeb6:	00054763          	bltz	a0,1aec4 <_close+0x1e>
   1aeba:	2501                	sext.w	a0,a0
   1aebc:	60a2                	ld	ra,8(sp)
   1aebe:	6402                	ld	s0,0(sp)
   1aec0:	0141                	addi	sp,sp,16
   1aec2:	8082                	ret
   1aec4:	f61fd0ef          	jal	ra,18e24 <__errno>
   1aec8:	4080043b          	negw	s0,s0
   1aecc:	c100                	sw	s0,0(a0)
   1aece:	557d                	li	a0,-1
   1aed0:	b7f5                	j	1aebc <_close+0x16>

000000000001aed2 <_exit>:
   1aed2:	05d00893          	li	a7,93
   1aed6:	00000073          	ecall
   1aeda:	00054363          	bltz	a0,1aee0 <_exit+0xe>
   1aede:	a001                	j	1aede <_exit+0xc>
   1aee0:	1141                	addi	sp,sp,-16
   1aee2:	e022                	sd	s0,0(sp)
   1aee4:	842a                	mv	s0,a0
   1aee6:	e406                	sd	ra,8(sp)
   1aee8:	4080043b          	negw	s0,s0
   1aeec:	f39fd0ef          	jal	ra,18e24 <__errno>
   1aef0:	c100                	sw	s0,0(a0)
   1aef2:	a001                	j	1aef2 <_exit+0x20>

000000000001aef4 <_fstat>:
   1aef4:	7135                	addi	sp,sp,-160
   1aef6:	e526                	sd	s1,136(sp)
   1aef8:	ed06                	sd	ra,152(sp)
   1aefa:	84ae                	mv	s1,a1
   1aefc:	e922                	sd	s0,144(sp)
   1aefe:	05000893          	li	a7,80
   1af02:	858a                	mv	a1,sp
   1af04:	00000073          	ecall
   1af08:	842a                	mv	s0,a0
   1af0a:	00054e63          	bltz	a0,1af26 <_fstat+0x32>
   1af0e:	0005041b          	sext.w	s0,a0
   1af12:	8526                	mv	a0,s1
   1af14:	858a                	mv	a1,sp
   1af16:	134000ef          	jal	ra,1b04a <_conv_stat>
   1af1a:	60ea                	ld	ra,152(sp)
   1af1c:	8522                	mv	a0,s0
   1af1e:	644a                	ld	s0,144(sp)
   1af20:	64aa                	ld	s1,136(sp)
   1af22:	610d                	addi	sp,sp,160
   1af24:	8082                	ret
   1af26:	4080043b          	negw	s0,s0
   1af2a:	efbfd0ef          	jal	ra,18e24 <__errno>
   1af2e:	c100                	sw	s0,0(a0)
   1af30:	547d                	li	s0,-1
   1af32:	b7c5                	j	1af12 <_fstat+0x1e>

000000000001af34 <_getpid>:
   1af34:	4505                	li	a0,1
   1af36:	8082                	ret

000000000001af38 <_isatty>:
   1af38:	7119                	addi	sp,sp,-128
   1af3a:	002c                	addi	a1,sp,8
   1af3c:	fc86                	sd	ra,120(sp)
   1af3e:	fb7ff0ef          	jal	ra,1aef4 <_fstat>
   1af42:	57fd                	li	a5,-1
   1af44:	00f50963          	beq	a0,a5,1af56 <_isatty+0x1e>
   1af48:	4532                	lw	a0,12(sp)
   1af4a:	70e6                	ld	ra,120(sp)
   1af4c:	40d5551b          	sraiw	a0,a0,0xd
   1af50:	8905                	andi	a0,a0,1
   1af52:	6109                	addi	sp,sp,128
   1af54:	8082                	ret
   1af56:	70e6                	ld	ra,120(sp)
   1af58:	4501                	li	a0,0
   1af5a:	6109                	addi	sp,sp,128
   1af5c:	8082                	ret

000000000001af5e <_kill>:
   1af5e:	1141                	addi	sp,sp,-16
   1af60:	e406                	sd	ra,8(sp)
   1af62:	ec3fd0ef          	jal	ra,18e24 <__errno>
   1af66:	60a2                	ld	ra,8(sp)
   1af68:	47d9                	li	a5,22
   1af6a:	c11c                	sw	a5,0(a0)
   1af6c:	557d                	li	a0,-1
   1af6e:	0141                	addi	sp,sp,16
   1af70:	8082                	ret

000000000001af72 <_lseek>:
   1af72:	1141                	addi	sp,sp,-16
   1af74:	e406                	sd	ra,8(sp)
   1af76:	e022                	sd	s0,0(sp)
   1af78:	03e00893          	li	a7,62
   1af7c:	00000073          	ecall
   1af80:	842a                	mv	s0,a0
   1af82:	00054763          	bltz	a0,1af90 <_lseek+0x1e>
   1af86:	60a2                	ld	ra,8(sp)
   1af88:	8522                	mv	a0,s0
   1af8a:	6402                	ld	s0,0(sp)
   1af8c:	0141                	addi	sp,sp,16
   1af8e:	8082                	ret
   1af90:	4080043b          	negw	s0,s0
   1af94:	e91fd0ef          	jal	ra,18e24 <__errno>
   1af98:	c100                	sw	s0,0(a0)
   1af9a:	547d                	li	s0,-1
   1af9c:	b7ed                	j	1af86 <_lseek+0x14>

000000000001af9e <_read>:
   1af9e:	1141                	addi	sp,sp,-16
   1afa0:	e406                	sd	ra,8(sp)
   1afa2:	e022                	sd	s0,0(sp)
   1afa4:	03f00893          	li	a7,63
   1afa8:	00000073          	ecall
   1afac:	842a                	mv	s0,a0
   1afae:	00054763          	bltz	a0,1afbc <_read+0x1e>
   1afb2:	60a2                	ld	ra,8(sp)
   1afb4:	8522                	mv	a0,s0
   1afb6:	6402                	ld	s0,0(sp)
   1afb8:	0141                	addi	sp,sp,16
   1afba:	8082                	ret
   1afbc:	4080043b          	negw	s0,s0
   1afc0:	e65fd0ef          	jal	ra,18e24 <__errno>
   1afc4:	c100                	sw	s0,0(a0)
   1afc6:	547d                	li	s0,-1
   1afc8:	b7ed                	j	1afb2 <_read+0x14>

000000000001afca <_sbrk>:
   1afca:	7981b703          	ld	a4,1944(gp) # 1f708 <heap_end.0>
   1afce:	1141                	addi	sp,sp,-16
   1afd0:	e406                	sd	ra,8(sp)
   1afd2:	87aa                	mv	a5,a0
   1afd4:	ef01                	bnez	a4,1afec <_sbrk+0x22>
   1afd6:	0d600893          	li	a7,214
   1afda:	4501                	li	a0,0
   1afdc:	00000073          	ecall
   1afe0:	567d                	li	a2,-1
   1afe2:	872a                	mv	a4,a0
   1afe4:	02c50563          	beq	a0,a2,1b00e <_sbrk+0x44>
   1afe8:	78a1bc23          	sd	a0,1944(gp) # 1f708 <heap_end.0>
   1afec:	0d600893          	li	a7,214
   1aff0:	00e78533          	add	a0,a5,a4
   1aff4:	00000073          	ecall
   1aff8:	7981b703          	ld	a4,1944(gp) # 1f708 <heap_end.0>
   1affc:	97ba                	add	a5,a5,a4
   1affe:	00f51863          	bne	a0,a5,1b00e <_sbrk+0x44>
   1b002:	60a2                	ld	ra,8(sp)
   1b004:	78a1bc23          	sd	a0,1944(gp) # 1f708 <heap_end.0>
   1b008:	853a                	mv	a0,a4
   1b00a:	0141                	addi	sp,sp,16
   1b00c:	8082                	ret
   1b00e:	e17fd0ef          	jal	ra,18e24 <__errno>
   1b012:	60a2                	ld	ra,8(sp)
   1b014:	47b1                	li	a5,12
   1b016:	c11c                	sw	a5,0(a0)
   1b018:	557d                	li	a0,-1
   1b01a:	0141                	addi	sp,sp,16
   1b01c:	8082                	ret

000000000001b01e <_write>:
   1b01e:	1141                	addi	sp,sp,-16
   1b020:	e406                	sd	ra,8(sp)
   1b022:	e022                	sd	s0,0(sp)
   1b024:	04000893          	li	a7,64
   1b028:	00000073          	ecall
   1b02c:	842a                	mv	s0,a0
   1b02e:	00054763          	bltz	a0,1b03c <_write+0x1e>
   1b032:	60a2                	ld	ra,8(sp)
   1b034:	8522                	mv	a0,s0
   1b036:	6402                	ld	s0,0(sp)
   1b038:	0141                	addi	sp,sp,16
   1b03a:	8082                	ret
   1b03c:	4080043b          	negw	s0,s0
   1b040:	de5fd0ef          	jal	ra,18e24 <__errno>
   1b044:	c100                	sw	s0,0(a0)
   1b046:	547d                	li	s0,-1
   1b048:	b7ed                	j	1b032 <_write+0x14>

000000000001b04a <_conv_stat>:
   1b04a:	0185d703          	lhu	a4,24(a1)
   1b04e:	0145d783          	lhu	a5,20(a1)
   1b052:	4dd0                	lw	a2,28(a1)
   1b054:	7194                	ld	a3,32(a1)
   1b056:	0005b303          	ld	t1,0(a1)
   1b05a:	0085b883          	ld	a7,8(a1)
   1b05e:	0105a803          	lw	a6,16(a1)
   1b062:	0107171b          	slliw	a4,a4,0x10
   1b066:	8fd9                	or	a5,a5,a4
   1b068:	00c51623          	sh	a2,12(a0)
   1b06c:	00d51723          	sh	a3,14(a0)
   1b070:	00651023          	sh	t1,0(a0)
   1b074:	01151123          	sh	a7,2(a0)
   1b078:	01052223          	sw	a6,4(a0)
   1b07c:	c51c                	sw	a5,8(a0)
   1b07e:	7998                	ld	a4,48(a1)
   1b080:	65bc                	ld	a5,72(a1)
   1b082:	61b0                	ld	a2,64(a1)
   1b084:	5d94                	lw	a3,56(a1)
   1b086:	e918                	sd	a4,16(a0)
   1b088:	ed1c                	sd	a5,24(a0)
   1b08a:	6db8                	ld	a4,88(a1)
   1b08c:	75bc                	ld	a5,104(a1)
   1b08e:	e930                	sd	a2,80(a0)
   1b090:	e534                	sd	a3,72(a0)
   1b092:	f518                	sd	a4,40(a0)
   1b094:	fd1c                	sd	a5,56(a0)
   1b096:	8082                	ret

000000000001b098 <__eqtf2>:
   1b098:	002027f3          	frrm	a5
   1b09c:	67a1                	lui	a5,0x8
   1b09e:	0305d813          	srli	a6,a1,0x30
   1b0a2:	17fd                	addi	a5,a5,-1 # 7fff <exit-0x80e9>
   1b0a4:	5e7d                	li	t3,-1
   1b0a6:	010e5713          	srli	a4,t3,0x10
   1b0aa:	0306d313          	srli	t1,a3,0x30
   1b0ae:	00f87833          	and	a6,a6,a5
   1b0b2:	00e5f8b3          	and	a7,a1,a4
   1b0b6:	00f37333          	and	t1,t1,a5
   1b0ba:	8f75                	and	a4,a4,a3
   1b0bc:	91fd                	srli	a1,a1,0x3f
   1b0be:	92fd                	srli	a3,a3,0x3f
   1b0c0:	00f81f63          	bne	a6,a5,1b0de <__eqtf2+0x46>
   1b0c4:	00a8e533          	or	a0,a7,a0
   1b0c8:	e90d                	bnez	a0,1b0fa <__eqtf2+0x62>
   1b0ca:	4785                	li	a5,1
   1b0cc:	01031763          	bne	t1,a6,1b0da <__eqtf2+0x42>
   1b0d0:	8e59                	or	a2,a2,a4
   1b0d2:	ea19                	bnez	a2,1b0e8 <__eqtf2+0x50>
   1b0d4:	8d95                	sub	a1,a1,a3
   1b0d6:	00b037b3          	snez	a5,a1
   1b0da:	853e                	mv	a0,a5
   1b0dc:	a805                	j	1b10c <__eqtf2+0x74>
   1b0de:	02f31863          	bne	t1,a5,1b10e <__eqtf2+0x76>
   1b0e2:	8e59                	or	a2,a2,a4
   1b0e4:	4785                	li	a5,1
   1b0e6:	da75                	beqz	a2,1b0da <__eqtf2+0x42>
   1b0e8:	57fd                	li	a5,-1
   1b0ea:	83c5                	srli	a5,a5,0x11
   1b0ec:	4505                	li	a0,1
   1b0ee:	00e7ef63          	bltu	a5,a4,1b10c <__eqtf2+0x74>
   1b0f2:	00186073          	csrsi	fflags,16
   1b0f6:	4505                	li	a0,1
   1b0f8:	8082                	ret
   1b0fa:	011e5e13          	srli	t3,t3,0x11
   1b0fe:	ff1e7ae3          	bgeu	t3,a7,1b0f2 <__eqtf2+0x5a>
   1b102:	4505                	li	a0,1
   1b104:	01031463          	bne	t1,a6,1b10c <__eqtf2+0x74>
   1b108:	8e59                	or	a2,a2,a4
   1b10a:	fe79                	bnez	a2,1b0e8 <__eqtf2+0x50>
   1b10c:	8082                	ret
   1b10e:	4785                	li	a5,1
   1b110:	fc6815e3          	bne	a6,t1,1b0da <__eqtf2+0x42>
   1b114:	fce893e3          	bne	a7,a4,1b0da <__eqtf2+0x42>
   1b118:	fcc511e3          	bne	a0,a2,1b0da <__eqtf2+0x42>
   1b11c:	00d58963          	beq	a1,a3,1b12e <__eqtf2+0x96>
   1b120:	fa081de3          	bnez	a6,1b0da <__eqtf2+0x42>
   1b124:	00a8e8b3          	or	a7,a7,a0
   1b128:	011037b3          	snez	a5,a7
   1b12c:	b77d                	j	1b0da <__eqtf2+0x42>
   1b12e:	4781                	li	a5,0
   1b130:	b76d                	j	1b0da <__eqtf2+0x42>

000000000001b132 <__getf2>:
   1b132:	832a                	mv	t1,a0
   1b134:	002027f3          	frrm	a5
   1b138:	6e21                	lui	t3,0x8
   1b13a:	0305d893          	srli	a7,a1,0x30
   1b13e:	1e7d                	addi	t3,t3,-1 # 7fff <exit-0x80e9>
   1b140:	577d                	li	a4,-1
   1b142:	8341                	srli	a4,a4,0x10
   1b144:	0306d793          	srli	a5,a3,0x30
   1b148:	01c8f8b3          	and	a7,a7,t3
   1b14c:	00e5f833          	and	a6,a1,a4
   1b150:	01c7f533          	and	a0,a5,t3
   1b154:	8f75                	and	a4,a4,a3
   1b156:	91fd                	srli	a1,a1,0x3f
   1b158:	92fd                	srli	a3,a3,0x3f
   1b15a:	03c89263          	bne	a7,t3,1b17e <__getf2+0x4c>
   1b15e:	00686833          	or	a6,a6,t1
   1b162:	08081463          	bnez	a6,1b1ea <__getf2+0xb8>
   1b166:	01150663          	beq	a0,a7,1b172 <__getf2+0x40>
   1b16a:	4505                	li	a0,1
   1b16c:	cdb5                	beqz	a1,1b1e8 <__getf2+0xb6>
   1b16e:	557d                	li	a0,-1
   1b170:	8082                	ret
   1b172:	8f51                	or	a4,a4,a2
   1b174:	eb3d                	bnez	a4,1b1ea <__getf2+0xb8>
   1b176:	fed59ae3          	bne	a1,a3,1b16a <__getf2+0x38>
   1b17a:	4501                	li	a0,0
   1b17c:	8082                	ret
   1b17e:	03c51463          	bne	a0,t3,1b1a6 <__getf2+0x74>
   1b182:	8f51                	or	a4,a4,a2
   1b184:	e33d                	bnez	a4,1b1ea <__getf2+0xb8>
   1b186:	00088863          	beqz	a7,1b196 <__getf2+0x64>
   1b18a:	fed590e3          	bne	a1,a3,1b16a <__getf2+0x38>
   1b18e:	557d                	li	a0,-1
   1b190:	cda1                	beqz	a1,1b1e8 <__getf2+0xb6>
   1b192:	852e                	mv	a0,a1
   1b194:	8082                	ret
   1b196:	00686833          	or	a6,a6,t1
   1b19a:	fe0818e3          	bnez	a6,1b18a <__getf2+0x58>
   1b19e:	557d                	li	a0,-1
   1b1a0:	c6a1                	beqz	a3,1b1e8 <__getf2+0xb6>
   1b1a2:	8536                	mv	a0,a3
   1b1a4:	8082                	ret
   1b1a6:	02088363          	beqz	a7,1b1cc <__getf2+0x9a>
   1b1aa:	d161                	beqz	a0,1b16a <__getf2+0x38>
   1b1ac:	fad59fe3          	bne	a1,a3,1b16a <__getf2+0x38>
   1b1b0:	fb154de3          	blt	a0,a7,1b16a <__getf2+0x38>
   1b1b4:	fca8cde3          	blt	a7,a0,1b18e <__getf2+0x5c>
   1b1b8:	fb0769e3          	bltu	a4,a6,1b16a <__getf2+0x38>
   1b1bc:	fce819e3          	bne	a6,a4,1b18e <__getf2+0x5c>
   1b1c0:	fa6665e3          	bltu	a2,t1,1b16a <__getf2+0x38>
   1b1c4:	4501                	li	a0,0
   1b1c6:	02c37163          	bgeu	t1,a2,1b1e8 <__getf2+0xb6>
   1b1ca:	b7d1                	j	1b18e <__getf2+0x5c>
   1b1cc:	006867b3          	or	a5,a6,t1
   1b1d0:	c119                	beqz	a0,1b1d6 <__getf2+0xa4>
   1b1d2:	d7f1                	beqz	a5,1b19e <__getf2+0x6c>
   1b1d4:	bf5d                	j	1b18a <__getf2+0x58>
   1b1d6:	00c768b3          	or	a7,a4,a2
   1b1da:	00088663          	beqz	a7,1b1e6 <__getf2+0xb4>
   1b1de:	d3e1                	beqz	a5,1b19e <__getf2+0x6c>
   1b1e0:	fcd58ce3          	beq	a1,a3,1b1b8 <__getf2+0x86>
   1b1e4:	b759                	j	1b16a <__getf2+0x38>
   1b1e6:	f3d1                	bnez	a5,1b16a <__getf2+0x38>
   1b1e8:	8082                	ret
   1b1ea:	00186073          	csrsi	fflags,16
   1b1ee:	5579                	li	a0,-2
   1b1f0:	8082                	ret

000000000001b1f2 <__letf2>:
   1b1f2:	832a                	mv	t1,a0
   1b1f4:	002027f3          	frrm	a5
   1b1f8:	6e21                	lui	t3,0x8
   1b1fa:	0305d893          	srli	a7,a1,0x30
   1b1fe:	1e7d                	addi	t3,t3,-1 # 7fff <exit-0x80e9>
   1b200:	577d                	li	a4,-1
   1b202:	8341                	srli	a4,a4,0x10
   1b204:	0306d793          	srli	a5,a3,0x30
   1b208:	01c8f8b3          	and	a7,a7,t3
   1b20c:	00e5f833          	and	a6,a1,a4
   1b210:	01c7f533          	and	a0,a5,t3
   1b214:	8f75                	and	a4,a4,a3
   1b216:	91fd                	srli	a1,a1,0x3f
   1b218:	92fd                	srli	a3,a3,0x3f
   1b21a:	03c89263          	bne	a7,t3,1b23e <__letf2+0x4c>
   1b21e:	00686833          	or	a6,a6,t1
   1b222:	08081463          	bnez	a6,1b2aa <__letf2+0xb8>
   1b226:	01150663          	beq	a0,a7,1b232 <__letf2+0x40>
   1b22a:	4505                	li	a0,1
   1b22c:	cdb5                	beqz	a1,1b2a8 <__letf2+0xb6>
   1b22e:	557d                	li	a0,-1
   1b230:	8082                	ret
   1b232:	8f51                	or	a4,a4,a2
   1b234:	eb3d                	bnez	a4,1b2aa <__letf2+0xb8>
   1b236:	fed59ae3          	bne	a1,a3,1b22a <__letf2+0x38>
   1b23a:	4501                	li	a0,0
   1b23c:	8082                	ret
   1b23e:	03c51463          	bne	a0,t3,1b266 <__letf2+0x74>
   1b242:	8f51                	or	a4,a4,a2
   1b244:	e33d                	bnez	a4,1b2aa <__letf2+0xb8>
   1b246:	00088863          	beqz	a7,1b256 <__letf2+0x64>
   1b24a:	fed590e3          	bne	a1,a3,1b22a <__letf2+0x38>
   1b24e:	557d                	li	a0,-1
   1b250:	cda1                	beqz	a1,1b2a8 <__letf2+0xb6>
   1b252:	852e                	mv	a0,a1
   1b254:	8082                	ret
   1b256:	00686833          	or	a6,a6,t1
   1b25a:	fe0818e3          	bnez	a6,1b24a <__letf2+0x58>
   1b25e:	557d                	li	a0,-1
   1b260:	c6a1                	beqz	a3,1b2a8 <__letf2+0xb6>
   1b262:	8536                	mv	a0,a3
   1b264:	8082                	ret
   1b266:	02088363          	beqz	a7,1b28c <__letf2+0x9a>
   1b26a:	d161                	beqz	a0,1b22a <__letf2+0x38>
   1b26c:	fad59fe3          	bne	a1,a3,1b22a <__letf2+0x38>
   1b270:	fb154de3          	blt	a0,a7,1b22a <__letf2+0x38>
   1b274:	fca8cde3          	blt	a7,a0,1b24e <__letf2+0x5c>
   1b278:	fb0769e3          	bltu	a4,a6,1b22a <__letf2+0x38>
   1b27c:	fce819e3          	bne	a6,a4,1b24e <__letf2+0x5c>
   1b280:	fa6665e3          	bltu	a2,t1,1b22a <__letf2+0x38>
   1b284:	4501                	li	a0,0
   1b286:	02c37163          	bgeu	t1,a2,1b2a8 <__letf2+0xb6>
   1b28a:	b7d1                	j	1b24e <__letf2+0x5c>
   1b28c:	006867b3          	or	a5,a6,t1
   1b290:	c119                	beqz	a0,1b296 <__letf2+0xa4>
   1b292:	d7f1                	beqz	a5,1b25e <__letf2+0x6c>
   1b294:	bf5d                	j	1b24a <__letf2+0x58>
   1b296:	00c768b3          	or	a7,a4,a2
   1b29a:	00088663          	beqz	a7,1b2a6 <__letf2+0xb4>
   1b29e:	d3e1                	beqz	a5,1b25e <__letf2+0x6c>
   1b2a0:	fcd58ce3          	beq	a1,a3,1b278 <__letf2+0x86>
   1b2a4:	b759                	j	1b22a <__letf2+0x38>
   1b2a6:	f3d1                	bnez	a5,1b22a <__letf2+0x38>
   1b2a8:	8082                	ret
   1b2aa:	00186073          	csrsi	fflags,16
   1b2ae:	4509                	li	a0,2
   1b2b0:	8082                	ret

000000000001b2b2 <__multf3>:
   1b2b2:	711d                	addi	sp,sp,-96
   1b2b4:	e8a2                	sd	s0,80(sp)
   1b2b6:	f852                	sd	s4,48(sp)
   1b2b8:	e862                	sd	s8,16(sp)
   1b2ba:	ec86                	sd	ra,88(sp)
   1b2bc:	e4a6                	sd	s1,72(sp)
   1b2be:	e0ca                	sd	s2,64(sp)
   1b2c0:	fc4e                	sd	s3,56(sp)
   1b2c2:	f456                	sd	s5,40(sp)
   1b2c4:	f05a                	sd	s6,32(sp)
   1b2c6:	ec5e                	sd	s7,24(sp)
   1b2c8:	e466                	sd	s9,8(sp)
   1b2ca:	842a                	mv	s0,a0
   1b2cc:	8c32                	mv	s8,a2
   1b2ce:	8a36                	mv	s4,a3
   1b2d0:	002029f3          	frrm	s3
   1b2d4:	6721                	lui	a4,0x8
   1b2d6:	0305d793          	srli	a5,a1,0x30
   1b2da:	177d                	addi	a4,a4,-1 # 7fff <exit-0x80e9>
   1b2dc:	01059913          	slli	s2,a1,0x10
   1b2e0:	8ff9                	and	a5,a5,a4
   1b2e2:	2981                	sext.w	s3,s3
   1b2e4:	01095913          	srli	s2,s2,0x10
   1b2e8:	03f5da93          	srli	s5,a1,0x3f
   1b2ec:	c795                	beqz	a5,1b318 <__multf3+0x66>
   1b2ee:	00078c9b          	sext.w	s9,a5
   1b2f2:	08e78463          	beq	a5,a4,1b37a <__multf3+0xc8>
   1b2f6:	090e                	slli	s2,s2,0x3
   1b2f8:	03d55713          	srli	a4,a0,0x3d
   1b2fc:	01276733          	or	a4,a4,s2
   1b300:	7cf1                	lui	s9,0xffffc
   1b302:	4905                	li	s2,1
   1b304:	194e                	slli	s2,s2,0x33
   1b306:	0c85                	addi	s9,s9,1 # ffffffffffffc001 <__BSS_END__+0xfffffffffffdc891>
   1b308:	01276933          	or	s2,a4,s2
   1b30c:	00351b13          	slli	s6,a0,0x3
   1b310:	9cbe                	add	s9,s9,a5
   1b312:	4b81                	li	s7,0
   1b314:	4481                	li	s1,0
   1b316:	a8b5                	j	1b392 <__multf3+0xe0>
   1b318:	00a96b33          	or	s6,s2,a0
   1b31c:	0e0b0b63          	beqz	s6,1b412 <__multf3+0x160>
   1b320:	02090e63          	beqz	s2,1b35c <__multf3+0xaa>
   1b324:	854a                	mv	a0,s2
   1b326:	30a010ef          	jal	ra,1c630 <__clzdi2>
   1b32a:	0005071b          	sext.w	a4,a0
   1b32e:	ff170793          	addi	a5,a4,-15
   1b332:	03d00693          	li	a3,61
   1b336:	0037861b          	addiw	a2,a5,3
   1b33a:	40f687bb          	subw	a5,a3,a5
   1b33e:	00c91933          	sll	s2,s2,a2
   1b342:	00f457b3          	srl	a5,s0,a5
   1b346:	0127e7b3          	or	a5,a5,s2
   1b34a:	00c41933          	sll	s2,s0,a2
   1b34e:	7cf1                	lui	s9,0xffffc
   1b350:	0cc5                	addi	s9,s9,17 # ffffffffffffc011 <__BSS_END__+0xfffffffffffdc8a1>
   1b352:	8b4a                	mv	s6,s2
   1b354:	40ec8cb3          	sub	s9,s9,a4
   1b358:	893e                	mv	s2,a5
   1b35a:	bf65                	j	1b312 <__multf3+0x60>
   1b35c:	2d4010ef          	jal	ra,1c630 <__clzdi2>
   1b360:	0405071b          	addiw	a4,a0,64
   1b364:	ff170793          	addi	a5,a4,-15
   1b368:	03c00693          	li	a3,60
   1b36c:	fcf6d3e3          	bge	a3,a5,1b332 <__multf3+0x80>
   1b370:	fc37879b          	addiw	a5,a5,-61
   1b374:	00f417b3          	sll	a5,s0,a5
   1b378:	bfd9                	j	1b34e <__multf3+0x9c>
   1b37a:	00a96b33          	or	s6,s2,a0
   1b37e:	080b0e63          	beqz	s6,1b41a <__multf3+0x168>
   1b382:	4485                	li	s1,1
   1b384:	14be                	slli	s1,s1,0x2f
   1b386:	009934b3          	sltu	s1,s2,s1
   1b38a:	0044949b          	slliw	s1,s1,0x4
   1b38e:	8b2a                	mv	s6,a0
   1b390:	4b8d                	li	s7,3
   1b392:	65a1                	lui	a1,0x8
   1b394:	030a5613          	srli	a2,s4,0x30
   1b398:	56fd                	li	a3,-1
   1b39a:	15fd                	addi	a1,a1,-1 # 7fff <exit-0x80e9>
   1b39c:	0106d413          	srli	s0,a3,0x10
   1b3a0:	8e6d                	and	a2,a2,a1
   1b3a2:	008a7433          	and	s0,s4,s0
   1b3a6:	87e2                	mv	a5,s8
   1b3a8:	03fa5a13          	srli	s4,s4,0x3f
   1b3ac:	ca35                	beqz	a2,1b420 <__multf3+0x16e>
   1b3ae:	0006071b          	sext.w	a4,a2
   1b3b2:	0cb60563          	beq	a2,a1,1b47c <__multf3+0x1ca>
   1b3b6:	040e                	slli	s0,s0,0x3
   1b3b8:	03dc5713          	srli	a4,s8,0x3d
   1b3bc:	8f41                	or	a4,a4,s0
   1b3be:	4405                	li	s0,1
   1b3c0:	144e                	slli	s0,s0,0x33
   1b3c2:	8c59                	or	s0,s0,a4
   1b3c4:	7771                	lui	a4,0xffffc
   1b3c6:	0705                	addi	a4,a4,1 # ffffffffffffc001 <__BSS_END__+0xfffffffffffdc891>
   1b3c8:	003c1793          	slli	a5,s8,0x3
   1b3cc:	9732                	add	a4,a4,a2
   1b3ce:	4881                	li	a7,0
   1b3d0:	002b9693          	slli	a3,s7,0x2
   1b3d4:	01970833          	add	a6,a4,s9
   1b3d8:	0116e6b3          	or	a3,a3,a7
   1b3dc:	4729                	li	a4,10
   1b3de:	014ac633          	xor	a2,s5,s4
   1b3e2:	00180593          	addi	a1,a6,1
   1b3e6:	2cd74163          	blt	a4,a3,1b6a8 <__multf3+0x3f6>
   1b3ea:	4709                	li	a4,2
   1b3ec:	0ad74a63          	blt	a4,a3,1b4a0 <__multf3+0x1ee>
   1b3f0:	16fd                	addi	a3,a3,-1
   1b3f2:	4705                	li	a4,1
   1b3f4:	0cd76563          	bltu	a4,a3,1b4be <__multf3+0x20c>
   1b3f8:	8bc6                	mv	s7,a7
   1b3fa:	4709                	li	a4,2
   1b3fc:	4ceb8063          	beq	s7,a4,1b8bc <__multf3+0x60a>
   1b400:	470d                	li	a4,3
   1b402:	4ceb8263          	beq	s7,a4,1b8c6 <__multf3+0x614>
   1b406:	4705                	li	a4,1
   1b408:	26eb9263          	bne	s7,a4,1b66c <__multf3+0x3ba>
   1b40c:	4701                	li	a4,0
   1b40e:	4501                	li	a0,0
   1b410:	a179                	j	1b89e <__multf3+0x5ec>
   1b412:	4901                	li	s2,0
   1b414:	4c81                	li	s9,0
   1b416:	4b85                	li	s7,1
   1b418:	bdf5                	j	1b314 <__multf3+0x62>
   1b41a:	4901                	li	s2,0
   1b41c:	4b89                	li	s7,2
   1b41e:	bddd                	j	1b314 <__multf3+0x62>
   1b420:	008c67b3          	or	a5,s8,s0
   1b424:	c7ad                	beqz	a5,1b48e <__multf3+0x1dc>
   1b426:	c81d                	beqz	s0,1b45c <__multf3+0x1aa>
   1b428:	8522                	mv	a0,s0
   1b42a:	206010ef          	jal	ra,1c630 <__clzdi2>
   1b42e:	2501                	sext.w	a0,a0
   1b430:	ff150793          	addi	a5,a0,-15
   1b434:	03d00713          	li	a4,61
   1b438:	0037861b          	addiw	a2,a5,3
   1b43c:	40f707bb          	subw	a5,a4,a5
   1b440:	00c41433          	sll	s0,s0,a2
   1b444:	00fc57b3          	srl	a5,s8,a5
   1b448:	0087e6b3          	or	a3,a5,s0
   1b44c:	00cc1433          	sll	s0,s8,a2
   1b450:	7771                	lui	a4,0xffffc
   1b452:	0745                	addi	a4,a4,17 # ffffffffffffc011 <__BSS_END__+0xfffffffffffdc8a1>
   1b454:	87a2                	mv	a5,s0
   1b456:	8f09                	sub	a4,a4,a0
   1b458:	8436                	mv	s0,a3
   1b45a:	bf95                	j	1b3ce <__multf3+0x11c>
   1b45c:	8562                	mv	a0,s8
   1b45e:	1d2010ef          	jal	ra,1c630 <__clzdi2>
   1b462:	0405051b          	addiw	a0,a0,64
   1b466:	ff150793          	addi	a5,a0,-15
   1b46a:	03c00713          	li	a4,60
   1b46e:	fcf753e3          	bge	a4,a5,1b434 <__multf3+0x182>
   1b472:	fc37879b          	addiw	a5,a5,-61
   1b476:	00fc16b3          	sll	a3,s8,a5
   1b47a:	bfd9                	j	1b450 <__multf3+0x19e>
   1b47c:	008c6633          	or	a2,s8,s0
   1b480:	ce01                	beqz	a2,1b498 <__multf3+0x1e6>
   1b482:	82c5                	srli	a3,a3,0x11
   1b484:	488d                	li	a7,3
   1b486:	f486e5e3          	bltu	a3,s0,1b3d0 <__multf3+0x11e>
   1b48a:	44c1                	li	s1,16
   1b48c:	b791                	j	1b3d0 <__multf3+0x11e>
   1b48e:	4401                	li	s0,0
   1b490:	4781                	li	a5,0
   1b492:	4701                	li	a4,0
   1b494:	4885                	li	a7,1
   1b496:	bf2d                	j	1b3d0 <__multf3+0x11e>
   1b498:	4401                	li	s0,0
   1b49a:	4781                	li	a5,0
   1b49c:	4889                	li	a7,2
   1b49e:	bf0d                	j	1b3d0 <__multf3+0x11e>
   1b4a0:	4705                	li	a4,1
   1b4a2:	00d716b3          	sll	a3,a4,a3
   1b4a6:	5306f513          	andi	a0,a3,1328
   1b4aa:	20051863          	bnez	a0,1b6ba <__multf3+0x408>
   1b4ae:	2406f313          	andi	t1,a3,576
   1b4b2:	3e031f63          	bnez	t1,1b8b0 <__multf3+0x5fe>
   1b4b6:	0886f693          	andi	a3,a3,136
   1b4ba:	1e069e63          	bnez	a3,1b6b6 <__multf3+0x404>
   1b4be:	56fd                	li	a3,-1
   1b4c0:	9281                	srli	a3,a3,0x20
   1b4c2:	00878f33          	add	t5,a5,s0
   1b4c6:	020b5513          	srli	a0,s6,0x20
   1b4ca:	0207d313          	srli	t1,a5,0x20
   1b4ce:	01690fb3          	add	t6,s2,s6
   1b4d2:	00ff3eb3          	sltu	t4,t5,a5
   1b4d6:	00db7b33          	and	s6,s6,a3
   1b4da:	8ff5                	and	a5,a5,a3
   1b4dc:	036782b3          	mul	t0,a5,s6
   1b4e0:	012fbe33          	sltu	t3,t6,s2
   1b4e4:	88f2                	mv	a7,t3
   1b4e6:	8776                	mv	a4,t4
   1b4e8:	02f507b3          	mul	a5,a0,a5
   1b4ec:	026506b3          	mul	a3,a0,t1
   1b4f0:	0202d513          	srli	a0,t0,0x20
   1b4f4:	03630333          	mul	t1,t1,s6
   1b4f8:	933e                	add	t1,t1,a5
   1b4fa:	951a                	add	a0,a0,t1
   1b4fc:	00f57563          	bgeu	a0,a5,1b506 <__multf3+0x254>
   1b500:	4785                	li	a5,1
   1b502:	1782                	slli	a5,a5,0x20
   1b504:	96be                	add	a3,a3,a5
   1b506:	57fd                	li	a5,-1
   1b508:	9381                	srli	a5,a5,0x20
   1b50a:	02055313          	srli	t1,a0,0x20
   1b50e:	8d7d                	and	a0,a0,a5
   1b510:	00f2f2b3          	and	t0,t0,a5
   1b514:	1502                	slli	a0,a0,0x20
   1b516:	00fff3b3          	and	t2,t6,a5
   1b51a:	9336                	add	t1,t1,a3
   1b51c:	00ff77b3          	and	a5,t5,a5
   1b520:	020f5693          	srli	a3,t5,0x20
   1b524:	9516                	add	a0,a0,t0
   1b526:	020fd293          	srli	t0,t6,0x20
   1b52a:	02778ab3          	mul	s5,a5,t2
   1b52e:	02f287b3          	mul	a5,t0,a5
   1b532:	020ada13          	srli	s4,s5,0x20
   1b536:	02d282b3          	mul	t0,t0,a3
   1b53a:	027686b3          	mul	a3,a3,t2
   1b53e:	96be                	add	a3,a3,a5
   1b540:	9a36                	add	s4,s4,a3
   1b542:	00fa7563          	bgeu	s4,a5,1b54c <__multf3+0x29a>
   1b546:	4785                	li	a5,1
   1b548:	1782                	slli	a5,a5,0x20
   1b54a:	92be                	add	t0,t0,a5
   1b54c:	57fd                	li	a5,-1
   1b54e:	9381                	srli	a5,a5,0x20
   1b550:	020a5393          	srli	t2,s4,0x20
   1b554:	00fa7a33          	and	s4,s4,a5
   1b558:	00fafab3          	and	s5,s5,a5
   1b55c:	1a02                	slli	s4,s4,0x20
   1b55e:	02045693          	srli	a3,s0,0x20
   1b562:	9a56                	add	s4,s4,s5
   1b564:	02095a93          	srli	s5,s2,0x20
   1b568:	00f97933          	and	s2,s2,a5
   1b56c:	8fe1                	and	a5,a5,s0
   1b56e:	02f90b33          	mul	s6,s2,a5
   1b572:	02fa87b3          	mul	a5,s5,a5
   1b576:	020b5413          	srli	s0,s6,0x20
   1b57a:	02da8ab3          	mul	s5,s5,a3
   1b57e:	032686b3          	mul	a3,a3,s2
   1b582:	96be                	add	a3,a3,a5
   1b584:	9436                	add	s0,s0,a3
   1b586:	00f47563          	bgeu	s0,a5,1b590 <__multf3+0x2de>
   1b58a:	4785                	li	a5,1
   1b58c:	1782                	slli	a5,a5,0x20
   1b58e:	9abe                	add	s5,s5,a5
   1b590:	597d                	li	s2,-1
   1b592:	02095913          	srli	s2,s2,0x20
   1b596:	02045693          	srli	a3,s0,0x20
   1b59a:	012477b3          	and	a5,s0,s2
   1b59e:	40e00733          	neg	a4,a4
   1b5a2:	006a0433          	add	s0,s4,t1
   1b5a6:	01f77733          	and	a4,a4,t6
   1b5aa:	411008b3          	neg	a7,a7
   1b5ae:	01443fb3          	sltu	t6,s0,s4
   1b5b2:	01e8f8b3          	and	a7,a7,t5
   1b5b6:	01f38f33          	add	t5,t2,t6
   1b5ba:	9f16                	add	t5,t5,t0
   1b5bc:	01de7e33          	and	t3,t3,t4
   1b5c0:	01ff3fb3          	sltu	t6,t5,t6
   1b5c4:	977a                	add	a4,a4,t5
   1b5c6:	9ff2                	add	t6,t6,t3
   1b5c8:	01e73f33          	sltu	t5,a4,t5
   1b5cc:	9746                	add	a4,a4,a7
   1b5ce:	9f7e                	add	t5,t5,t6
   1b5d0:	011738b3          	sltu	a7,a4,a7
   1b5d4:	40a40eb3          	sub	t4,s0,a0
   1b5d8:	40670e33          	sub	t3,a4,t1
   1b5dc:	1782                	slli	a5,a5,0x20
   1b5de:	012b7b33          	and	s6,s6,s2
   1b5e2:	98fa                	add	a7,a7,t5
   1b5e4:	01d43f33          	sltu	t5,s0,t4
   1b5e8:	01c73fb3          	sltu	t6,a4,t3
   1b5ec:	96d6                	add	a3,a3,s5
   1b5ee:	41ee0e33          	sub	t3,t3,t5
   1b5f2:	97da                	add	a5,a5,s6
   1b5f4:	4f01                	li	t5,0
   1b5f6:	01d47663          	bgeu	s0,t4,1b602 <__multf3+0x350>
   1b5fa:	40e30333          	sub	t1,t1,a4
   1b5fe:	00133f13          	seqz	t5,t1
   1b602:	01ff6f33          	or	t5,t5,t6
   1b606:	40fe8fb3          	sub	t6,t4,a5
   1b60a:	98b6                	add	a7,a7,a3
   1b60c:	01feb733          	sltu	a4,t4,t6
   1b610:	40de06b3          	sub	a3,t3,a3
   1b614:	00de3e33          	sltu	t3,t3,a3
   1b618:	40e78733          	sub	a4,a5,a4
   1b61c:	4301                	li	t1,0
   1b61e:	01fef463          	bgeu	t4,t6,1b626 <__multf3+0x374>
   1b622:	0016b313          	seqz	t1,a3
   1b626:	96ba                	add	a3,a3,a4
   1b628:	00f6b733          	sltu	a4,a3,a5
   1b62c:	9746                	add	a4,a4,a7
   1b62e:	41e70733          	sub	a4,a4,t5
   1b632:	01c36333          	or	t1,t1,t3
   1b636:	40670733          	sub	a4,a4,t1
   1b63a:	00df9793          	slli	a5,t6,0xd
   1b63e:	0736                	slli	a4,a4,0xd
   1b640:	0336d413          	srli	s0,a3,0x33
   1b644:	8fc9                	or	a5,a5,a0
   1b646:	8c59                	or	s0,s0,a4
   1b648:	00f037b3          	snez	a5,a5
   1b64c:	033fd513          	srli	a0,t6,0x33
   1b650:	9351                	srli	a4,a4,0x34
   1b652:	8fc9                	or	a5,a5,a0
   1b654:	06b6                	slli	a3,a3,0xd
   1b656:	8b05                	andi	a4,a4,1
   1b658:	8fd5                	or	a5,a5,a3
   1b65a:	c33d                	beqz	a4,1b6c0 <__multf3+0x40e>
   1b65c:	0017d713          	srli	a4,a5,0x1
   1b660:	8b85                	andi	a5,a5,1
   1b662:	8f5d                	or	a4,a4,a5
   1b664:	03f41793          	slli	a5,s0,0x3f
   1b668:	8fd9                	or	a5,a5,a4
   1b66a:	8005                	srli	s0,s0,0x1
   1b66c:	6691                	lui	a3,0x4
   1b66e:	16fd                	addi	a3,a3,-1 # 3fff <exit-0xc0e9>
   1b670:	96ae                	add	a3,a3,a1
   1b672:	0ed05063          	blez	a3,1b752 <__multf3+0x4a0>
   1b676:	0077f713          	andi	a4,a5,7
   1b67a:	cb31                	beqz	a4,1b6ce <__multf3+0x41c>
   1b67c:	4709                	li	a4,2
   1b67e:	0014e493          	ori	s1,s1,1
   1b682:	04e98563          	beq	s3,a4,1b6cc <__multf3+0x41a>
   1b686:	470d                	li	a4,3
   1b688:	02e98e63          	beq	s3,a4,1b6c4 <__multf3+0x412>
   1b68c:	04099163          	bnez	s3,1b6ce <__multf3+0x41c>
   1b690:	00f7f713          	andi	a4,a5,15
   1b694:	4511                	li	a0,4
   1b696:	02a70c63          	beq	a4,a0,1b6ce <__multf3+0x41c>
   1b69a:	00478713          	addi	a4,a5,4
   1b69e:	00f73533          	sltu	a0,a4,a5
   1b6a2:	942a                	add	s0,s0,a0
   1b6a4:	87ba                	mv	a5,a4
   1b6a6:	a025                	j	1b6ce <__multf3+0x41c>
   1b6a8:	473d                	li	a4,15
   1b6aa:	20e68e63          	beq	a3,a4,1b8c6 <__multf3+0x614>
   1b6ae:	472d                	li	a4,11
   1b6b0:	8656                	mv	a2,s5
   1b6b2:	00e69463          	bne	a3,a4,1b6ba <__multf3+0x408>
   1b6b6:	8652                	mv	a2,s4
   1b6b8:	b381                	j	1b3f8 <__multf3+0x146>
   1b6ba:	844a                	mv	s0,s2
   1b6bc:	87da                	mv	a5,s6
   1b6be:	bb35                	j	1b3fa <__multf3+0x148>
   1b6c0:	85c2                	mv	a1,a6
   1b6c2:	b76d                	j	1b66c <__multf3+0x3ba>
   1b6c4:	e609                	bnez	a2,1b6ce <__multf3+0x41c>
   1b6c6:	00878713          	addi	a4,a5,8
   1b6ca:	bfd1                	j	1b69e <__multf3+0x3ec>
   1b6cc:	fe6d                	bnez	a2,1b6c6 <__multf3+0x414>
   1b6ce:	03445713          	srli	a4,s0,0x34
   1b6d2:	8b05                	andi	a4,a4,1
   1b6d4:	c719                	beqz	a4,1b6e2 <__multf3+0x430>
   1b6d6:	577d                	li	a4,-1
   1b6d8:	1752                	slli	a4,a4,0x34
   1b6da:	177d                	addi	a4,a4,-1
   1b6dc:	6691                	lui	a3,0x4
   1b6de:	8c79                	and	s0,s0,a4
   1b6e0:	96ae                	add	a3,a3,a1
   1b6e2:	65a1                	lui	a1,0x8
   1b6e4:	ffe58713          	addi	a4,a1,-2 # 7ffe <exit-0x80ea>
   1b6e8:	04d74063          	blt	a4,a3,1b728 <__multf3+0x476>
   1b6ec:	838d                	srli	a5,a5,0x3
   1b6ee:	03d41513          	slli	a0,s0,0x3d
   1b6f2:	8d5d                	or	a0,a0,a5
   1b6f4:	00345713          	srli	a4,s0,0x3
   1b6f8:	00f6161b          	slliw	a2,a2,0xf
   1b6fc:	01071593          	slli	a1,a4,0x10
   1b700:	8ed1                	or	a3,a3,a2
   1b702:	16c2                	slli	a3,a3,0x30
   1b704:	81c1                	srli	a1,a1,0x10
   1b706:	8dd5                	or	a1,a1,a3
   1b708:	c099                	beqz	s1,1b70e <__multf3+0x45c>
   1b70a:	0014a073          	csrs	fflags,s1
   1b70e:	60e6                	ld	ra,88(sp)
   1b710:	6446                	ld	s0,80(sp)
   1b712:	64a6                	ld	s1,72(sp)
   1b714:	6906                	ld	s2,64(sp)
   1b716:	79e2                	ld	s3,56(sp)
   1b718:	7a42                	ld	s4,48(sp)
   1b71a:	7aa2                	ld	s5,40(sp)
   1b71c:	7b02                	ld	s6,32(sp)
   1b71e:	6be2                	ld	s7,24(sp)
   1b720:	6c42                	ld	s8,16(sp)
   1b722:	6ca2                	ld	s9,8(sp)
   1b724:	6125                	addi	sp,sp,96
   1b726:	8082                	ret
   1b728:	4789                	li	a5,2
   1b72a:	02f98263          	beq	s3,a5,1b74e <__multf3+0x49c>
   1b72e:	478d                	li	a5,3
   1b730:	00f98763          	beq	s3,a5,1b73e <__multf3+0x48c>
   1b734:	00098663          	beqz	s3,1b740 <__multf3+0x48e>
   1b738:	557d                	li	a0,-1
   1b73a:	86ba                	mv	a3,a4
   1b73c:	a029                	j	1b746 <__multf3+0x494>
   1b73e:	fe6d                	bnez	a2,1b738 <__multf3+0x486>
   1b740:	4501                	li	a0,0
   1b742:	fff58693          	addi	a3,a1,-1
   1b746:	0054e493          	ori	s1,s1,5
   1b74a:	872a                	mv	a4,a0
   1b74c:	b775                	j	1b6f8 <__multf3+0x446>
   1b74e:	d66d                	beqz	a2,1b738 <__multf3+0x486>
   1b750:	bfc5                	j	1b740 <__multf3+0x48e>
   1b752:	e2c5                	bnez	a3,1b7f2 <__multf3+0x540>
   1b754:	0077f693          	andi	a3,a5,7
   1b758:	8722                	mv	a4,s0
   1b75a:	ce8d                	beqz	a3,1b794 <__multf3+0x4e2>
   1b75c:	4689                	li	a3,2
   1b75e:	0014e493          	ori	s1,s1,1
   1b762:	02d98863          	beq	s3,a3,1b792 <__multf3+0x4e0>
   1b766:	468d                	li	a3,3
   1b768:	02d98163          	beq	s3,a3,1b78a <__multf3+0x4d8>
   1b76c:	02099463          	bnez	s3,1b794 <__multf3+0x4e2>
   1b770:	00f7f693          	andi	a3,a5,15
   1b774:	4591                	li	a1,4
   1b776:	00b68f63          	beq	a3,a1,1b794 <__multf3+0x4e2>
   1b77a:	ffc7b713          	sltiu	a4,a5,-4
   1b77e:	00174713          	xori	a4,a4,1
   1b782:	1702                	slli	a4,a4,0x20
   1b784:	9301                	srli	a4,a4,0x20
   1b786:	9722                	add	a4,a4,s0
   1b788:	a031                	j	1b794 <__multf3+0x4e2>
   1b78a:	e609                	bnez	a2,1b794 <__multf3+0x4e2>
   1b78c:	ff87b713          	sltiu	a4,a5,-8
   1b790:	b7fd                	j	1b77e <__multf3+0x4cc>
   1b792:	fe6d                	bnez	a2,1b78c <__multf3+0x4da>
   1b794:	9351                	srli	a4,a4,0x34
   1b796:	00174713          	xori	a4,a4,1
   1b79a:	00177593          	andi	a1,a4,1
   1b79e:	4705                	li	a4,1
   1b7a0:	04000693          	li	a3,64
   1b7a4:	9e99                	subw	a3,a3,a4
   1b7a6:	00d41533          	sll	a0,s0,a3
   1b7aa:	00e7d833          	srl	a6,a5,a4
   1b7ae:	00d796b3          	sll	a3,a5,a3
   1b7b2:	01056533          	or	a0,a0,a6
   1b7b6:	00d036b3          	snez	a3,a3
   1b7ba:	8d55                	or	a0,a0,a3
   1b7bc:	00e45733          	srl	a4,s0,a4
   1b7c0:	00757793          	andi	a5,a0,7
   1b7c4:	cfbd                	beqz	a5,1b842 <__multf3+0x590>
   1b7c6:	4789                	li	a5,2
   1b7c8:	0014e493          	ori	s1,s1,1
   1b7cc:	06f98a63          	beq	s3,a5,1b840 <__multf3+0x58e>
   1b7d0:	478d                	li	a5,3
   1b7d2:	06f98363          	beq	s3,a5,1b838 <__multf3+0x586>
   1b7d6:	06099663          	bnez	s3,1b842 <__multf3+0x590>
   1b7da:	00f57793          	andi	a5,a0,15
   1b7de:	4691                	li	a3,4
   1b7e0:	06d78163          	beq	a5,a3,1b842 <__multf3+0x590>
   1b7e4:	00450793          	addi	a5,a0,4
   1b7e8:	00a7b6b3          	sltu	a3,a5,a0
   1b7ec:	9736                	add	a4,a4,a3
   1b7ee:	853e                	mv	a0,a5
   1b7f0:	a889                	j	1b842 <__multf3+0x590>
   1b7f2:	4705                	li	a4,1
   1b7f4:	8f15                	sub	a4,a4,a3
   1b7f6:	07400693          	li	a3,116
   1b7fa:	06e6cf63          	blt	a3,a4,1b878 <__multf3+0x5c6>
   1b7fe:	03f00693          	li	a3,63
   1b802:	0007059b          	sext.w	a1,a4
   1b806:	00e6c463          	blt	a3,a4,1b80e <__multf3+0x55c>
   1b80a:	4585                	li	a1,1
   1b80c:	bf51                	j	1b7a0 <__multf3+0x4ee>
   1b80e:	fc05851b          	addiw	a0,a1,-64
   1b812:	04000813          	li	a6,64
   1b816:	00a45533          	srl	a0,s0,a0
   1b81a:	4681                	li	a3,0
   1b81c:	01070763          	beq	a4,a6,1b82a <__multf3+0x578>
   1b820:	08000693          	li	a3,128
   1b824:	9e8d                	subw	a3,a3,a1
   1b826:	00d416b3          	sll	a3,s0,a3
   1b82a:	8edd                	or	a3,a3,a5
   1b82c:	00d036b3          	snez	a3,a3
   1b830:	8d55                	or	a0,a0,a3
   1b832:	4585                	li	a1,1
   1b834:	4701                	li	a4,0
   1b836:	b769                	j	1b7c0 <__multf3+0x50e>
   1b838:	e609                	bnez	a2,1b842 <__multf3+0x590>
   1b83a:	00850793          	addi	a5,a0,8
   1b83e:	b76d                	j	1b7e8 <__multf3+0x536>
   1b840:	fe6d                	bnez	a2,1b83a <__multf3+0x588>
   1b842:	03375793          	srli	a5,a4,0x33
   1b846:	8b85                	andi	a5,a5,1
   1b848:	cb99                	beqz	a5,1b85e <__multf3+0x5ac>
   1b84a:	0014e493          	ori	s1,s1,1
   1b84e:	4701                	li	a4,0
   1b850:	4501                	li	a0,0
   1b852:	4685                	li	a3,1
   1b854:	ea0582e3          	beqz	a1,1b6f8 <__multf3+0x446>
   1b858:	0024e493          	ori	s1,s1,2
   1b85c:	bd71                	j	1b6f8 <__multf3+0x446>
   1b85e:	03d71793          	slli	a5,a4,0x3d
   1b862:	810d                	srli	a0,a0,0x3
   1b864:	8d5d                	or	a0,a0,a5
   1b866:	830d                	srli	a4,a4,0x3
   1b868:	4681                	li	a3,0
   1b86a:	e80587e3          	beqz	a1,1b6f8 <__multf3+0x446>
   1b86e:	0014f793          	andi	a5,s1,1
   1b872:	e80783e3          	beqz	a5,1b6f8 <__multf3+0x446>
   1b876:	b7cd                	j	1b858 <__multf3+0x5a6>
   1b878:	0087e533          	or	a0,a5,s0
   1b87c:	cd11                	beqz	a0,1b898 <__multf3+0x5e6>
   1b87e:	4789                	li	a5,2
   1b880:	0014e493          	ori	s1,s1,1
   1b884:	02f98363          	beq	s3,a5,1b8aa <__multf3+0x5f8>
   1b888:	478d                	li	a5,3
   1b88a:	00f98c63          	beq	s3,a5,1b8a2 <__multf3+0x5f0>
   1b88e:	4515                	li	a0,5
   1b890:	00098363          	beqz	s3,1b896 <__multf3+0x5e4>
   1b894:	4505                	li	a0,1
   1b896:	810d                	srli	a0,a0,0x3
   1b898:	0024e493          	ori	s1,s1,2
   1b89c:	4701                	li	a4,0
   1b89e:	4681                	li	a3,0
   1b8a0:	bda1                	j	1b6f8 <__multf3+0x446>
   1b8a2:	4505                	li	a0,1
   1b8a4:	fa6d                	bnez	a2,1b896 <__multf3+0x5e4>
   1b8a6:	4525                	li	a0,9
   1b8a8:	b7fd                	j	1b896 <__multf3+0x5e4>
   1b8aa:	4505                	li	a0,1
   1b8ac:	d66d                	beqz	a2,1b896 <__multf3+0x5e4>
   1b8ae:	bfe5                	j	1b8a6 <__multf3+0x5f4>
   1b8b0:	66a1                	lui	a3,0x8
   1b8b2:	173e                	slli	a4,a4,0x2f
   1b8b4:	16fd                	addi	a3,a3,-1 # 7fff <exit-0x80e9>
   1b8b6:	4601                	li	a2,0
   1b8b8:	44c1                	li	s1,16
   1b8ba:	bd3d                	j	1b6f8 <__multf3+0x446>
   1b8bc:	66a1                	lui	a3,0x8
   1b8be:	4701                	li	a4,0
   1b8c0:	4501                	li	a0,0
   1b8c2:	16fd                	addi	a3,a3,-1 # 7fff <exit-0x80e9>
   1b8c4:	bd15                	j	1b6f8 <__multf3+0x446>
   1b8c6:	4705                	li	a4,1
   1b8c8:	66a1                	lui	a3,0x8
   1b8ca:	173e                	slli	a4,a4,0x2f
   1b8cc:	4501                	li	a0,0
   1b8ce:	16fd                	addi	a3,a3,-1 # 7fff <exit-0x80e9>
   1b8d0:	4601                	li	a2,0
   1b8d2:	b51d                	j	1b6f8 <__multf3+0x446>

000000000001b8d4 <__subtf3>:
   1b8d4:	7179                	addi	sp,sp,-48
   1b8d6:	f406                	sd	ra,40(sp)
   1b8d8:	f022                	sd	s0,32(sp)
   1b8da:	ec26                	sd	s1,24(sp)
   1b8dc:	e84a                	sd	s2,16(sp)
   1b8de:	e44e                	sd	s3,8(sp)
   1b8e0:	e052                	sd	s4,0(sp)
   1b8e2:	00202973          	frrm	s2
   1b8e6:	537d                	li	t1,-1
   1b8e8:	01035313          	srli	t1,t1,0x10
   1b8ec:	0305d413          	srli	s0,a1,0x30
   1b8f0:	68a1                	lui	a7,0x8
   1b8f2:	03f5d493          	srli	s1,a1,0x3f
   1b8f6:	0065f5b3          	and	a1,a1,t1
   1b8fa:	00359793          	slli	a5,a1,0x3
   1b8fe:	18fd                	addi	a7,a7,-1 # 7fff <exit-0x80e9>
   1b900:	03d55593          	srli	a1,a0,0x3d
   1b904:	0306d713          	srli	a4,a3,0x30
   1b908:	03f6d813          	srli	a6,a3,0x3f
   1b90c:	0066f6b3          	and	a3,a3,t1
   1b910:	8ddd                	or	a1,a1,a5
   1b912:	01177733          	and	a4,a4,a7
   1b916:	00369793          	slli	a5,a3,0x3
   1b91a:	03d65693          	srli	a3,a2,0x3d
   1b91e:	2901                	sext.w	s2,s2
   1b920:	01147433          	and	s0,s0,a7
   1b924:	050e                	slli	a0,a0,0x3
   1b926:	8edd                	or	a3,a3,a5
   1b928:	060e                	slli	a2,a2,0x3
   1b92a:	05171863          	bne	a4,a7,1b97a <__subtf3+0xa6>
   1b92e:	77e1                	lui	a5,0xffff8
   1b930:	2785                	addiw	a5,a5,1 # ffffffffffff8001 <__BSS_END__+0xfffffffffffd8891>
   1b932:	00c6e8b3          	or	a7,a3,a2
   1b936:	9fa1                	addw	a5,a5,s0
   1b938:	02088763          	beqz	a7,1b966 <__subtf3+0x92>
   1b93c:	8342                	mv	t1,a6
   1b93e:	4b049363          	bne	s1,a6,1bde4 <__subtf3+0x510>
   1b942:	24078d63          	beqz	a5,1bb9c <__subtf3+0x2c8>
   1b946:	4a041263          	bnez	s0,1bdea <__subtf3+0x516>
   1b94a:	00a5e833          	or	a6,a1,a0
   1b94e:	1e081763          	bnez	a6,1bb3c <__subtf3+0x268>
   1b952:	65a1                	lui	a1,0x8
   1b954:	15fd                	addi	a1,a1,-1 # 7fff <exit-0x80e9>
   1b956:	4781                	li	a5,0
   1b958:	0ab71463          	bne	a4,a1,1ba00 <__subtf3+0x12c>
   1b95c:	00c6e833          	or	a6,a3,a2
   1b960:	2c080563          	beqz	a6,1bc2a <__subtf3+0x356>
   1b964:	a159                	j	1bdea <__subtf3+0x516>
   1b966:	00184313          	xori	t1,a6,1
   1b96a:	48649763          	bne	s1,t1,1bdf8 <__subtf3+0x524>
   1b96e:	22078763          	beqz	a5,1bb9c <__subtf3+0x2c8>
   1b972:	dc61                	beqz	s0,1b94a <__subtf3+0x76>
   1b974:	4801                	li	a6,0
   1b976:	4581                	li	a1,0
   1b978:	abb5                	j	1bef4 <__subtf3+0x620>
   1b97a:	00184313          	xori	t1,a6,1
   1b97e:	40e407bb          	subw	a5,s0,a4
   1b982:	883e                	mv	a6,a5
   1b984:	38649963          	bne	s1,t1,1bd16 <__subtf3+0x442>
   1b988:	16f05063          	blez	a5,1bae8 <__subtf3+0x214>
   1b98c:	eb69                	bnez	a4,1ba5e <__subtf3+0x18a>
   1b98e:	00c6e7b3          	or	a5,a3,a2
   1b992:	e791                	bnez	a5,1b99e <__subtf3+0xca>
   1b994:	05140963          	beq	s0,a7,1b9e6 <__subtf3+0x112>
   1b998:	86ae                	mv	a3,a1
   1b99a:	862a                	mv	a2,a0
   1b99c:	aca1                	j	1bbf4 <__subtf3+0x320>
   1b99e:	fff8079b          	addiw	a5,a6,-1
   1b9a2:	e3a1                	bnez	a5,1b9e2 <__subtf3+0x10e>
   1b9a4:	962a                	add	a2,a2,a0
   1b9a6:	96ae                	add	a3,a3,a1
   1b9a8:	00a63533          	sltu	a0,a2,a0
   1b9ac:	96aa                	add	a3,a3,a0
   1b9ae:	8722                	mv	a4,s0
   1b9b0:	0336d793          	srli	a5,a3,0x33
   1b9b4:	8b85                	andi	a5,a5,1
   1b9b6:	22078763          	beqz	a5,1bbe4 <__subtf3+0x310>
   1b9ba:	67a1                	lui	a5,0x8
   1b9bc:	0705                	addi	a4,a4,1
   1b9be:	fff78593          	addi	a1,a5,-1 # 7fff <exit-0x80e9>
   1b9c2:	32b70363          	beq	a4,a1,1bce8 <__subtf3+0x414>
   1b9c6:	57fd                	li	a5,-1
   1b9c8:	17ce                	slli	a5,a5,0x33
   1b9ca:	17fd                	addi	a5,a5,-1
   1b9cc:	8ff5                	and	a5,a5,a3
   1b9ce:	00165693          	srli	a3,a2,0x1
   1b9d2:	8a05                	andi	a2,a2,1
   1b9d4:	8ed1                	or	a3,a3,a2
   1b9d6:	03f79613          	slli	a2,a5,0x3f
   1b9da:	8e55                	or	a2,a2,a3
   1b9dc:	0017d693          	srli	a3,a5,0x1
   1b9e0:	a411                	j	1bbe4 <__subtf3+0x310>
   1b9e2:	0d141563          	bne	s0,a7,1baac <__subtf3+0x1d8>
   1b9e6:	00a5e833          	or	a6,a1,a0
   1b9ea:	7e080263          	beqz	a6,1c1ce <__subtf3+0x8fa>
   1b9ee:	0325d793          	srli	a5,a1,0x32
   1b9f2:	0017c793          	xori	a5,a5,1
   1b9f6:	8b85                	andi	a5,a5,1
   1b9f8:	0792                	slli	a5,a5,0x4
   1b9fa:	86ae                	mv	a3,a1
   1b9fc:	862a                	mv	a2,a0
   1b9fe:	8722                	mv	a4,s0
   1ba00:	00767593          	andi	a1,a2,7
   1ba04:	78059063          	bnez	a1,1c184 <__subtf3+0x8b0>
   1ba08:	85b6                	mv	a1,a3
   1ba0a:	8532                	mv	a0,a2
   1ba0c:	0335d693          	srli	a3,a1,0x33
   1ba10:	8a85                	andi	a3,a3,1
   1ba12:	7c068163          	beqz	a3,1c1d4 <__subtf3+0x900>
   1ba16:	66a1                	lui	a3,0x8
   1ba18:	0705                	addi	a4,a4,1
   1ba1a:	fff68613          	addi	a2,a3,-1 # 7fff <exit-0x80e9>
   1ba1e:	78c70063          	beq	a4,a2,1c19e <__subtf3+0x8ca>
   1ba22:	56fd                	li	a3,-1
   1ba24:	16ce                	slli	a3,a3,0x33
   1ba26:	16fd                	addi	a3,a3,-1
   1ba28:	8df5                	and	a1,a1,a3
   1ba2a:	00355693          	srli	a3,a0,0x3
   1ba2e:	03d59513          	slli	a0,a1,0x3d
   1ba32:	8d55                	or	a0,a0,a3
   1ba34:	818d                	srli	a1,a1,0x3
   1ba36:	1746                	slli	a4,a4,0x31
   1ba38:	00f4949b          	slliw	s1,s1,0xf
   1ba3c:	9345                	srli	a4,a4,0x31
   1ba3e:	05c2                	slli	a1,a1,0x10
   1ba40:	8f45                	or	a4,a4,s1
   1ba42:	1742                	slli	a4,a4,0x30
   1ba44:	81c1                	srli	a1,a1,0x10
   1ba46:	8dd9                	or	a1,a1,a4
   1ba48:	c399                	beqz	a5,1ba4e <__subtf3+0x17a>
   1ba4a:	0017a073          	csrs	fflags,a5
   1ba4e:	70a2                	ld	ra,40(sp)
   1ba50:	7402                	ld	s0,32(sp)
   1ba52:	64e2                	ld	s1,24(sp)
   1ba54:	6942                	ld	s2,16(sp)
   1ba56:	69a2                	ld	s3,8(sp)
   1ba58:	6a02                	ld	s4,0(sp)
   1ba5a:	6145                	addi	sp,sp,48
   1ba5c:	8082                	ret
   1ba5e:	f91404e3          	beq	s0,a7,1b9e6 <__subtf3+0x112>
   1ba62:	07400713          	li	a4,116
   1ba66:	04f74763          	blt	a4,a5,1bab4 <__subtf3+0x1e0>
   1ba6a:	4705                	li	a4,1
   1ba6c:	174e                	slli	a4,a4,0x33
   1ba6e:	8ed9                	or	a3,a3,a4
   1ba70:	03f00713          	li	a4,63
   1ba74:	04f74363          	blt	a4,a5,1baba <__subtf3+0x1e6>
   1ba78:	04000813          	li	a6,64
   1ba7c:	40f8083b          	subw	a6,a6,a5
   1ba80:	01069733          	sll	a4,a3,a6
   1ba84:	00f658b3          	srl	a7,a2,a5
   1ba88:	01061833          	sll	a6,a2,a6
   1ba8c:	01176733          	or	a4,a4,a7
   1ba90:	01003833          	snez	a6,a6
   1ba94:	01076733          	or	a4,a4,a6
   1ba98:	00f6d7b3          	srl	a5,a3,a5
   1ba9c:	00a70633          	add	a2,a4,a0
   1baa0:	97ae                	add	a5,a5,a1
   1baa2:	00e63733          	sltu	a4,a2,a4
   1baa6:	00e786b3          	add	a3,a5,a4
   1baaa:	b711                	j	1b9ae <__subtf3+0xda>
   1baac:	07400713          	li	a4,116
   1bab0:	fcf750e3          	bge	a4,a5,1ba70 <__subtf3+0x19c>
   1bab4:	4781                	li	a5,0
   1bab6:	4705                	li	a4,1
   1bab8:	b7d5                	j	1ba9c <__subtf3+0x1c8>
   1baba:	fc07871b          	addiw	a4,a5,-64
   1babe:	04000893          	li	a7,64
   1bac2:	00e6d733          	srl	a4,a3,a4
   1bac6:	4801                	li	a6,0
   1bac8:	01178863          	beq	a5,a7,1bad8 <__subtf3+0x204>
   1bacc:	08000813          	li	a6,128
   1bad0:	40f8083b          	subw	a6,a6,a5
   1bad4:	01069833          	sll	a6,a3,a6
   1bad8:	00c86833          	or	a6,a6,a2
   1badc:	01003833          	snez	a6,a6
   1bae0:	01076733          	or	a4,a4,a6
   1bae4:	4781                	li	a5,0
   1bae6:	bf5d                	j	1ba9c <__subtf3+0x1c8>
   1bae8:	cbd5                	beqz	a5,1bb9c <__subtf3+0x2c8>
   1baea:	e60400e3          	beqz	s0,1b94a <__subtf3+0x76>
   1baee:	f8c00893          	li	a7,-116
   1baf2:	0717cb63          	blt	a5,a7,1bb68 <__subtf3+0x294>
   1baf6:	4805                	li	a6,1
   1baf8:	184e                	slli	a6,a6,0x33
   1bafa:	40f007bb          	negw	a5,a5
   1bafe:	0105e5b3          	or	a1,a1,a6
   1bb02:	03f00813          	li	a6,63
   1bb06:	06f84463          	blt	a6,a5,1bb6e <__subtf3+0x29a>
   1bb0a:	04000893          	li	a7,64
   1bb0e:	40f888bb          	subw	a7,a7,a5
   1bb12:	00f55333          	srl	t1,a0,a5
   1bb16:	01159833          	sll	a6,a1,a7
   1bb1a:	011518b3          	sll	a7,a0,a7
   1bb1e:	00686833          	or	a6,a6,t1
   1bb22:	011038b3          	snez	a7,a7
   1bb26:	01186533          	or	a0,a6,a7
   1bb2a:	00f5d7b3          	srl	a5,a1,a5
   1bb2e:	962a                	add	a2,a2,a0
   1bb30:	97b6                	add	a5,a5,a3
   1bb32:	00a63533          	sltu	a0,a2,a0
   1bb36:	00a786b3          	add	a3,a5,a0
   1bb3a:	bd9d                	j	1b9b0 <__subtf3+0xdc>
   1bb3c:	fff7c793          	not	a5,a5
   1bb40:	e799                	bnez	a5,1bb4e <__subtf3+0x27a>
   1bb42:	962a                	add	a2,a2,a0
   1bb44:	96ae                	add	a3,a3,a1
   1bb46:	00a63533          	sltu	a0,a2,a0
   1bb4a:	96aa                	add	a3,a3,a0
   1bb4c:	b595                	j	1b9b0 <__subtf3+0xdc>
   1bb4e:	6821                	lui	a6,0x8
   1bb50:	187d                	addi	a6,a6,-1 # 7fff <exit-0x80e9>
   1bb52:	01071763          	bne	a4,a6,1bb60 <__subtf3+0x28c>
   1bb56:	00c6e833          	or	a6,a3,a2
   1bb5a:	e0080ee3          	beqz	a6,1b976 <__subtf3+0xa2>
   1bb5e:	a471                	j	1bdea <__subtf3+0x516>
   1bb60:	07400813          	li	a6,116
   1bb64:	f8f85fe3          	bge	a6,a5,1bb02 <__subtf3+0x22e>
   1bb68:	4781                	li	a5,0
   1bb6a:	4505                	li	a0,1
   1bb6c:	b7c9                	j	1bb2e <__subtf3+0x25a>
   1bb6e:	fc07881b          	addiw	a6,a5,-64
   1bb72:	04000313          	li	t1,64
   1bb76:	0105d833          	srl	a6,a1,a6
   1bb7a:	4881                	li	a7,0
   1bb7c:	00678863          	beq	a5,t1,1bb8c <__subtf3+0x2b8>
   1bb80:	08000893          	li	a7,128
   1bb84:	40f888bb          	subw	a7,a7,a5
   1bb88:	011598b3          	sll	a7,a1,a7
   1bb8c:	00a8e8b3          	or	a7,a7,a0
   1bb90:	011038b3          	snez	a7,a7
   1bb94:	01186533          	or	a0,a6,a7
   1bb98:	4781                	li	a5,0
   1bb9a:	bf51                	j	1bb2e <__subtf3+0x25a>
   1bb9c:	68a1                	lui	a7,0x8
   1bb9e:	ffe88813          	addi	a6,a7,-2 # 7ffe <exit-0x80ea>
   1bba2:	00140793          	addi	a5,s0,1
   1bba6:	0107f333          	and	t1,a5,a6
   1bbaa:	18fd                	addi	a7,a7,-1
   1bbac:	0c031963          	bnez	t1,1bc7e <__subtf3+0x3aa>
   1bbb0:	00a5e833          	or	a6,a1,a0
   1bbb4:	e815                	bnez	s0,1bbe8 <__subtf3+0x314>
   1bbb6:	54080063          	beqz	a6,1c0f6 <__subtf3+0x822>
   1bbba:	00c6e7b3          	or	a5,a3,a2
   1bbbe:	46078b63          	beqz	a5,1c034 <__subtf3+0x760>
   1bbc2:	962a                	add	a2,a2,a0
   1bbc4:	00a637b3          	sltu	a5,a2,a0
   1bbc8:	96ae                	add	a3,a3,a1
   1bbca:	00f685b3          	add	a1,a3,a5
   1bbce:	0335d793          	srli	a5,a1,0x33
   1bbd2:	8b85                	andi	a5,a5,1
   1bbd4:	8532                	mv	a0,a2
   1bbd6:	44078f63          	beqz	a5,1c034 <__subtf3+0x760>
   1bbda:	56fd                	li	a3,-1
   1bbdc:	16ce                	slli	a3,a3,0x33
   1bbde:	16fd                	addi	a3,a3,-1
   1bbe0:	8eed                	and	a3,a3,a1
   1bbe2:	4705                	li	a4,1
   1bbe4:	4781                	li	a5,0
   1bbe6:	bd29                	j	1ba00 <__subtf3+0x12c>
   1bbe8:	03141863          	bne	s0,a7,1bc18 <__subtf3+0x344>
   1bbec:	00081663          	bnez	a6,1bbf8 <__subtf3+0x324>
   1bbf0:	f68703e3          	beq	a4,s0,1bb56 <__subtf3+0x282>
   1bbf4:	8722                	mv	a4,s0
   1bbf6:	b7fd                	j	1bbe4 <__subtf3+0x310>
   1bbf8:	4885                	li	a7,1
   1bbfa:	18ca                	slli	a7,a7,0x32
   1bbfc:	0115f7b3          	and	a5,a1,a7
   1bc00:	00c6e333          	or	t1,a3,a2
   1bc04:	5c078a63          	beqz	a5,1c1d8 <__subtf3+0x904>
   1bc08:	4781                	li	a5,0
   1bc0a:	06871363          	bne	a4,s0,1bc70 <__subtf3+0x39c>
   1bc0e:	02031063          	bnez	t1,1bc2e <__subtf3+0x35a>
   1bc12:	86ae                	mv	a3,a1
   1bc14:	862a                	mv	a2,a0
   1bc16:	b3ed                	j	1ba00 <__subtf3+0x12c>
   1bc18:	4781                	li	a5,0
   1bc1a:	05171963          	bne	a4,a7,1bc6c <__subtf3+0x398>
   1bc1e:	00c6e8b3          	or	a7,a3,a2
   1bc22:	5c089063          	bnez	a7,1c1e2 <__subtf3+0x90e>
   1bc26:	fe0816e3          	bnez	a6,1bc12 <__subtf3+0x33e>
   1bc2a:	4581                	li	a1,0
   1bc2c:	a819                	j	1bc42 <__subtf3+0x36e>
   1bc2e:	0116f8b3          	and	a7,a3,a7
   1bc32:	04088463          	beqz	a7,1bc7a <__subtf3+0x3a6>
   1bc36:	4585                	li	a1,1
   1bc38:	6721                	lui	a4,0x8
   1bc3a:	4481                	li	s1,0
   1bc3c:	15ca                	slli	a1,a1,0x32
   1bc3e:	4801                	li	a6,0
   1bc40:	177d                	addi	a4,a4,-1 # 7fff <exit-0x80e9>
   1bc42:	66a1                	lui	a3,0x8
   1bc44:	03d59513          	slli	a0,a1,0x3d
   1bc48:	00385813          	srli	a6,a6,0x3
   1bc4c:	16fd                	addi	a3,a3,-1 # 7fff <exit-0x80e9>
   1bc4e:	01056533          	or	a0,a0,a6
   1bc52:	818d                	srli	a1,a1,0x3
   1bc54:	ded711e3          	bne	a4,a3,1ba36 <__subtf3+0x162>
   1bc58:	8d4d                	or	a0,a0,a1
   1bc5a:	4581                	li	a1,0
   1bc5c:	dc050de3          	beqz	a0,1ba36 <__subtf3+0x162>
   1bc60:	4585                	li	a1,1
   1bc62:	15be                	slli	a1,a1,0x2f
   1bc64:	4501                	li	a0,0
   1bc66:	4481                	li	s1,0
   1bc68:	b3f9                	j	1ba36 <__subtf3+0x162>
   1bc6a:	47c1                	li	a5,16
   1bc6c:	58080263          	beqz	a6,1c1f0 <__subtf3+0x91c>
   1bc70:	8ed1                	or	a3,a3,a2
   1bc72:	f2f1                	bnez	a3,1bc36 <__subtf3+0x362>
   1bc74:	86ae                	mv	a3,a1
   1bc76:	862a                	mv	a2,a0
   1bc78:	aba5                	j	1c1f0 <__subtf3+0x91c>
   1bc7a:	47c1                	li	a5,16
   1bc7c:	bfd5                	j	1bc70 <__subtf3+0x39c>
   1bc7e:	01178e63          	beq	a5,a7,1bc9a <__subtf3+0x3c6>
   1bc82:	962a                	add	a2,a2,a0
   1bc84:	00a63533          	sltu	a0,a2,a0
   1bc88:	96ae                	add	a3,a3,a1
   1bc8a:	96aa                	add	a3,a3,a0
   1bc8c:	03f69713          	slli	a4,a3,0x3f
   1bc90:	8205                	srli	a2,a2,0x1
   1bc92:	8e59                	or	a2,a2,a4
   1bc94:	8285                	srli	a3,a3,0x1
   1bc96:	873e                	mv	a4,a5
   1bc98:	b7b1                	j	1bbe4 <__subtf3+0x310>
   1bc9a:	52090563          	beqz	s2,1c1c4 <__subtf3+0x8f0>
   1bc9e:	470d                	li	a4,3
   1bca0:	02e91a63          	bne	s2,a4,1bcd4 <__subtf3+0x400>
   1bca4:	52048063          	beqz	s1,1c1c4 <__subtf3+0x8f0>
   1bca8:	4681                	li	a3,0
   1bcaa:	55fd                	li	a1,-1
   1bcac:	557d                	li	a0,-1
   1bcae:	8742                	mv	a4,a6
   1bcb0:	4795                	li	a5,5
   1bcb2:	460d                	li	a2,3
   1bcb4:	4cc90e63          	beq	s2,a2,1c190 <__subtf3+0x8bc>
   1bcb8:	4c091d63          	bnez	s2,1c192 <__subtf3+0x8be>
   1bcbc:	00f57613          	andi	a2,a0,15
   1bcc0:	4811                	li	a6,4
   1bcc2:	4d060863          	beq	a2,a6,1c192 <__subtf3+0x8be>
   1bcc6:	00450613          	addi	a2,a0,4
   1bcca:	00a63833          	sltu	a6,a2,a0
   1bcce:	95c2                	add	a1,a1,a6
   1bcd0:	8532                	mv	a0,a2
   1bcd2:	a1c1                	j	1c192 <__subtf3+0x8be>
   1bcd4:	4709                	li	a4,2
   1bcd6:	00e91463          	bne	s2,a4,1bcde <__subtf3+0x40a>
   1bcda:	4e049563          	bnez	s1,1c1c4 <__subtf3+0x8f0>
   1bcde:	55fd                	li	a1,-1
   1bce0:	557d                	li	a0,-1
   1bce2:	8742                	mv	a4,a6
   1bce4:	4795                	li	a5,5
   1bce6:	b31d                	j	1ba0c <__subtf3+0x138>
   1bce8:	4c090f63          	beqz	s2,1c1c6 <__subtf3+0x8f2>
   1bcec:	468d                	li	a3,3
   1bcee:	00d91a63          	bne	s2,a3,1bd02 <__subtf3+0x42e>
   1bcf2:	4c048a63          	beqz	s1,1c1c6 <__subtf3+0x8f2>
   1bcf6:	4681                	li	a3,0
   1bcf8:	55fd                	li	a1,-1
   1bcfa:	557d                	li	a0,-1
   1bcfc:	ffe78713          	addi	a4,a5,-2
   1bd00:	bf45                	j	1bcb0 <__subtf3+0x3dc>
   1bd02:	4689                	li	a3,2
   1bd04:	00d91463          	bne	s2,a3,1bd0c <__subtf3+0x438>
   1bd08:	4a049f63          	bnez	s1,1c1c6 <__subtf3+0x8f2>
   1bd0c:	55fd                	li	a1,-1
   1bd0e:	557d                	li	a0,-1
   1bd10:	ffe78713          	addi	a4,a5,-2
   1bd14:	bfc1                	j	1bce4 <__subtf3+0x410>
   1bd16:	10f05463          	blez	a5,1be1e <__subtf3+0x54a>
   1bd1a:	e729                	bnez	a4,1bd64 <__subtf3+0x490>
   1bd1c:	00c6e7b3          	or	a5,a3,a2
   1bd20:	c6078ae3          	beqz	a5,1b994 <__subtf3+0xc0>
   1bd24:	fff8079b          	addiw	a5,a6,-1
   1bd28:	e78d                	bnez	a5,1bd52 <__subtf3+0x47e>
   1bd2a:	40c50633          	sub	a2,a0,a2
   1bd2e:	40d586b3          	sub	a3,a1,a3
   1bd32:	00c53533          	sltu	a0,a0,a2
   1bd36:	8e89                	sub	a3,a3,a0
   1bd38:	8722                	mv	a4,s0
   1bd3a:	0336d793          	srli	a5,a3,0x33
   1bd3e:	8b85                	andi	a5,a5,1
   1bd40:	ea0782e3          	beqz	a5,1bbe4 <__subtf3+0x310>
   1bd44:	00d69993          	slli	s3,a3,0xd
   1bd48:	00d9d993          	srli	s3,s3,0xd
   1bd4c:	8a32                	mv	s4,a2
   1bd4e:	843a                	mv	s0,a4
   1bd50:	ac69                	j	1bfea <__subtf3+0x716>
   1bd52:	c9140ae3          	beq	s0,a7,1b9e6 <__subtf3+0x112>
   1bd56:	07400713          	li	a4,116
   1bd5a:	00f75e63          	bge	a4,a5,1bd76 <__subtf3+0x4a2>
   1bd5e:	4781                	li	a5,0
   1bd60:	4705                	li	a4,1
   1bd62:	a081                	j	1bda2 <__subtf3+0x4ce>
   1bd64:	c91401e3          	beq	s0,a7,1b9e6 <__subtf3+0x112>
   1bd68:	07400713          	li	a4,116
   1bd6c:	fef749e3          	blt	a4,a5,1bd5e <__subtf3+0x48a>
   1bd70:	4705                	li	a4,1
   1bd72:	174e                	slli	a4,a4,0x33
   1bd74:	8ed9                	or	a3,a3,a4
   1bd76:	03f00713          	li	a4,63
   1bd7a:	02f74e63          	blt	a4,a5,1bdb6 <__subtf3+0x4e2>
   1bd7e:	04000813          	li	a6,64
   1bd82:	40f8083b          	subw	a6,a6,a5
   1bd86:	01069733          	sll	a4,a3,a6
   1bd8a:	00f658b3          	srl	a7,a2,a5
   1bd8e:	01061833          	sll	a6,a2,a6
   1bd92:	01176733          	or	a4,a4,a7
   1bd96:	01003833          	snez	a6,a6
   1bd9a:	01076733          	or	a4,a4,a6
   1bd9e:	00f6d7b3          	srl	a5,a3,a5
   1bda2:	40e50733          	sub	a4,a0,a4
   1bda6:	40f587b3          	sub	a5,a1,a5
   1bdaa:	00e536b3          	sltu	a3,a0,a4
   1bdae:	863a                	mv	a2,a4
   1bdb0:	40d786b3          	sub	a3,a5,a3
   1bdb4:	b751                	j	1bd38 <__subtf3+0x464>
   1bdb6:	fc07871b          	addiw	a4,a5,-64
   1bdba:	04000893          	li	a7,64
   1bdbe:	00e6d733          	srl	a4,a3,a4
   1bdc2:	4801                	li	a6,0
   1bdc4:	01178863          	beq	a5,a7,1bdd4 <__subtf3+0x500>
   1bdc8:	08000813          	li	a6,128
   1bdcc:	40f8083b          	subw	a6,a6,a5
   1bdd0:	01069833          	sll	a6,a3,a6
   1bdd4:	00c86833          	or	a6,a6,a2
   1bdd8:	01003833          	snez	a6,a6
   1bddc:	01076733          	or	a4,a4,a6
   1bde0:	4781                	li	a5,0
   1bde2:	b7c1                	j	1bda2 <__subtf3+0x4ce>
   1bde4:	c3e5                	beqz	a5,1bec4 <__subtf3+0x5f0>
   1bde6:	84c2                	mv	s1,a6
   1bde8:	cc01                	beqz	s0,1be00 <__subtf3+0x52c>
   1bdea:	0326d793          	srli	a5,a3,0x32
   1bdee:	0017c793          	xori	a5,a5,1
   1bdf2:	8b85                	andi	a5,a5,1
   1bdf4:	0792                	slli	a5,a5,0x4
   1bdf6:	b129                	j	1ba00 <__subtf3+0x12c>
   1bdf8:	c7f1                	beqz	a5,1bec4 <__subtf3+0x5f0>
   1bdfa:	849a                	mv	s1,t1
   1bdfc:	b6041ce3          	bnez	s0,1b974 <__subtf3+0xa0>
   1be00:	00a5e833          	or	a6,a1,a0
   1be04:	b40807e3          	beqz	a6,1b952 <__subtf3+0x7e>
   1be08:	fff7c793          	not	a5,a5
   1be0c:	ef89                	bnez	a5,1be26 <__subtf3+0x552>
   1be0e:	40a60533          	sub	a0,a2,a0
   1be12:	00a637b3          	sltu	a5,a2,a0
   1be16:	8e8d                	sub	a3,a3,a1
   1be18:	862a                	mv	a2,a0
   1be1a:	8e9d                	sub	a3,a3,a5
   1be1c:	bf39                	j	1bd3a <__subtf3+0x466>
   1be1e:	c3dd                	beqz	a5,1bec4 <__subtf3+0x5f0>
   1be20:	ec11                	bnez	s0,1be3c <__subtf3+0x568>
   1be22:	849a                	mv	s1,t1
   1be24:	bff1                	j	1be00 <__subtf3+0x52c>
   1be26:	6821                	lui	a6,0x8
   1be28:	187d                	addi	a6,a6,-1 # 7fff <exit-0x80e9>
   1be2a:	d30706e3          	beq	a4,a6,1bb56 <__subtf3+0x282>
   1be2e:	07400813          	li	a6,116
   1be32:	02f85063          	bge	a6,a5,1be52 <__subtf3+0x57e>
   1be36:	4781                	li	a5,0
   1be38:	4505                	li	a0,1
   1be3a:	a091                	j	1be7e <__subtf3+0x5aa>
   1be3c:	f8c00893          	li	a7,-116
   1be40:	0917c063          	blt	a5,a7,1bec0 <__subtf3+0x5ec>
   1be44:	4805                	li	a6,1
   1be46:	184e                	slli	a6,a6,0x33
   1be48:	40f007bb          	negw	a5,a5
   1be4c:	0105e5b3          	or	a1,a1,a6
   1be50:	849a                	mv	s1,t1
   1be52:	03f00813          	li	a6,63
   1be56:	02f84e63          	blt	a6,a5,1be92 <__subtf3+0x5be>
   1be5a:	04000893          	li	a7,64
   1be5e:	40f888bb          	subw	a7,a7,a5
   1be62:	00f55333          	srl	t1,a0,a5
   1be66:	01159833          	sll	a6,a1,a7
   1be6a:	011518b3          	sll	a7,a0,a7
   1be6e:	00686833          	or	a6,a6,t1
   1be72:	011038b3          	snez	a7,a7
   1be76:	01186533          	or	a0,a6,a7
   1be7a:	00f5d7b3          	srl	a5,a1,a5
   1be7e:	40a60533          	sub	a0,a2,a0
   1be82:	00a635b3          	sltu	a1,a2,a0
   1be86:	40f687b3          	sub	a5,a3,a5
   1be8a:	862a                	mv	a2,a0
   1be8c:	40b786b3          	sub	a3,a5,a1
   1be90:	b56d                	j	1bd3a <__subtf3+0x466>
   1be92:	fc07881b          	addiw	a6,a5,-64
   1be96:	04000313          	li	t1,64
   1be9a:	0105d833          	srl	a6,a1,a6
   1be9e:	4881                	li	a7,0
   1bea0:	00678863          	beq	a5,t1,1beb0 <__subtf3+0x5dc>
   1bea4:	08000893          	li	a7,128
   1bea8:	40f888bb          	subw	a7,a7,a5
   1beac:	011598b3          	sll	a7,a1,a7
   1beb0:	00a8e8b3          	or	a7,a7,a0
   1beb4:	011038b3          	snez	a7,a7
   1beb8:	01186533          	or	a0,a6,a7
   1bebc:	4781                	li	a5,0
   1bebe:	b7c1                	j	1be7e <__subtf3+0x5aa>
   1bec0:	849a                	mv	s1,t1
   1bec2:	bf95                	j	1be36 <__subtf3+0x562>
   1bec4:	6e21                	lui	t3,0x8
   1bec6:	00140793          	addi	a5,s0,1
   1beca:	ffee0813          	addi	a6,t3,-2 # 7ffe <exit-0x80ea>
   1bece:	0107f7b3          	and	a5,a5,a6
   1bed2:	e7f5                	bnez	a5,1bfbe <__subtf3+0x6ea>
   1bed4:	00c6e833          	or	a6,a3,a2
   1bed8:	00a5e8b3          	or	a7,a1,a0
   1bedc:	ec29                	bnez	s0,1bf36 <__subtf3+0x662>
   1bede:	00089d63          	bnez	a7,1bef8 <__subtf3+0x624>
   1bee2:	20081d63          	bnez	a6,1c0fc <__subtf3+0x828>
   1bee6:	ffe90493          	addi	s1,s2,-2
   1beea:	0014b493          	seqz	s1,s1
   1beee:	4581                	li	a1,0
   1bef0:	4801                	li	a6,0
   1bef2:	4701                	li	a4,0
   1bef4:	4781                	li	a5,0
   1bef6:	b3b1                	j	1bc42 <__subtf3+0x36e>
   1bef8:	12080e63          	beqz	a6,1c034 <__subtf3+0x760>
   1befc:	40c50733          	sub	a4,a0,a2
   1bf00:	00e53833          	sltu	a6,a0,a4
   1bf04:	40d587b3          	sub	a5,a1,a3
   1bf08:	410787b3          	sub	a5,a5,a6
   1bf0c:	0337d813          	srli	a6,a5,0x33
   1bf10:	00187813          	andi	a6,a6,1
   1bf14:	00080b63          	beqz	a6,1bf2a <__subtf3+0x656>
   1bf18:	40a60533          	sub	a0,a2,a0
   1bf1c:	8e8d                	sub	a3,a3,a1
   1bf1e:	00a63633          	sltu	a2,a2,a0
   1bf22:	40c685b3          	sub	a1,a3,a2
   1bf26:	849a                	mv	s1,t1
   1bf28:	a231                	j	1c034 <__subtf3+0x760>
   1bf2a:	00f766b3          	or	a3,a4,a5
   1bf2e:	dec5                	beqz	a3,1bee6 <__subtf3+0x612>
   1bf30:	85be                	mv	a1,a5
   1bf32:	853a                	mv	a0,a4
   1bf34:	a201                	j	1c034 <__subtf3+0x760>
   1bf36:	1e7d                	addi	t3,t3,-1
   1bf38:	05c41063          	bne	s0,t3,1bf78 <__subtf3+0x6a4>
   1bf3c:	00089e63          	bnez	a7,1bf58 <__subtf3+0x684>
   1bf40:	4781                	li	a5,0
   1bf42:	06871363          	bne	a4,s0,1bfa8 <__subtf3+0x6d4>
   1bf46:	4585                	li	a1,1
   1bf48:	15ca                	slli	a1,a1,0x32
   1bf4a:	4481                	li	s1,0
   1bf4c:	04080063          	beqz	a6,1bf8c <__subtf3+0x6b8>
   1bf50:	8df5                	and	a1,a1,a3
   1bf52:	c5a5                	beqz	a1,1bfba <__subtf3+0x6e6>
   1bf54:	849a                	mv	s1,t1
   1bf56:	b46d                	j	1ba00 <__subtf3+0x12c>
   1bf58:	4605                	li	a2,1
   1bf5a:	164a                	slli	a2,a2,0x32
   1bf5c:	00c5f7b3          	and	a5,a1,a2
   1bf60:	28078b63          	beqz	a5,1c1f6 <__subtf3+0x922>
   1bf64:	4781                	li	a5,0
   1bf66:	2a871063          	bne	a4,s0,1c206 <__subtf3+0x932>
   1bf6a:	d00805e3          	beqz	a6,1bc74 <__subtf3+0x3a0>
   1bf6e:	8e75                	and	a2,a2,a3
   1bf70:	cc0613e3          	bnez	a2,1bc36 <__subtf3+0x362>
   1bf74:	47c1                	li	a5,16
   1bf76:	ac41                	j	1c206 <__subtf3+0x932>
   1bf78:	4781                	li	a5,0
   1bf7a:	03c71563          	bne	a4,t3,1bfa4 <__subtf3+0x6d0>
   1bf7e:	00081963          	bnez	a6,1bf90 <__subtf3+0x6bc>
   1bf82:	ce0899e3          	bnez	a7,1bc74 <__subtf3+0x3a0>
   1bf86:	4585                	li	a1,1
   1bf88:	4481                	li	s1,0
   1bf8a:	15ca                	slli	a1,a1,0x32
   1bf8c:	47c1                	li	a5,16
   1bf8e:	b955                	j	1bc42 <__subtf3+0x36e>
   1bf90:	0326de13          	srli	t3,a3,0x32
   1bf94:	001e7e13          	andi	t3,t3,1
   1bf98:	000e0563          	beqz	t3,1bfa2 <__subtf3+0x6ce>
   1bf9c:	c8089de3          	bnez	a7,1bc36 <__subtf3+0x362>
   1bfa0:	bf55                	j	1bf54 <__subtf3+0x680>
   1bfa2:	47c1                	li	a5,16
   1bfa4:	26089163          	bnez	a7,1c206 <__subtf3+0x932>
   1bfa8:	849a                	mv	s1,t1
   1bfaa:	24081363          	bnez	a6,1c1f0 <__subtf3+0x91c>
   1bfae:	4585                	li	a1,1
   1bfb0:	6721                	lui	a4,0x8
   1bfb2:	4481                	li	s1,0
   1bfb4:	15ca                	slli	a1,a1,0x32
   1bfb6:	177d                	addi	a4,a4,-1 # 7fff <exit-0x80e9>
   1bfb8:	bfd1                	j	1bf8c <__subtf3+0x6b8>
   1bfba:	47c1                	li	a5,16
   1bfbc:	b7f5                	j	1bfa8 <__subtf3+0x6d4>
   1bfbe:	40c507b3          	sub	a5,a0,a2
   1bfc2:	00f53733          	sltu	a4,a0,a5
   1bfc6:	40d589b3          	sub	s3,a1,a3
   1bfca:	40e989b3          	sub	s3,s3,a4
   1bfce:	0339d713          	srli	a4,s3,0x33
   1bfd2:	8b05                	andi	a4,a4,1
   1bfd4:	8a3e                	mv	s4,a5
   1bfd6:	cf45                	beqz	a4,1c08e <__subtf3+0x7ba>
   1bfd8:	40a60a33          	sub	s4,a2,a0
   1bfdc:	40b689b3          	sub	s3,a3,a1
   1bfe0:	01463633          	sltu	a2,a2,s4
   1bfe4:	40c989b3          	sub	s3,s3,a2
   1bfe8:	849a                	mv	s1,t1
   1bfea:	0a098663          	beqz	s3,1c096 <__subtf3+0x7c2>
   1bfee:	854e                	mv	a0,s3
   1bff0:	640000ef          	jal	ra,1c630 <__clzdi2>
   1bff4:	ff45071b          	addiw	a4,a0,-12
   1bff8:	04000693          	li	a3,64
   1bffc:	9e99                	subw	a3,a3,a4
   1bffe:	00e999b3          	sll	s3,s3,a4
   1c002:	00da56b3          	srl	a3,s4,a3
   1c006:	0136e6b3          	or	a3,a3,s3
   1c00a:	00ea19b3          	sll	s3,s4,a4
   1c00e:	0c874c63          	blt	a4,s0,1c0e6 <__subtf3+0x812>
   1c012:	9f01                	subw	a4,a4,s0
   1c014:	2705                	addiw	a4,a4,1
   1c016:	04000793          	li	a5,64
   1c01a:	9f99                	subw	a5,a5,a4
   1c01c:	00f69533          	sll	a0,a3,a5
   1c020:	00e9d633          	srl	a2,s3,a4
   1c024:	00f997b3          	sll	a5,s3,a5
   1c028:	8d51                	or	a0,a0,a2
   1c02a:	00f037b3          	snez	a5,a5
   1c02e:	8d5d                	or	a0,a0,a5
   1c030:	00e6d5b3          	srl	a1,a3,a4
   1c034:	00b567b3          	or	a5,a0,a1
   1c038:	ea078be3          	beqz	a5,1beee <__subtf3+0x61a>
   1c03c:	03f55793          	srli	a5,a0,0x3f
   1c040:	00159713          	slli	a4,a1,0x1
   1c044:	973e                	add	a4,a4,a5
   1c046:	00151793          	slli	a5,a0,0x1
   1c04a:	0077f613          	andi	a2,a5,7
   1c04e:	00757693          	andi	a3,a0,7
   1c052:	0e060f63          	beqz	a2,1c150 <__subtf3+0x87c>
   1c056:	4609                	li	a2,2
   1c058:	0cc90763          	beq	s2,a2,1c126 <__subtf3+0x852>
   1c05c:	4605                	li	a2,1
   1c05e:	480d                	li	a6,3
   1c060:	1652                	slli	a2,a2,0x34
   1c062:	0b090063          	beq	s2,a6,1c102 <__subtf3+0x82e>
   1c066:	08091f63          	bnez	s2,1c104 <__subtf3+0x830>
   1c06a:	00f7f813          	andi	a6,a5,15
   1c06e:	4891                	li	a7,4
   1c070:	09180a63          	beq	a6,a7,1c104 <__subtf3+0x830>
   1c074:	ffc7b793          	sltiu	a5,a5,-4
   1c078:	0017c793          	xori	a5,a5,1
   1c07c:	1782                	slli	a5,a5,0x20
   1c07e:	9381                	srli	a5,a5,0x20
   1c080:	97ba                	add	a5,a5,a4
   1c082:	8ff1                	and	a5,a5,a2
   1c084:	e3e5                	bnez	a5,1c164 <__subtf3+0x890>
   1c086:	c2f9                	beqz	a3,1c14c <__subtf3+0x878>
   1c088:	4685                	li	a3,1
   1c08a:	4701                	li	a4,0
   1c08c:	a201                	j	1c18c <__subtf3+0x8b8>
   1c08e:	0137e7b3          	or	a5,a5,s3
   1c092:	ffa1                	bnez	a5,1bfea <__subtf3+0x716>
   1c094:	bd89                	j	1bee6 <__subtf3+0x612>
   1c096:	8552                	mv	a0,s4
   1c098:	598000ef          	jal	ra,1c630 <__clzdi2>
   1c09c:	0345071b          	addiw	a4,a0,52
   1c0a0:	03f00593          	li	a1,63
   1c0a4:	f4e5dae3          	bge	a1,a4,1bff8 <__subtf3+0x724>
   1c0a8:	ff45069b          	addiw	a3,a0,-12
   1c0ac:	00da16b3          	sll	a3,s4,a3
   1c0b0:	02874b63          	blt	a4,s0,1c0e6 <__subtf3+0x812>
   1c0b4:	408707bb          	subw	a5,a4,s0
   1c0b8:	0017871b          	addiw	a4,a5,1
   1c0bc:	f4e5dde3          	bge	a1,a4,1c016 <__subtf3+0x742>
   1c0c0:	fc17879b          	addiw	a5,a5,-63
   1c0c4:	04000593          	li	a1,64
   1c0c8:	00f6d7b3          	srl	a5,a3,a5
   1c0cc:	4501                	li	a0,0
   1c0ce:	00b70763          	beq	a4,a1,1c0dc <__subtf3+0x808>
   1c0d2:	08000513          	li	a0,128
   1c0d6:	9d19                	subw	a0,a0,a4
   1c0d8:	00a69533          	sll	a0,a3,a0
   1c0dc:	00a03533          	snez	a0,a0
   1c0e0:	8d5d                	or	a0,a0,a5
   1c0e2:	4581                	li	a1,0
   1c0e4:	bf81                	j	1c034 <__subtf3+0x760>
   1c0e6:	57fd                	li	a5,-1
   1c0e8:	17ce                	slli	a5,a5,0x33
   1c0ea:	17fd                	addi	a5,a5,-1
   1c0ec:	40e40733          	sub	a4,s0,a4
   1c0f0:	8efd                	and	a3,a3,a5
   1c0f2:	864e                	mv	a2,s3
   1c0f4:	bcc5                	j	1bbe4 <__subtf3+0x310>
   1c0f6:	85b6                	mv	a1,a3
   1c0f8:	8532                	mv	a0,a2
   1c0fa:	bf2d                	j	1c034 <__subtf3+0x760>
   1c0fc:	85b6                	mv	a1,a3
   1c0fe:	8532                	mv	a0,a2
   1c100:	b51d                	j	1bf26 <__subtf3+0x652>
   1c102:	c489                	beqz	s1,1c10c <__subtf3+0x838>
   1c104:	8f71                	and	a4,a4,a2
   1c106:	ef39                	bnez	a4,1c164 <__subtf3+0x890>
   1c108:	f2c1                	bnez	a3,1c088 <__subtf3+0x7b4>
   1c10a:	a821                	j	1c122 <__subtf3+0x84e>
   1c10c:	ff87b793          	sltiu	a5,a5,-8
   1c110:	0017c793          	xori	a5,a5,1
   1c114:	1782                	slli	a5,a5,0x20
   1c116:	9381                	srli	a5,a5,0x20
   1c118:	97ba                	add	a5,a5,a4
   1c11a:	8ff1                	and	a5,a5,a2
   1c11c:	e7a1                	bnez	a5,1c164 <__subtf3+0x890>
   1c11e:	4701                	li	a4,0
   1c120:	e6ad                	bnez	a3,1c18a <__subtf3+0x8b6>
   1c122:	4785                	li	a5,1
   1c124:	a031                	j	1c130 <__subtf3+0x85c>
   1c126:	e881                	bnez	s1,1c136 <__subtf3+0x862>
   1c128:	9351                	srli	a4,a4,0x34
   1c12a:	8b05                	andi	a4,a4,1
   1c12c:	4785                	li	a5,1
   1c12e:	ef05                	bnez	a4,1c166 <__subtf3+0x892>
   1c130:	0027e793          	ori	a5,a5,2
   1c134:	b8e1                	j	1ba0c <__subtf3+0x138>
   1c136:	ff87b793          	sltiu	a5,a5,-8
   1c13a:	0017c793          	xori	a5,a5,1
   1c13e:	1782                	slli	a5,a5,0x20
   1c140:	9381                	srli	a5,a5,0x20
   1c142:	97ba                	add	a5,a5,a4
   1c144:	93d1                	srli	a5,a5,0x34
   1c146:	8b85                	andi	a5,a5,1
   1c148:	ef91                	bnez	a5,1c164 <__subtf3+0x890>
   1c14a:	e6b1                	bnez	a3,1c196 <__subtf3+0x8c2>
   1c14c:	4701                	li	a4,0
   1c14e:	bfd1                	j	1c122 <__subtf3+0x84e>
   1c150:	9351                	srli	a4,a4,0x34
   1c152:	8b05                	andi	a4,a4,1
   1c154:	e715                	bnez	a4,1c180 <__subtf3+0x8ac>
   1c156:	4781                	li	a5,0
   1c158:	8a068ae3          	beqz	a3,1ba0c <__subtf3+0x138>
   1c15c:	4685                	li	a3,1
   1c15e:	4701                	li	a4,0
   1c160:	4781                	li	a5,0
   1c162:	a031                	j	1c16e <__subtf3+0x89a>
   1c164:	4785                	li	a5,1
   1c166:	4701                	li	a4,0
   1c168:	8a0682e3          	beqz	a3,1ba0c <__subtf3+0x138>
   1c16c:	4681                	li	a3,0
   1c16e:	4609                	li	a2,2
   1c170:	0017e793          	ori	a5,a5,1
   1c174:	b2c91fe3          	bne	s2,a2,1bcb2 <__subtf3+0x3de>
   1c178:	cc89                	beqz	s1,1c192 <__subtf3+0x8be>
   1c17a:	00850613          	addi	a2,a0,8
   1c17e:	b6b1                	j	1bcca <__subtf3+0x3f6>
   1c180:	4781                	li	a5,0
   1c182:	b7d5                	j	1c166 <__subtf3+0x892>
   1c184:	85b6                	mv	a1,a3
   1c186:	8532                	mv	a0,a2
   1c188:	b7d5                	j	1c16c <__subtf3+0x898>
   1c18a:	4685                	li	a3,1
   1c18c:	4785                	li	a5,1
   1c18e:	b615                	j	1bcb2 <__subtf3+0x3de>
   1c190:	d4ed                	beqz	s1,1c17a <__subtf3+0x8a6>
   1c192:	fed9                	bnez	a3,1c130 <__subtf3+0x85c>
   1c194:	b8a5                	j	1ba0c <__subtf3+0x138>
   1c196:	4685                	li	a3,1
   1c198:	4701                	li	a4,0
   1c19a:	4785                	li	a5,1
   1c19c:	bff1                	j	1c178 <__subtf3+0x8a4>
   1c19e:	4801                	li	a6,0
   1c1a0:	00090663          	beqz	s2,1c1ac <__subtf3+0x8d8>
   1c1a4:	460d                	li	a2,3
   1c1a6:	00c91763          	bne	s2,a2,1c1b4 <__subtf3+0x8e0>
   1c1aa:	e889                	bnez	s1,1c1bc <__subtf3+0x8e8>
   1c1ac:	0057e793          	ori	a5,a5,5
   1c1b0:	85c2                	mv	a1,a6
   1c1b2:	bc41                	j	1bc42 <__subtf3+0x36e>
   1c1b4:	4609                	li	a2,2
   1c1b6:	00c91363          	bne	s2,a2,1c1bc <__subtf3+0x8e8>
   1c1ba:	f8ed                	bnez	s1,1c1ac <__subtf3+0x8d8>
   1c1bc:	587d                	li	a6,-1
   1c1be:	ffe68713          	addi	a4,a3,-2
   1c1c2:	b7ed                	j	1c1ac <__subtf3+0x8d8>
   1c1c4:	873e                	mv	a4,a5
   1c1c6:	4581                	li	a1,0
   1c1c8:	4801                	li	a6,0
   1c1ca:	4795                	li	a5,5
   1c1cc:	bc9d                	j	1bc42 <__subtf3+0x36e>
   1c1ce:	4581                	li	a1,0
   1c1d0:	8722                	mv	a4,s0
   1c1d2:	b30d                	j	1bef4 <__subtf3+0x620>
   1c1d4:	882a                	mv	a6,a0
   1c1d6:	b4b5                	j	1bc42 <__subtf3+0x36e>
   1c1d8:	47c1                	li	a5,16
   1c1da:	a8871be3          	bne	a4,s0,1bc70 <__subtf3+0x39c>
   1c1de:	a2030ae3          	beqz	t1,1bc12 <__subtf3+0x33e>
   1c1e2:	0326d713          	srli	a4,a3,0x32
   1c1e6:	8b05                	andi	a4,a4,1
   1c1e8:	a80701e3          	beqz	a4,1bc6a <__subtf3+0x396>
   1c1ec:	a40815e3          	bnez	a6,1bc36 <__subtf3+0x362>
   1c1f0:	6721                	lui	a4,0x8
   1c1f2:	177d                	addi	a4,a4,-1 # 7fff <exit-0x80e9>
   1c1f4:	b031                	j	1ba00 <__subtf3+0x12c>
   1c1f6:	47c1                	li	a5,16
   1c1f8:	00871763          	bne	a4,s0,1c206 <__subtf3+0x932>
   1c1fc:	a6080ce3          	beqz	a6,1bc74 <__subtf3+0x3a0>
   1c200:	8e75                	and	a2,a2,a3
   1c202:	a2061ae3          	bnez	a2,1bc36 <__subtf3+0x362>
   1c206:	a20818e3          	bnez	a6,1bc36 <__subtf3+0x362>
   1c20a:	b4ad                	j	1bc74 <__subtf3+0x3a0>

000000000001c20c <__fixtfsi>:
   1c20c:	862a                	mv	a2,a0
   1c20e:	002027f3          	frrm	a5
   1c212:	6811                	lui	a6,0x4
   1c214:	00159693          	slli	a3,a1,0x1
   1c218:	01059793          	slli	a5,a1,0x10
   1c21c:	92c5                	srli	a3,a3,0x31
   1c21e:	ffe80713          	addi	a4,a6,-2 # 3ffe <exit-0xc0ea>
   1c222:	83c1                	srli	a5,a5,0x10
   1c224:	91fd                	srli	a1,a1,0x3f
   1c226:	00d74763          	blt	a4,a3,1c234 <__fixtfsi+0x28>
   1c22a:	e2bd                	bnez	a3,1c290 <__fixtfsi+0x84>
   1c22c:	8fc9                	or	a5,a5,a0
   1c22e:	4501                	li	a0,0
   1c230:	efb1                	bnez	a5,1c28c <__fixtfsi+0x80>
   1c232:	8082                	ret
   1c234:	01d80713          	addi	a4,a6,29
   1c238:	02d75463          	bge	a4,a3,1c260 <__fixtfsi+0x54>
   1c23c:	80000737          	lui	a4,0x80000
   1c240:	fff74713          	not	a4,a4
   1c244:	00b7053b          	addw	a0,a4,a1
   1c248:	c5b1                	beqz	a1,1c294 <__fixtfsi+0x88>
   1c24a:	0879                	addi	a6,a6,30
   1c24c:	4741                	li	a4,16
   1c24e:	05069463          	bne	a3,a6,1c296 <__fixtfsi+0x8a>
   1c252:	0117d693          	srli	a3,a5,0x11
   1c256:	e2a1                	bnez	a3,1c296 <__fixtfsi+0x8a>
   1c258:	17be                	slli	a5,a5,0x2f
   1c25a:	8fd1                	or	a5,a5,a2
   1c25c:	eb85                	bnez	a5,1c28c <__fixtfsi+0x80>
   1c25e:	8082                	ret
   1c260:	4705                	li	a4,1
   1c262:	1742                	slli	a4,a4,0x30
   1c264:	8fd9                	or	a5,a5,a4
   1c266:	6611                	lui	a2,0x4
   1c268:	7771                	lui	a4,0xffffc
   1c26a:	2745                	addiw	a4,a4,17 # ffffffffffffc011 <__BSS_END__+0xfffffffffffdc8a1>
   1c26c:	02f6061b          	addiw	a2,a2,47 # 402f <exit-0xc0b9>
   1c270:	9f35                	addw	a4,a4,a3
   1c272:	40d606bb          	subw	a3,a2,a3
   1c276:	00e79733          	sll	a4,a5,a4
   1c27a:	00d7d7b3          	srl	a5,a5,a3
   1c27e:	8f49                	or	a4,a4,a0
   1c280:	0007851b          	sext.w	a0,a5
   1c284:	c199                	beqz	a1,1c28a <__fixtfsi+0x7e>
   1c286:	40a0053b          	negw	a0,a0
   1c28a:	cb01                	beqz	a4,1c29a <__fixtfsi+0x8e>
   1c28c:	4705                	li	a4,1
   1c28e:	a021                	j	1c296 <__fixtfsi+0x8a>
   1c290:	4501                	li	a0,0
   1c292:	bfed                	j	1c28c <__fixtfsi+0x80>
   1c294:	4741                	li	a4,16
   1c296:	00172073          	csrs	fflags,a4
   1c29a:	8082                	ret

000000000001c29c <__floatsitf>:
   1c29c:	1101                	addi	sp,sp,-32
   1c29e:	ec06                	sd	ra,24(sp)
   1c2a0:	e822                	sd	s0,16(sp)
   1c2a2:	e426                	sd	s1,8(sp)
   1c2a4:	c139                	beqz	a0,1c2ea <__floatsitf+0x4e>
   1c2a6:	0005079b          	sext.w	a5,a0
   1c2aa:	03f55493          	srli	s1,a0,0x3f
   1c2ae:	00055463          	bgez	a0,1c2b6 <__floatsitf+0x1a>
   1c2b2:	40f007bb          	negw	a5,a5
   1c2b6:	02079413          	slli	s0,a5,0x20
   1c2ba:	9001                	srli	s0,s0,0x20
   1c2bc:	8522                	mv	a0,s0
   1c2be:	372000ef          	jal	ra,1c630 <__clzdi2>
   1c2c2:	6591                	lui	a1,0x4
   1c2c4:	03e5859b          	addiw	a1,a1,62 # 403e <exit-0xc0aa>
   1c2c8:	9d89                	subw	a1,a1,a0
   1c2ca:	3545                	addiw	a0,a0,-15
   1c2cc:	00a417b3          	sll	a5,s0,a0
   1c2d0:	60e2                	ld	ra,24(sp)
   1c2d2:	6442                	ld	s0,16(sp)
   1c2d4:	00f4949b          	slliw	s1,s1,0xf
   1c2d8:	8dc5                	or	a1,a1,s1
   1c2da:	07c2                	slli	a5,a5,0x10
   1c2dc:	15c2                	slli	a1,a1,0x30
   1c2de:	83c1                	srli	a5,a5,0x10
   1c2e0:	64a2                	ld	s1,8(sp)
   1c2e2:	4501                	li	a0,0
   1c2e4:	8ddd                	or	a1,a1,a5
   1c2e6:	6105                	addi	sp,sp,32
   1c2e8:	8082                	ret
   1c2ea:	4781                	li	a5,0
   1c2ec:	4581                	li	a1,0
   1c2ee:	4481                	li	s1,0
   1c2f0:	b7c5                	j	1c2d0 <__floatsitf+0x34>

000000000001c2f2 <__extenddftf2>:
   1c2f2:	1101                	addi	sp,sp,-32
   1c2f4:	e20507d3          	fmv.x.d	a5,fa0
   1c2f8:	ec06                	sd	ra,24(sp)
   1c2fa:	e822                	sd	s0,16(sp)
   1c2fc:	e426                	sd	s1,8(sp)
   1c2fe:	00202773          	frrm	a4
   1c302:	0347d513          	srli	a0,a5,0x34
   1c306:	7ff57513          	andi	a0,a0,2047
   1c30a:	00c79413          	slli	s0,a5,0xc
   1c30e:	03f7d493          	srli	s1,a5,0x3f
   1c312:	00150793          	addi	a5,a0,1
   1c316:	7fe7f793          	andi	a5,a5,2046
   1c31a:	8031                	srli	s0,s0,0xc
   1c31c:	cb91                	beqz	a5,1c330 <__extenddftf2+0x3e>
   1c31e:	6791                	lui	a5,0x4
   1c320:	c0078793          	addi	a5,a5,-1024 # 3c00 <exit-0xc4e8>
   1c324:	953e                	add	a0,a0,a5
   1c326:	00445793          	srli	a5,s0,0x4
   1c32a:	1472                	slli	s0,s0,0x3c
   1c32c:	4701                	li	a4,0
   1c32e:	a8b9                	j	1c38c <__extenddftf2+0x9a>
   1c330:	ed1d                	bnez	a0,1c36e <__extenddftf2+0x7c>
   1c332:	4781                	li	a5,0
   1c334:	dc65                	beqz	s0,1c32c <__extenddftf2+0x3a>
   1c336:	8522                	mv	a0,s0
   1c338:	2f8000ef          	jal	ra,1c630 <__clzdi2>
   1c33c:	0005071b          	sext.w	a4,a0
   1c340:	47b9                	li	a5,14
   1c342:	02e7c063          	blt	a5,a4,1c362 <__extenddftf2+0x70>
   1c346:	47bd                	li	a5,15
   1c348:	9f89                	subw	a5,a5,a0
   1c34a:	0315071b          	addiw	a4,a0,49
   1c34e:	00f457b3          	srl	a5,s0,a5
   1c352:	00e41433          	sll	s0,s0,a4
   1c356:	6711                	lui	a4,0x4
   1c358:	c0c7071b          	addiw	a4,a4,-1012 # 3c0c <exit-0xc4dc>
   1c35c:	40a7053b          	subw	a0,a4,a0
   1c360:	b7f1                	j	1c32c <__extenddftf2+0x3a>
   1c362:	ff15079b          	addiw	a5,a0,-15
   1c366:	00f417b3          	sll	a5,s0,a5
   1c36a:	4401                	li	s0,0
   1c36c:	b7ed                	j	1c356 <__extenddftf2+0x64>
   1c36e:	c021                	beqz	s0,1c3ae <__extenddftf2+0xbc>
   1c370:	4685                	li	a3,1
   1c372:	03369713          	slli	a4,a3,0x33
   1c376:	00e43733          	sltu	a4,s0,a4
   1c37a:	00445793          	srli	a5,s0,0x4
   1c37e:	16be                	slli	a3,a3,0x2f
   1c380:	6521                	lui	a0,0x8
   1c382:	0047171b          	slliw	a4,a4,0x4
   1c386:	8fd5                	or	a5,a5,a3
   1c388:	1472                	slli	s0,s0,0x3c
   1c38a:	157d                	addi	a0,a0,-1 # 7fff <exit-0x80e9>
   1c38c:	01079593          	slli	a1,a5,0x10
   1c390:	00f4979b          	slliw	a5,s1,0xf
   1c394:	8d5d                	or	a0,a0,a5
   1c396:	1542                	slli	a0,a0,0x30
   1c398:	81c1                	srli	a1,a1,0x10
   1c39a:	8dc9                	or	a1,a1,a0
   1c39c:	c319                	beqz	a4,1c3a2 <__extenddftf2+0xb0>
   1c39e:	00186073          	csrsi	fflags,16
   1c3a2:	60e2                	ld	ra,24(sp)
   1c3a4:	8522                	mv	a0,s0
   1c3a6:	6442                	ld	s0,16(sp)
   1c3a8:	64a2                	ld	s1,8(sp)
   1c3aa:	6105                	addi	sp,sp,32
   1c3ac:	8082                	ret
   1c3ae:	6521                	lui	a0,0x8
   1c3b0:	4781                	li	a5,0
   1c3b2:	157d                	addi	a0,a0,-1 # 7fff <exit-0x80e9>
   1c3b4:	bfa5                	j	1c32c <__extenddftf2+0x3a>

000000000001c3b6 <__trunctfdf2>:
   1c3b6:	00202873          	frrm	a6
   1c3ba:	68a1                	lui	a7,0x8
   1c3bc:	0305d713          	srli	a4,a1,0x30
   1c3c0:	fff88e13          	addi	t3,a7,-1 # 7fff <exit-0x80e9>
   1c3c4:	57fd                	li	a5,-1
   1c3c6:	0107d693          	srli	a3,a5,0x10
   1c3ca:	01c77733          	and	a4,a4,t3
   1c3ce:	03f5d613          	srli	a2,a1,0x3f
   1c3d2:	00170313          	addi	t1,a4,1
   1c3d6:	8df5                	and	a1,a1,a3
   1c3d8:	18f9                	addi	a7,a7,-2
   1c3da:	058e                	slli	a1,a1,0x3
   1c3dc:	03d55693          	srli	a3,a0,0x3d
   1c3e0:	011378b3          	and	a7,t1,a7
   1c3e4:	8ecd                	or	a3,a3,a1
   1c3e6:	2801                	sext.w	a6,a6
   1c3e8:	00351593          	slli	a1,a0,0x3
   1c3ec:	10088163          	beqz	a7,1c4ee <__trunctfdf2+0x138>
   1c3f0:	78f1                	lui	a7,0xffffc
   1c3f2:	40088893          	addi	a7,a7,1024 # ffffffffffffc400 <__BSS_END__+0xfffffffffffdcc90>
   1c3f6:	9746                	add	a4,a4,a7
   1c3f8:	7fe00893          	li	a7,2046
   1c3fc:	02e8d463          	bge	a7,a4,1c424 <__trunctfdf2+0x6e>
   1c400:	20080563          	beqz	a6,1c60a <__trunctfdf2+0x254>
   1c404:	470d                	li	a4,3
   1c406:	00e81863          	bne	a6,a4,1c416 <__trunctfdf2+0x60>
   1c40a:	20060f63          	beqz	a2,1c628 <__trunctfdf2+0x272>
   1c40e:	7fe00713          	li	a4,2046
   1c412:	4515                	li	a0,5
   1c414:	a259                	j	1c59a <__trunctfdf2+0x1e4>
   1c416:	4709                	li	a4,2
   1c418:	00e81463          	bne	a6,a4,1c420 <__trunctfdf2+0x6a>
   1c41c:	20061863          	bnez	a2,1c62c <__trunctfdf2+0x276>
   1c420:	57fd                	li	a5,-1
   1c422:	b7f5                	j	1c40e <__trunctfdf2+0x58>
   1c424:	0ae04763          	bgtz	a4,1c4d2 <__trunctfdf2+0x11c>
   1c428:	fcc00793          	li	a5,-52
   1c42c:	0cf74663          	blt	a4,a5,1c4f8 <__trunctfdf2+0x142>
   1c430:	4785                	li	a5,1
   1c432:	17ce                	slli	a5,a5,0x33
   1c434:	03d00893          	li	a7,61
   1c438:	8edd                	or	a3,a3,a5
   1c43a:	40e888b3          	sub	a7,a7,a4
   1c43e:	03f00793          	li	a5,63
   1c442:	2701                	sext.w	a4,a4
   1c444:	0717c563          	blt	a5,a7,1c4ae <__trunctfdf2+0xf8>
   1c448:	03d00793          	li	a5,61
   1c44c:	0037051b          	addiw	a0,a4,3
   1c450:	9f99                	subw	a5,a5,a4
   1c452:	00f5d7b3          	srl	a5,a1,a5
   1c456:	00a595b3          	sll	a1,a1,a0
   1c45a:	00b035b3          	snez	a1,a1
   1c45e:	8fcd                	or	a5,a5,a1
   1c460:	00a696b3          	sll	a3,a3,a0
   1c464:	8fd5                	or	a5,a5,a3
   1c466:	00179713          	slli	a4,a5,0x1
   1c46a:	00777693          	andi	a3,a4,7
   1c46e:	e6d9                	bnez	a3,1c4fc <__trunctfdf2+0x146>
   1c470:	0077f593          	andi	a1,a5,7
   1c474:	4701                	li	a4,0
   1c476:	4685                	li	a3,1
   1c478:	4501                	li	a0,0
   1c47a:	c185                	beqz	a1,1c49a <__trunctfdf2+0xe4>
   1c47c:	4589                	li	a1,2
   1c47e:	12b80f63          	beq	a6,a1,1c5bc <__trunctfdf2+0x206>
   1c482:	458d                	li	a1,3
   1c484:	10b80863          	beq	a6,a1,1c594 <__trunctfdf2+0x1de>
   1c488:	12081d63          	bnez	a6,1c5c2 <__trunctfdf2+0x20c>
   1c48c:	00f7f593          	andi	a1,a5,15
   1c490:	4511                	li	a0,4
   1c492:	0ea59b63          	bne	a1,a0,1c588 <__trunctfdf2+0x1d2>
   1c496:	4505                	li	a0,1
   1c498:	e6e9                	bnez	a3,1c562 <__trunctfdf2+0x1ac>
   1c49a:	7ff00693          	li	a3,2047
   1c49e:	838d                	srli	a5,a5,0x3
   1c4a0:	08d71b63          	bne	a4,a3,1c536 <__trunctfdf2+0x180>
   1c4a4:	cbc9                	beqz	a5,1c536 <__trunctfdf2+0x180>
   1c4a6:	4785                	li	a5,1
   1c4a8:	17ce                	slli	a5,a5,0x33
   1c4aa:	4601                	li	a2,0
   1c4ac:	a069                	j	1c536 <__trunctfdf2+0x180>
   1c4ae:	5575                	li	a0,-3
   1c4b0:	9d19                	subw	a0,a0,a4
   1c4b2:	04000313          	li	t1,64
   1c4b6:	00a6d533          	srl	a0,a3,a0
   1c4ba:	4781                	li	a5,0
   1c4bc:	00688663          	beq	a7,t1,1c4c8 <__trunctfdf2+0x112>
   1c4c0:	0437071b          	addiw	a4,a4,67
   1c4c4:	00e697b3          	sll	a5,a3,a4
   1c4c8:	8fcd                	or	a5,a5,a1
   1c4ca:	00f037b3          	snez	a5,a5
   1c4ce:	8fc9                	or	a5,a5,a0
   1c4d0:	bf59                	j	1c466 <__trunctfdf2+0xb0>
   1c4d2:	051e                	slli	a0,a0,0x7
   1c4d4:	00a03533          	snez	a0,a0
   1c4d8:	91f1                	srli	a1,a1,0x3c
   1c4da:	8d4d                	or	a0,a0,a1
   1c4dc:	00469793          	slli	a5,a3,0x4
   1c4e0:	8fc9                	or	a5,a5,a0
   1c4e2:	891d                	andi	a0,a0,7
   1c4e4:	4681                	li	a3,0
   1c4e6:	f959                	bnez	a0,1c47c <__trunctfdf2+0xc6>
   1c4e8:	838d                	srli	a5,a5,0x3
   1c4ea:	4501                	li	a0,0
   1c4ec:	a0a9                	j	1c536 <__trunctfdf2+0x180>
   1c4ee:	8dd5                	or	a1,a1,a3
   1c4f0:	e705                	bnez	a4,1c518 <__trunctfdf2+0x162>
   1c4f2:	03f61793          	slli	a5,a2,0x3f
   1c4f6:	c9b1                	beqz	a1,1c54a <__trunctfdf2+0x194>
   1c4f8:	4785                	li	a5,1
   1c4fa:	4709                	li	a4,2
   1c4fc:	4689                	li	a3,2
   1c4fe:	0077f513          	andi	a0,a5,7
   1c502:	08d80163          	beq	a6,a3,1c584 <__trunctfdf2+0x1ce>
   1c506:	468d                	li	a3,3
   1c508:	04d80f63          	beq	a6,a3,1c566 <__trunctfdf2+0x1b0>
   1c50c:	04080263          	beqz	a6,1c550 <__trunctfdf2+0x19a>
   1c510:	4701                	li	a4,0
   1c512:	4685                	li	a3,1
   1c514:	f525                	bnez	a0,1c47c <__trunctfdf2+0xc6>
   1c516:	a0b1                	j	1c562 <__trunctfdf2+0x1ac>
   1c518:	10058163          	beqz	a1,1c61a <__trunctfdf2+0x264>
   1c51c:	4501                	li	a0,0
   1c51e:	01c71763          	bne	a4,t3,1c52c <__trunctfdf2+0x176>
   1c522:	92c9                	srli	a3,a3,0x32
   1c524:	0016c693          	xori	a3,a3,1
   1c528:	00469513          	slli	a0,a3,0x4
   1c52c:	4785                	li	a5,1
   1c52e:	4601                	li	a2,0
   1c530:	7ff00713          	li	a4,2047
   1c534:	17ce                	slli	a5,a5,0x33
   1c536:	7ff77713          	andi	a4,a4,2047
   1c53a:	07b2                	slli	a5,a5,0xc
   1c53c:	83b1                	srli	a5,a5,0xc
   1c53e:	1752                	slli	a4,a4,0x34
   1c540:	8f5d                	or	a4,a4,a5
   1c542:	03f61793          	slli	a5,a2,0x3f
   1c546:	8fd9                	or	a5,a5,a4
   1c548:	e55d                	bnez	a0,1c5f6 <__trunctfdf2+0x240>
   1c54a:	f2078553          	fmv.d.x	fa0,a5
   1c54e:	8082                	ret
   1c550:	00f77593          	andi	a1,a4,15
   1c554:	4691                	li	a3,4
   1c556:	0711                	addi	a4,a4,4
   1c558:	00d59963          	bne	a1,a3,1c56a <__trunctfdf2+0x1b4>
   1c55c:	4685                	li	a3,1
   1c55e:	4701                	li	a4,0
   1c560:	f10d                	bnez	a0,1c482 <__trunctfdf2+0xcc>
   1c562:	450d                	li	a0,3
   1c564:	bf1d                	j	1c49a <__trunctfdf2+0xe4>
   1c566:	f64d                	bnez	a2,1c510 <__trunctfdf2+0x15a>
   1c568:	0721                	addi	a4,a4,8
   1c56a:	4685                	li	a3,1
   1c56c:	16e2                	slli	a3,a3,0x38
   1c56e:	00d775b3          	and	a1,a4,a3
   1c572:	0015b693          	seqz	a3,a1
   1c576:	4701                	li	a4,0
   1c578:	f111                	bnez	a0,1c47c <__trunctfdf2+0xc6>
   1c57a:	450d                	li	a0,3
   1c57c:	dd99                	beqz	a1,1c49a <__trunctfdf2+0xe4>
   1c57e:	838d                	srli	a5,a5,0x3
   1c580:	4505                	li	a0,1
   1c582:	bf55                	j	1c536 <__trunctfdf2+0x180>
   1c584:	f275                	bnez	a2,1c568 <__trunctfdf2+0x1b2>
   1c586:	b769                	j	1c510 <__trunctfdf2+0x15a>
   1c588:	0791                	addi	a5,a5,4
   1c58a:	4505                	li	a0,1
   1c58c:	c699                	beqz	a3,1c59a <__trunctfdf2+0x1e4>
   1c58e:	0026e513          	ori	a0,a3,2
   1c592:	a021                	j	1c59a <__trunctfdf2+0x1e4>
   1c594:	c60d                	beqz	a2,1c5be <__trunctfdf2+0x208>
   1c596:	4505                	li	a0,1
   1c598:	ea85                	bnez	a3,1c5c8 <__trunctfdf2+0x212>
   1c59a:	0377d693          	srli	a3,a5,0x37
   1c59e:	8a85                	andi	a3,a3,1
   1c5a0:	ee068de3          	beqz	a3,1c49a <__trunctfdf2+0xe4>
   1c5a4:	0705                	addi	a4,a4,1
   1c5a6:	7ff00693          	li	a3,2047
   1c5aa:	02d70163          	beq	a4,a3,1c5cc <__trunctfdf2+0x216>
   1c5ae:	1ff00693          	li	a3,511
   1c5b2:	16d2                	slli	a3,a3,0x34
   1c5b4:	838d                	srli	a5,a5,0x3
   1c5b6:	16fd                	addi	a3,a3,-1
   1c5b8:	8ff5                	and	a5,a5,a3
   1c5ba:	bfb5                	j	1c536 <__trunctfdf2+0x180>
   1c5bc:	d679                	beqz	a2,1c58a <__trunctfdf2+0x1d4>
   1c5be:	07a1                	addi	a5,a5,8
   1c5c0:	b7e9                	j	1c58a <__trunctfdf2+0x1d4>
   1c5c2:	4505                	li	a0,1
   1c5c4:	f6e9                	bnez	a3,1c58e <__trunctfdf2+0x1d8>
   1c5c6:	bfd1                	j	1c59a <__trunctfdf2+0x1e4>
   1c5c8:	4685                	li	a3,1
   1c5ca:	b7d1                	j	1c58e <__trunctfdf2+0x1d8>
   1c5cc:	00556513          	ori	a0,a0,5
   1c5d0:	02080663          	beqz	a6,1c5fc <__trunctfdf2+0x246>
   1c5d4:	478d                	li	a5,3
   1c5d6:	00f81a63          	bne	a6,a5,1c5ea <__trunctfdf2+0x234>
   1c5da:	c20d                	beqz	a2,1c5fc <__trunctfdf2+0x246>
   1c5dc:	7ff00713          	li	a4,2047
   1c5e0:	1752                	slli	a4,a4,0x34
   1c5e2:	03f61793          	slli	a5,a2,0x3f
   1c5e6:	177d                	addi	a4,a4,-1
   1c5e8:	a839                	j	1c606 <__trunctfdf2+0x250>
   1c5ea:	4789                	li	a5,2
   1c5ec:	fef818e3          	bne	a6,a5,1c5dc <__trunctfdf2+0x226>
   1c5f0:	e611                	bnez	a2,1c5fc <__trunctfdf2+0x246>
   1c5f2:	7401b783          	ld	a5,1856(gp) # 1f6b0 <mask+0x8>
   1c5f6:	00152073          	csrs	fflags,a0
   1c5fa:	bf81                	j	1c54a <__trunctfdf2+0x194>
   1c5fc:	7ff00713          	li	a4,2047
   1c600:	03f61793          	slli	a5,a2,0x3f
   1c604:	1752                	slli	a4,a4,0x34
   1c606:	8fd9                	or	a5,a5,a4
   1c608:	b7fd                	j	1c5f6 <__trunctfdf2+0x240>
   1c60a:	7ff00713          	li	a4,2047
   1c60e:	03f61793          	slli	a5,a2,0x3f
   1c612:	1752                	slli	a4,a4,0x34
   1c614:	8fd9                	or	a5,a5,a4
   1c616:	4515                	li	a0,5
   1c618:	bff9                	j	1c5f6 <__trunctfdf2+0x240>
   1c61a:	7ff00793          	li	a5,2047
   1c61e:	03f61713          	slli	a4,a2,0x3f
   1c622:	17d2                	slli	a5,a5,0x34
   1c624:	8fd9                	or	a5,a5,a4
   1c626:	b715                	j	1c54a <__trunctfdf2+0x194>
   1c628:	7ff00793          	li	a5,2047
   1c62c:	17d2                	slli	a5,a5,0x34
   1c62e:	b7e5                	j	1c616 <__trunctfdf2+0x260>

000000000001c630 <__clzdi2>:
   1c630:	03855793          	srli	a5,a0,0x38
   1c634:	eb85                	bnez	a5,1c664 <__clzdi2+0x34>
   1c636:	03800793          	li	a5,56
   1c63a:	17e1                	addi	a5,a5,-8
   1c63c:	c791                	beqz	a5,1c648 <__clzdi2+0x18>
   1c63e:	00f55733          	srl	a4,a0,a5
   1c642:	0ff77713          	zext.b	a4,a4
   1c646:	db75                	beqz	a4,1c63a <__clzdi2+0xa>
   1c648:	6775                	lui	a4,0x1d
   1c64a:	04000693          	li	a3,64
   1c64e:	8e9d                	sub	a3,a3,a5
   1c650:	00f55533          	srl	a0,a0,a5
   1c654:	46070793          	addi	a5,a4,1120 # 1d460 <__clz_tab>
   1c658:	97aa                	add	a5,a5,a0
   1c65a:	0007c503          	lbu	a0,0(a5)
   1c65e:	40a6853b          	subw	a0,a3,a0
   1c662:	8082                	ret
   1c664:	03800793          	li	a5,56
   1c668:	b7c5                	j	1c648 <__clzdi2+0x18>
